(dp1
S'output'
p2
S''
sS'layer'
p3
S'/Users/excon/Sites/dreamscape/applications/welcome/controllers/default.py'
p4
sS'code'
p5
S'# -*- coding: utf-8 -*-\n# this file is released under public domain and you can use without limitations\n\n#########################################################################\n## This is a samples controller\n## - index is the default action of any application\n## - user is required for authentication and authorization\n## - download is for downloading files uploaded in the db (does streaming)\n## - call exposes all registered services (none by default)\n#########################################################################\n\ndef index():\n    """\n    example action using the internationalization operator T and flash\n    rendered by views/default/index.html or views/generic.html\n    """\n    if COMING_SOON:\n        redirect(URL(\'coming_soon\'))\n    return dict()\n    \ndef coming_soon():\n    form = FORM(\'Email:\',\n            INPUT(_name=\'email\', requires=IS_EMAIL(error_message=\'Invalid email\')),\n            INPUT(_type=\'submit\', _value=\'DREAM\'))\n            \n    if form.accepts(request, session):\n        \n        response.flash = \'Your a wonderful dreamer!\'\n    elif form.errors:\n        response.flash = \'Invalid email!\'\n    return dict(form=form)\n\ndef user():\n    """\n    exposes:\n    http://..../[app]/default/user/login\n    http://..../[app]/default/user/logout\n    http://..../[app]/default/user/register\n    http://..../[app]/default/user/profile\n    http://..../[app]/default/user/retrieve_password\n    http://..../[app]/default/user/change_password\n    use @auth.requires_login()\n        @auth.requires_membership(\'group name\')\n        @auth.requires_permission(\'read\',\'table name\',record_id)\n    to decorate functions that need access control\n    """\n    return dict(form=auth())\n\n\ndef download():\n    """\n    allows downloading of uploaded files\n    http://..../[app]/default/download/[filename]\n    """\n    return response.download(request,db)\n\n\ndef call():\n    """\n    exposes services. for example:\n    http://..../[app]/default/call/jsonrpc\n    decorate with @services.jsonrpc the functions to expose\n    supports xml, json, xmlrpc, jsonrpc, amfrpc, rss, csv\n    """\n    return service()\n\n\n@auth.requires_signature()\ndef data():\n    """\n    http://..../[app]/default/data/tables\n    http://..../[app]/default/data/create/[table]\n    http://..../[app]/default/data/read/[table]/[id]\n    http://..../[app]/default/data/update/[table]/[id]\n    http://..../[app]/default/data/delete/[table]/[id]\n    http://..../[app]/default/data/select/[table]\n    http://..../[app]/default/data/search/[table]\n    but URLs bust be signed, i.e. linked with\n      A(\'table\',_href=URL(\'data/tables\',user_signature=True))\n    or with the signed load operator\n      LOAD(\'default\',\'data.load\',args=\'tables\',ajax=True,user_signature=True)\n    """\n    return dict(form=crud())\n\nresponse._vars=response._caller(index)\n'
p6
sS'snapshot'
p7
(dp8
S'exception'
p9
(dp10
S'__hash__'
p11
S"<method-wrapper '__hash__' of exceptions.NameError object at 0x112da5c20>"
p12
sS'__setattr__'
p13
S"<method-wrapper '__setattr__' of exceptions.NameError object at 0x112da5c20>"
p14
sS'__reduce_ex__'
p15
S'<built-in method __reduce_ex__ of exceptions.NameError object at 0x112da5c20>'
p16
sS'__getslice__'
p17
S"<method-wrapper '__getslice__' of exceptions.NameError object at 0x112da5c20>"
p18
sS'__getitem__'
p19
S"<method-wrapper '__getitem__' of exceptions.NameError object at 0x112da5c20>"
p20
sS'__setstate__'
p21
S'<built-in method __setstate__ of exceptions.NameError object at 0x112da5c20>'
p22
sS'args'
p23
S'("global name \'COMING_SOON\' is not defined",)'
p24
sS'__reduce__'
p25
S'<built-in method __reduce__ of exceptions.NameError object at 0x112da5c20>'
p26
sS'__str__'
p27
S"<method-wrapper '__str__' of exceptions.NameError object at 0x112da5c20>"
p28
sS'__format__'
p29
S'<built-in method __format__ of exceptions.NameError object at 0x112da5c20>'
p30
sS'__getattribute__'
p31
S"<method-wrapper '__getattribute__' of exceptions.NameError object at 0x112da5c20>"
p32
sS'__class__'
p33
S"<type 'exceptions.NameError'>"
p34
sS'__unicode__'
p35
S'<built-in method __unicode__ of exceptions.NameError object at 0x112da5c20>'
p36
sS'__delattr__'
p37
S"<method-wrapper '__delattr__' of exceptions.NameError object at 0x112da5c20>"
p38
sS'__subclasshook__'
p39
S'<built-in method __subclasshook__ of type object at 0x10011b640>'
p40
sS'__repr__'
p41
S"<method-wrapper '__repr__' of exceptions.NameError object at 0x112da5c20>"
p42
sS'__dict__'
p43
S'{}'
p44
sS'__sizeof__'
p45
S'<built-in method __sizeof__ of exceptions.NameError object at 0x112da5c20>'
p46
sS'__doc__'
p47
S"'Name not found globally.'"
p48
sS'__init__'
p49
S"<method-wrapper '__init__' of exceptions.NameError object at 0x112da5c20>"
p50
sS'__new__'
p51
S'<built-in method __new__ of type object at 0x10011b640>'
p52
ssS'evalue'
p53
S"global name 'COMING_SOON' is not defined"
p54
sS'request'
p55
ccopy_reg
_reconstructor
p56
(cgluon.html
BEAUTIFY
p57
c__builtin__
object
p58
NtRp59
(dp60
S'attributes'
p61
(dp62
sS'components'
p63
(lp64
g56
(cgluon.html
TABLE
p65
g58
NtRp66
(dp67
g61
(dp68
S'level'
p69
I5
ssS'parent'
p70
Nsg63
(lp71
g56
(cgluon.html
TR
p72
g58
NtRp73
(dp74
g61
(dp75
sg70
g66
sg63
(lp76
g56
(cgluon.html
TD
p77
g58
NtRp78
(dp79
g61
(dp80
S'_style'
p81
S'font-weight:bold;'
p82
ssg70
g73
sg63
(lp83
S'ajax'
p84
asbag56
(g77
g58
NtRp85
(dp86
g61
(dp87
S'_valign'
p88
S'top'
p89
ssg70
g73
sg63
(lp90
S':'
asbag56
(g77
g58
NtRp91
(dp92
g61
(dp93
sg70
g73
sg63
(lp94
g56
(g57
g58
NtRp95
(dp96
g61
(dp97
g69
I5
ssg70
g91
sg63
(lp98
S'False'
p99
asbasbasbag56
(g72
g58
NtRp100
(dp101
g61
(dp102
sg70
g66
sg63
(lp103
g56
(g77
g58
NtRp104
(dp105
g61
(dp106
g81
g82
ssg70
g100
sg63
(lp107
S'application'
p108
asbag56
(g77
g58
NtRp109
(dp110
g61
(dp111
g88
g89
ssg70
g100
sg63
(lp112
S':'
asbag56
(g77
g58
NtRp113
(dp114
g61
(dp115
sg70
g100
sg63
(lp116
g56
(g57
g58
NtRp117
(dp118
g61
(dp119
g69
I5
ssg70
g113
sg63
(lp120
S'welcome'
p121
asbasbasbag56
(g72
g58
NtRp122
(dp123
g61
(dp124
sg70
g66
sg63
(lp125
g56
(g77
g58
NtRp126
(dp127
g61
(dp128
g81
g82
ssg70
g122
sg63
(lp129
g23
asbag56
(g77
g58
NtRp130
(dp131
g61
(dp132
g88
g89
ssg70
g122
sg63
(lp133
S':'
asbag56
(g77
g58
NtRp134
(dp135
g61
(dp136
sg70
g122
sg63
(lp137
g56
(g57
g58
NtRp138
(dp139
g61
(dp140
g69
I5
ssg70
g134
sg63
(lp141
g56
(g65
g58
NtRp142
(dp143
g61
(dp144
g69
I4
ssg70
Nsg63
(lp145
sbasbasbasbag56
(g72
g58
NtRp146
(dp147
g61
(dp148
sg70
g66
sg63
(lp149
g56
(g77
g58
NtRp150
(dp151
g61
(dp152
g81
g82
ssg70
g146
sg63
(lp153
S'body'
p154
asbag56
(g77
g58
NtRp155
(dp156
g61
(dp157
g88
g89
ssg70
g146
sg63
(lp158
S':'
asbag56
(g77
g58
NtRp159
(dp160
g61
(dp161
sg70
g146
sg63
(lp162
g56
(g57
g58
NtRp163
(dp164
g61
(dp165
g69
I5
ssg70
g159
sg63
(lp166
S'<cStringIO.StringO object at 0x112dca6f8>'
p167
asbasbasbag56
(g72
g58
NtRp168
(dp169
g61
(dp170
sg70
g66
sg63
(lp171
g56
(g77
g58
NtRp172
(dp173
g61
(dp174
g81
g82
ssg70
g168
sg63
(lp175
S'client'
p176
asbag56
(g77
g58
NtRp177
(dp178
g61
(dp179
g88
g89
ssg70
g168
sg63
(lp180
S':'
asbag56
(g77
g58
NtRp181
(dp182
g61
(dp183
sg70
g168
sg63
(lp184
g56
(g57
g58
NtRp185
(dp186
g61
(dp187
g69
I5
ssg70
g181
sg63
(lp188
S'127.0.0.1'
p189
asbasbasbag56
(g72
g58
NtRp190
(dp191
g61
(dp192
sg70
g66
sg63
(lp193
g56
(g77
g58
NtRp194
(dp195
g61
(dp196
g81
g82
ssg70
g190
sg63
(lp197
S'controller'
p198
asbag56
(g77
g58
NtRp199
(dp200
g61
(dp201
g88
g89
ssg70
g190
sg63
(lp202
S':'
asbag56
(g77
g58
NtRp203
(dp204
g61
(dp205
sg70
g190
sg63
(lp206
g56
(g57
g58
NtRp207
(dp208
g61
(dp209
g69
I5
ssg70
g203
sg63
(lp210
S'default'
p211
asbasbasbag56
(g72
g58
NtRp212
(dp213
g61
(dp214
sg70
g66
sg63
(lp215
g56
(g77
g58
NtRp216
(dp217
g61
(dp218
g81
g82
ssg70
g212
sg63
(lp219
S'cookies'
p220
asbag56
(g77
g58
NtRp221
(dp222
g61
(dp223
g88
g89
ssg70
g212
sg63
(lp224
S':'
asbag56
(g77
g58
NtRp225
(dp226
g61
(dp227
sg70
g212
sg63
(lp228
g56
(g57
g58
NtRp229
(dp230
g61
(dp231
g69
I5
ssg70
g225
sg63
(lp232
g56
(g65
g58
NtRp233
(dp234
g61
(dp235
g69
I4
ssg70
Nsg63
(lp236
g56
(g72
g58
NtRp237
(dp238
g61
(dp239
sg70
g233
sg63
(lp240
g56
(g77
g58
NtRp241
(dp242
g61
(dp243
g81
g82
ssg70
g237
sg63
(lp244
S'session_id_admin'
p245
asbag56
(g77
g58
NtRp246
(dp247
g61
(dp248
g88
g89
ssg70
g237
sg63
(lp249
S':'
asbag56
(g77
g58
NtRp250
(dp251
g61
(dp252
sg70
g237
sg63
(lp253
g56
(g57
g58
NtRp254
(dp255
g61
(dp256
g69
I4
ssg70
g250
sg63
(lp257
g56
(g65
g58
NtRp258
(dp259
g61
(dp260
g69
I3
ssg70
Nsg63
(lp261
g56
(g72
g58
NtRp262
(dp263
g61
(dp264
sg70
g258
sg63
(lp265
g56
(g77
g58
NtRp266
(dp267
g61
(dp268
g81
g82
ssg70
g262
sg63
(lp269
S'comment'
p270
asbag56
(g77
g58
NtRp271
(dp272
g61
(dp273
g88
g89
ssg70
g262
sg63
(lp274
S':'
asbag56
(g77
g58
NtRp275
(dp276
g61
(dp277
sg70
g262
sg63
(lp278
g56
(g57
g58
NtRp279
(dp280
g61
(dp281
g69
I3
ssg70
g275
sg63
(lp282
S''
asbasbasbag56
(g72
g58
NtRp283
(dp284
g61
(dp285
sg70
g258
sg63
(lp286
g56
(g77
g58
NtRp287
(dp288
g61
(dp289
g81
g82
ssg70
g283
sg63
(lp290
S'domain'
p291
asbag56
(g77
g58
NtRp292
(dp293
g61
(dp294
g88
g89
ssg70
g283
sg63
(lp295
S':'
asbag56
(g77
g58
NtRp296
(dp297
g61
(dp298
sg70
g283
sg63
(lp299
g56
(g57
g58
NtRp300
(dp301
g61
(dp302
g69
I3
ssg70
g296
sg63
(lp303
S''
asbasbasbag56
(g72
g58
NtRp304
(dp305
g61
(dp306
sg70
g258
sg63
(lp307
g56
(g77
g58
NtRp308
(dp309
g61
(dp310
g81
g82
ssg70
g304
sg63
(lp311
S'expires'
p312
asbag56
(g77
g58
NtRp313
(dp314
g61
(dp315
g88
g89
ssg70
g304
sg63
(lp316
S':'
asbag56
(g77
g58
NtRp317
(dp318
g61
(dp319
sg70
g304
sg63
(lp320
g56
(g57
g58
NtRp321
(dp322
g61
(dp323
g69
I3
ssg70
g317
sg63
(lp324
S''
asbasbasbag56
(g72
g58
NtRp325
(dp326
g61
(dp327
sg70
g258
sg63
(lp328
g56
(g77
g58
NtRp329
(dp330
g61
(dp331
g81
g82
ssg70
g325
sg63
(lp332
S'httponly'
p333
asbag56
(g77
g58
NtRp334
(dp335
g61
(dp336
g88
g89
ssg70
g325
sg63
(lp337
S':'
asbag56
(g77
g58
NtRp338
(dp339
g61
(dp340
sg70
g325
sg63
(lp341
g56
(g57
g58
NtRp342
(dp343
g61
(dp344
g69
I3
ssg70
g338
sg63
(lp345
S''
asbasbasbag56
(g72
g58
NtRp346
(dp347
g61
(dp348
sg70
g258
sg63
(lp349
g56
(g77
g58
NtRp350
(dp351
g61
(dp352
g81
g82
ssg70
g346
sg63
(lp353
S'max-age'
p354
asbag56
(g77
g58
NtRp355
(dp356
g61
(dp357
g88
g89
ssg70
g346
sg63
(lp358
S':'
asbag56
(g77
g58
NtRp359
(dp360
g61
(dp361
sg70
g346
sg63
(lp362
g56
(g57
g58
NtRp363
(dp364
g61
(dp365
g69
I3
ssg70
g359
sg63
(lp366
S''
asbasbasbag56
(g72
g58
NtRp367
(dp368
g61
(dp369
sg70
g258
sg63
(lp370
g56
(g77
g58
NtRp371
(dp372
g61
(dp373
g81
g82
ssg70
g367
sg63
(lp374
S'path'
p375
asbag56
(g77
g58
NtRp376
(dp377
g61
(dp378
g88
g89
ssg70
g367
sg63
(lp379
S':'
asbag56
(g77
g58
NtRp380
(dp381
g61
(dp382
sg70
g367
sg63
(lp383
g56
(g57
g58
NtRp384
(dp385
g61
(dp386
g69
I3
ssg70
g380
sg63
(lp387
S''
asbasbasbag56
(g72
g58
NtRp388
(dp389
g61
(dp390
sg70
g258
sg63
(lp391
g56
(g77
g58
NtRp392
(dp393
g61
(dp394
g81
g82
ssg70
g388
sg63
(lp395
S'secure'
p396
asbag56
(g77
g58
NtRp397
(dp398
g61
(dp399
g88
g89
ssg70
g388
sg63
(lp400
S':'
asbag56
(g77
g58
NtRp401
(dp402
g61
(dp403
sg70
g388
sg63
(lp404
g56
(g57
g58
NtRp405
(dp406
g61
(dp407
g69
I3
ssg70
g401
sg63
(lp408
S''
asbasbasbag56
(g72
g58
NtRp409
(dp410
g61
(dp411
sg70
g258
sg63
(lp412
g56
(g77
g58
NtRp413
(dp414
g61
(dp415
g81
g82
ssg70
g409
sg63
(lp416
S'version'
p417
asbag56
(g77
g58
NtRp418
(dp419
g61
(dp420
g88
g89
ssg70
g409
sg63
(lp421
S':'
asbag56
(g77
g58
NtRp422
(dp423
g61
(dp424
sg70
g409
sg63
(lp425
g56
(g57
g58
NtRp426
(dp427
g61
(dp428
g69
I3
ssg70
g422
sg63
(lp429
S''
asbasbasbasbasbasbasbag56
(g72
g58
NtRp430
(dp431
g61
(dp432
sg70
g233
sg63
(lp433
g56
(g77
g58
NtRp434
(dp435
g61
(dp436
g81
g82
ssg70
g430
sg63
(lp437
S'session_id_welcome'
p438
asbag56
(g77
g58
NtRp439
(dp440
g61
(dp441
g88
g89
ssg70
g430
sg63
(lp442
S':'
asbag56
(g77
g58
NtRp443
(dp444
g61
(dp445
sg70
g430
sg63
(lp446
g56
(g57
g58
NtRp447
(dp448
g61
(dp449
g69
I4
ssg70
g443
sg63
(lp450
g56
(g65
g58
NtRp451
(dp452
g61
(dp453
g69
I3
ssg70
Nsg63
(lp454
g56
(g72
g58
NtRp455
(dp456
g61
(dp457
sg70
g451
sg63
(lp458
g56
(g77
g58
NtRp459
(dp460
g61
(dp461
g81
g82
ssg70
g455
sg63
(lp462
g270
asbag56
(g77
g58
NtRp463
(dp464
g61
(dp465
g88
g89
ssg70
g455
sg63
(lp466
S':'
asbag56
(g77
g58
NtRp467
(dp468
g61
(dp469
sg70
g455
sg63
(lp470
g56
(g57
g58
NtRp471
(dp472
g61
(dp473
g69
I3
ssg70
g467
sg63
(lp474
S''
asbasbasbag56
(g72
g58
NtRp475
(dp476
g61
(dp477
sg70
g451
sg63
(lp478
g56
(g77
g58
NtRp479
(dp480
g61
(dp481
g81
g82
ssg70
g475
sg63
(lp482
g291
asbag56
(g77
g58
NtRp483
(dp484
g61
(dp485
g88
g89
ssg70
g475
sg63
(lp486
S':'
asbag56
(g77
g58
NtRp487
(dp488
g61
(dp489
sg70
g475
sg63
(lp490
g56
(g57
g58
NtRp491
(dp492
g61
(dp493
g69
I3
ssg70
g487
sg63
(lp494
S''
asbasbasbag56
(g72
g58
NtRp495
(dp496
g61
(dp497
sg70
g451
sg63
(lp498
g56
(g77
g58
NtRp499
(dp500
g61
(dp501
g81
g82
ssg70
g495
sg63
(lp502
g312
asbag56
(g77
g58
NtRp503
(dp504
g61
(dp505
g88
g89
ssg70
g495
sg63
(lp506
S':'
asbag56
(g77
g58
NtRp507
(dp508
g61
(dp509
sg70
g495
sg63
(lp510
g56
(g57
g58
NtRp511
(dp512
g61
(dp513
g69
I3
ssg70
g507
sg63
(lp514
S''
asbasbasbag56
(g72
g58
NtRp515
(dp516
g61
(dp517
sg70
g451
sg63
(lp518
g56
(g77
g58
NtRp519
(dp520
g61
(dp521
g81
g82
ssg70
g515
sg63
(lp522
g333
asbag56
(g77
g58
NtRp523
(dp524
g61
(dp525
g88
g89
ssg70
g515
sg63
(lp526
S':'
asbag56
(g77
g58
NtRp527
(dp528
g61
(dp529
sg70
g515
sg63
(lp530
g56
(g57
g58
NtRp531
(dp532
g61
(dp533
g69
I3
ssg70
g527
sg63
(lp534
S''
asbasbasbag56
(g72
g58
NtRp535
(dp536
g61
(dp537
sg70
g451
sg63
(lp538
g56
(g77
g58
NtRp539
(dp540
g61
(dp541
g81
g82
ssg70
g535
sg63
(lp542
g354
asbag56
(g77
g58
NtRp543
(dp544
g61
(dp545
g88
g89
ssg70
g535
sg63
(lp546
S':'
asbag56
(g77
g58
NtRp547
(dp548
g61
(dp549
sg70
g535
sg63
(lp550
g56
(g57
g58
NtRp551
(dp552
g61
(dp553
g69
I3
ssg70
g547
sg63
(lp554
S''
asbasbasbag56
(g72
g58
NtRp555
(dp556
g61
(dp557
sg70
g451
sg63
(lp558
g56
(g77
g58
NtRp559
(dp560
g61
(dp561
g81
g82
ssg70
g555
sg63
(lp562
g375
asbag56
(g77
g58
NtRp563
(dp564
g61
(dp565
g88
g89
ssg70
g555
sg63
(lp566
S':'
asbag56
(g77
g58
NtRp567
(dp568
g61
(dp569
sg70
g555
sg63
(lp570
g56
(g57
g58
NtRp571
(dp572
g61
(dp573
g69
I3
ssg70
g567
sg63
(lp574
S''
asbasbasbag56
(g72
g58
NtRp575
(dp576
g61
(dp577
sg70
g451
sg63
(lp578
g56
(g77
g58
NtRp579
(dp580
g61
(dp581
g81
g82
ssg70
g575
sg63
(lp582
g396
asbag56
(g77
g58
NtRp583
(dp584
g61
(dp585
g88
g89
ssg70
g575
sg63
(lp586
S':'
asbag56
(g77
g58
NtRp587
(dp588
g61
(dp589
sg70
g575
sg63
(lp590
g56
(g57
g58
NtRp591
(dp592
g61
(dp593
g69
I3
ssg70
g587
sg63
(lp594
S''
asbasbasbag56
(g72
g58
NtRp595
(dp596
g61
(dp597
sg70
g451
sg63
(lp598
g56
(g77
g58
NtRp599
(dp600
g61
(dp601
g81
g82
ssg70
g595
sg63
(lp602
g417
asbag56
(g77
g58
NtRp603
(dp604
g61
(dp605
g88
g89
ssg70
g595
sg63
(lp606
S':'
asbag56
(g77
g58
NtRp607
(dp608
g61
(dp609
sg70
g595
sg63
(lp610
g56
(g57
g58
NtRp611
(dp612
g61
(dp613
g69
I3
ssg70
g607
sg63
(lp614
S''
asbasbasbasbasbasbasbasbasbasbasbag56
(g72
g58
NtRp615
(dp616
g61
(dp617
sg70
g66
sg63
(lp618
g56
(g77
g58
NtRp619
(dp620
g61
(dp621
g81
g82
ssg70
g615
sg63
(lp622
S'env'
p623
asbag56
(g77
g58
NtRp624
(dp625
g61
(dp626
g88
g89
ssg70
g615
sg63
(lp627
S':'
asbag56
(g77
g58
NtRp628
(dp629
g61
(dp630
sg70
g615
sg63
(lp631
g56
(g57
g58
NtRp632
(dp633
g61
(dp634
g69
I5
ssg70
g628
sg63
(lp635
g56
(g65
g58
NtRp636
(dp637
g61
(dp638
g69
I4
ssg70
Nsg63
(lp639
g56
(g72
g58
NtRp640
(dp641
g61
(dp642
sg70
g636
sg63
(lp643
g56
(g77
g58
NtRp644
(dp645
g61
(dp646
g81
g82
ssg70
g640
sg63
(lp647
S'app_folders'
p648
asbag56
(g77
g58
NtRp649
(dp650
g61
(dp651
g88
g89
ssg70
g640
sg63
(lp652
S':'
asbag56
(g77
g58
NtRp653
(dp654
g61
(dp655
sg70
g640
sg63
(lp656
g56
(g57
g58
NtRp657
(dp658
g61
(dp659
g69
I4
ssg70
g653
sg63
(lp660
S"set(['/Users/excon/Sites/dreamscape/applications/welcome/', '/Users/excon/Sites/dreamscape/applications/admin/'])"
p661
asbasbasbag56
(g72
g58
NtRp662
(dp663
g61
(dp664
sg70
g636
sg63
(lp665
g56
(g77
g58
NtRp666
(dp667
g61
(dp668
g81
g82
ssg70
g662
sg63
(lp669
S'applications_parent'
p670
asbag56
(g77
g58
NtRp671
(dp672
g61
(dp673
g88
g89
ssg70
g662
sg63
(lp674
S':'
asbag56
(g77
g58
NtRp675
(dp676
g61
(dp677
sg70
g662
sg63
(lp678
g56
(g57
g58
NtRp679
(dp680
g61
(dp681
g69
I4
ssg70
g675
sg63
(lp682
S'/Users/excon/Sites/dreamscape'
p683
asbasbasbag56
(g72
g58
NtRp684
(dp685
g61
(dp686
sg70
g636
sg63
(lp687
g56
(g77
g58
NtRp688
(dp689
g61
(dp690
g81
g82
ssg70
g684
sg63
(lp691
S'cmd_args'
p692
asbag56
(g77
g58
NtRp693
(dp694
g61
(dp695
g88
g89
ssg70
g684
sg63
(lp696
S':'
asbag56
(g77
g58
NtRp697
(dp698
g61
(dp699
sg70
g684
sg63
(lp700
g56
(g57
g58
NtRp701
(dp702
g61
(dp703
g69
I4
ssg70
g697
sg63
(lp704
g56
(g65
g58
NtRp705
(dp706
g61
(dp707
g69
I3
ssg70
Nsg63
(lp708
sbasbasbasbag56
(g72
g58
NtRp709
(dp710
g61
(dp711
sg70
g636
sg63
(lp712
g56
(g77
g58
NtRp713
(dp714
g61
(dp715
g81
g82
ssg70
g709
sg63
(lp716
S'cmd_options'
p717
asbag56
(g77
g58
NtRp718
(dp719
g61
(dp720
g88
g89
ssg70
g709
sg63
(lp721
S':'
asbag56
(g77
g58
NtRp722
(dp723
g61
(dp724
sg70
g709
sg63
(lp725
g56
(g57
g58
NtRp726
(dp727
g61
(dp728
g69
I4
ssg70
g722
sg63
(lp729
S"<Values at 0x101c08e18: {'verbose': False, 'ip': '127.0.0.1', 'shutdown_timeout': 5, 'taskbar': False, 'nocron': False, 'pid_filename': 'httpserver.pid', 'maxthreads': None, 'softcron': False, 'server_name': 'Excons-MacBook.local', 'bpython': False, 'nogui': False, 'port': 8000, 'extcron': False, 'debuglevel': 30, 'test': None, 'folder': '/Users/excon/Sites/dreamscape', 'config': '', 'import_models': False, 'winservice': '', 'shell': None, 'run': '', 'log_filename': 'httpserver.log', 'args': [''], 'ssl_ca_certificate': None, 'scheduler': None, 'profiler_filename': None, 'ssl_private_key': '', 'password': '<ask>', 'request_queue_size': 5, 'ssl_certificate': '', 'cronjob': False, 'plain': False, 'quiet': False, 'interfaces': None, 'minthreads': None, 'timeout': 10, 'numthreads': None, 'nobanner': False}>"
p730
asbasbasbag56
(g72
g58
NtRp731
(dp732
g61
(dp733
sg70
g636
sg63
(lp734
g56
(g77
g58
NtRp735
(dp736
g61
(dp737
g81
g82
ssg70
g731
sg63
(lp738
S'db_sessions'
p739
asbag56
(g77
g58
NtRp740
(dp741
g61
(dp742
g88
g89
ssg70
g731
sg63
(lp743
S':'
asbag56
(g77
g58
NtRp744
(dp745
g61
(dp746
sg70
g731
sg63
(lp747
g56
(g57
g58
NtRp748
(dp749
g61
(dp750
g69
I4
ssg70
g744
sg63
(lp751
S'set([])'
p752
asbasbasbag56
(g72
g58
NtRp753
(dp754
g61
(dp755
sg70
g636
sg63
(lp756
g56
(g77
g58
NtRp757
(dp758
g61
(dp759
g81
g82
ssg70
g753
sg63
(lp760
S'debugging'
p761
asbag56
(g77
g58
NtRp762
(dp763
g61
(dp764
g88
g89
ssg70
g753
sg63
(lp765
S':'
asbag56
(g77
g58
NtRp766
(dp767
g61
(dp768
sg70
g753
sg63
(lp769
g56
(g57
g58
NtRp770
(dp771
g61
(dp772
g69
I4
ssg70
g766
sg63
(lp773
g99
asbasbasbag56
(g72
g58
NtRp774
(dp775
g61
(dp776
sg70
g636
sg63
(lp777
g56
(g77
g58
NtRp778
(dp779
g61
(dp780
g81
g82
ssg70
g774
sg63
(lp781
S'gluon_parent'
p782
asbag56
(g77
g58
NtRp783
(dp784
g61
(dp785
g88
g89
ssg70
g774
sg63
(lp786
S':'
asbag56
(g77
g58
NtRp787
(dp788
g61
(dp789
sg70
g774
sg63
(lp790
g56
(g57
g58
NtRp791
(dp792
g61
(dp793
g69
I4
ssg70
g787
sg63
(lp794
S'/Users/excon/Sites/dreamscape'
p795
asbasbasbag56
(g72
g58
NtRp796
(dp797
g61
(dp798
sg70
g636
sg63
(lp799
g56
(g77
g58
NtRp800
(dp801
g61
(dp802
g81
g82
ssg70
g796
sg63
(lp803
S'http_accept'
p804
asbag56
(g77
g58
NtRp805
(dp806
g61
(dp807
g88
g89
ssg70
g796
sg63
(lp808
S':'
asbag56
(g77
g58
NtRp809
(dp810
g61
(dp811
sg70
g796
sg63
(lp812
g56
(g57
g58
NtRp813
(dp814
g61
(dp815
g69
I4
ssg70
g809
sg63
(lp816
S'text/html,application/xhtml+xml,application/xml;q=0.9,*/*;q=0.8'
p817
asbasbasbag56
(g72
g58
NtRp818
(dp819
g61
(dp820
sg70
g636
sg63
(lp821
g56
(g77
g58
NtRp822
(dp823
g61
(dp824
g81
g82
ssg70
g818
sg63
(lp825
S'http_accept_charset'
p826
asbag56
(g77
g58
NtRp827
(dp828
g61
(dp829
g88
g89
ssg70
g818
sg63
(lp830
S':'
asbag56
(g77
g58
NtRp831
(dp832
g61
(dp833
sg70
g818
sg63
(lp834
g56
(g57
g58
NtRp835
(dp836
g61
(dp837
g69
I4
ssg70
g831
sg63
(lp838
S'ISO-8859-1,utf-8;q=0.7,*;q=0.7'
p839
asbasbasbag56
(g72
g58
NtRp840
(dp841
g61
(dp842
sg70
g636
sg63
(lp843
g56
(g77
g58
NtRp844
(dp845
g61
(dp846
g81
g82
ssg70
g840
sg63
(lp847
S'http_accept_encoding'
p848
asbag56
(g77
g58
NtRp849
(dp850
g61
(dp851
g88
g89
ssg70
g840
sg63
(lp852
S':'
asbag56
(g77
g58
NtRp853
(dp854
g61
(dp855
sg70
g840
sg63
(lp856
g56
(g57
g58
NtRp857
(dp858
g61
(dp859
g69
I4
ssg70
g853
sg63
(lp860
S'gzip, deflate'
p861
asbasbasbag56
(g72
g58
NtRp862
(dp863
g61
(dp864
sg70
g636
sg63
(lp865
g56
(g77
g58
NtRp866
(dp867
g61
(dp868
g81
g82
ssg70
g862
sg63
(lp869
S'http_accept_language'
p870
asbag56
(g77
g58
NtRp871
(dp872
g61
(dp873
g88
g89
ssg70
g862
sg63
(lp874
S':'
asbag56
(g77
g58
NtRp875
(dp876
g61
(dp877
sg70
g862
sg63
(lp878
g56
(g57
g58
NtRp879
(dp880
g61
(dp881
g69
I4
ssg70
g875
sg63
(lp882
S'en-us,en;q=0.5'
p883
asbasbasbag56
(g72
g58
NtRp884
(dp885
g61
(dp886
sg70
g636
sg63
(lp887
g56
(g77
g58
NtRp888
(dp889
g61
(dp890
g81
g82
ssg70
g884
sg63
(lp891
S'http_connection'
p892
asbag56
(g77
g58
NtRp893
(dp894
g61
(dp895
g88
g89
ssg70
g884
sg63
(lp896
S':'
asbag56
(g77
g58
NtRp897
(dp898
g61
(dp899
sg70
g884
sg63
(lp900
g56
(g57
g58
NtRp901
(dp902
g61
(dp903
g69
I4
ssg70
g897
sg63
(lp904
S'keep-alive'
p905
asbasbasbag56
(g72
g58
NtRp906
(dp907
g61
(dp908
sg70
g636
sg63
(lp909
g56
(g77
g58
NtRp910
(dp911
g61
(dp912
g81
g82
ssg70
g906
sg63
(lp913
S'http_cookie'
p914
asbag56
(g77
g58
NtRp915
(dp916
g61
(dp917
g88
g89
ssg70
g906
sg63
(lp918
S':'
asbag56
(g77
g58
NtRp919
(dp920
g61
(dp921
sg70
g906
sg63
(lp922
g56
(g57
g58
NtRp923
(dp924
g61
(dp925
g69
I4
ssg70
g919
sg63
(lp926
S'session_id_admin=127.0.0.1-5b141cc6-e361-4eb9-a9ac-a862b6eab284; session_id_welcome=127.0.0.1-51cc951f-9f8f-44c6-96d8-bac94161d020'
p927
asbasbasbag56
(g72
g58
NtRp928
(dp929
g61
(dp930
sg70
g636
sg63
(lp931
g56
(g77
g58
NtRp932
(dp933
g61
(dp934
g81
g82
ssg70
g928
sg63
(lp935
S'http_host'
p936
asbag56
(g77
g58
NtRp937
(dp938
g61
(dp939
g88
g89
ssg70
g928
sg63
(lp940
S':'
asbag56
(g77
g58
NtRp941
(dp942
g61
(dp943
sg70
g928
sg63
(lp944
g56
(g57
g58
NtRp945
(dp946
g61
(dp947
g69
I4
ssg70
g941
sg63
(lp948
S'localhost:8000'
p949
asbasbasbag56
(g72
g58
NtRp950
(dp951
g61
(dp952
sg70
g636
sg63
(lp953
g56
(g77
g58
NtRp954
(dp955
g61
(dp956
g81
g82
ssg70
g950
sg63
(lp957
S'http_user_agent'
p958
asbag56
(g77
g58
NtRp959
(dp960
g61
(dp961
g88
g89
ssg70
g950
sg63
(lp962
S':'
asbag56
(g77
g58
NtRp963
(dp964
g61
(dp965
sg70
g950
sg63
(lp966
g56
(g57
g58
NtRp967
(dp968
g61
(dp969
g69
I4
ssg70
g963
sg63
(lp970
S'Mozilla/5.0 (Macintosh; Intel Mac OS X 10.6; rv:6.0.2) Gecko/20100101 Firefox/6.0.2'
p971
asbasbasbag56
(g72
g58
NtRp972
(dp973
g61
(dp974
sg70
g636
sg63
(lp975
g56
(g77
g58
NtRp976
(dp977
g61
(dp978
g81
g82
ssg70
g972
sg63
(lp979
S'is_jython'
p980
asbag56
(g77
g58
NtRp981
(dp982
g61
(dp983
g88
g89
ssg70
g972
sg63
(lp984
S':'
asbag56
(g77
g58
NtRp985
(dp986
g61
(dp987
sg70
g972
sg63
(lp988
g56
(g57
g58
NtRp989
(dp990
g61
(dp991
g69
I4
ssg70
g985
sg63
(lp992
g99
asbasbasbag56
(g72
g58
NtRp993
(dp994
g61
(dp995
sg70
g636
sg63
(lp996
g56
(g77
g58
NtRp997
(dp998
g61
(dp999
g81
g82
ssg70
g993
sg63
(lp1000
S'path_info'
p1001
asbag56
(g77
g58
NtRp1002
(dp1003
g61
(dp1004
g88
g89
ssg70
g993
sg63
(lp1005
S':'
asbag56
(g77
g58
NtRp1006
(dp1007
g61
(dp1008
sg70
g993
sg63
(lp1009
g56
(g57
g58
NtRp1010
(dp1011
g61
(dp1012
g69
I4
ssg70
g1006
sg63
(lp1013
S'/welcome/default/index'
p1014
asbasbasbag56
(g72
g58
NtRp1015
(dp1016
g61
(dp1017
sg70
g636
sg63
(lp1018
g56
(g77
g58
NtRp1019
(dp1020
g61
(dp1021
g81
g82
ssg70
g1015
sg63
(lp1022
S'query_string'
p1023
asbag56
(g77
g58
NtRp1024
(dp1025
g61
(dp1026
g88
g89
ssg70
g1015
sg63
(lp1027
S':'
asbag56
(g77
g58
NtRp1028
(dp1029
g61
(dp1030
sg70
g1015
sg63
(lp1031
g56
(g57
g58
NtRp1032
(dp1033
g61
(dp1034
g69
I4
ssg70
g1028
sg63
(lp1035
S''
asbasbasbag56
(g72
g58
NtRp1036
(dp1037
g61
(dp1038
sg70
g636
sg63
(lp1039
g56
(g77
g58
NtRp1040
(dp1041
g61
(dp1042
g81
g82
ssg70
g1036
sg63
(lp1043
S'remote_addr'
p1044
asbag56
(g77
g58
NtRp1045
(dp1046
g61
(dp1047
g88
g89
ssg70
g1036
sg63
(lp1048
S':'
asbag56
(g77
g58
NtRp1049
(dp1050
g61
(dp1051
sg70
g1036
sg63
(lp1052
g56
(g57
g58
NtRp1053
(dp1054
g61
(dp1055
g69
I4
ssg70
g1049
sg63
(lp1056
g189
asbasbasbag56
(g72
g58
NtRp1057
(dp1058
g61
(dp1059
sg70
g636
sg63
(lp1060
g56
(g77
g58
NtRp1061
(dp1062
g61
(dp1063
g81
g82
ssg70
g1057
sg63
(lp1064
S'remote_port'
p1065
asbag56
(g77
g58
NtRp1066
(dp1067
g61
(dp1068
g88
g89
ssg70
g1057
sg63
(lp1069
S':'
asbag56
(g77
g58
NtRp1070
(dp1071
g61
(dp1072
sg70
g1057
sg63
(lp1073
g56
(g57
g58
NtRp1074
(dp1075
g61
(dp1076
g69
I4
ssg70
g1070
sg63
(lp1077
S'53043'
p1078
asbasbasbag56
(g72
g58
NtRp1079
(dp1080
g61
(dp1081
sg70
g636
sg63
(lp1082
g56
(g77
g58
NtRp1083
(dp1084
g61
(dp1085
g81
g82
ssg70
g1079
sg63
(lp1086
S'request_method'
p1087
asbag56
(g77
g58
NtRp1088
(dp1089
g61
(dp1090
g88
g89
ssg70
g1079
sg63
(lp1091
S':'
asbag56
(g77
g58
NtRp1092
(dp1093
g61
(dp1094
sg70
g1079
sg63
(lp1095
g56
(g57
g58
NtRp1096
(dp1097
g61
(dp1098
g69
I4
ssg70
g1092
sg63
(lp1099
S'GET'
p1100
asbasbasbag56
(g72
g58
NtRp1101
(dp1102
g61
(dp1103
sg70
g636
sg63
(lp1104
g56
(g77
g58
NtRp1105
(dp1106
g61
(dp1107
g81
g82
ssg70
g1101
sg63
(lp1108
S'script_name'
p1109
asbag56
(g77
g58
NtRp1110
(dp1111
g61
(dp1112
g88
g89
ssg70
g1101
sg63
(lp1113
S':'
asbag56
(g77
g58
NtRp1114
(dp1115
g61
(dp1116
sg70
g1101
sg63
(lp1117
g56
(g57
g58
NtRp1118
(dp1119
g61
(dp1120
g69
I4
ssg70
g1114
sg63
(lp1121
S''
asbasbasbag56
(g72
g58
NtRp1122
(dp1123
g61
(dp1124
sg70
g636
sg63
(lp1125
g56
(g77
g58
NtRp1126
(dp1127
g61
(dp1128
g81
g82
ssg70
g1122
sg63
(lp1129
S'server_name'
p1130
asbag56
(g77
g58
NtRp1131
(dp1132
g61
(dp1133
g88
g89
ssg70
g1122
sg63
(lp1134
S':'
asbag56
(g77
g58
NtRp1135
(dp1136
g61
(dp1137
sg70
g1122
sg63
(lp1138
g56
(g57
g58
NtRp1139
(dp1140
g61
(dp1141
g69
I4
ssg70
g1135
sg63
(lp1142
S'Excons-MacBook.local'
p1143
asbasbasbag56
(g72
g58
NtRp1144
(dp1145
g61
(dp1146
sg70
g636
sg63
(lp1147
g56
(g77
g58
NtRp1148
(dp1149
g61
(dp1150
g81
g82
ssg70
g1144
sg63
(lp1151
S'server_port'
p1152
asbag56
(g77
g58
NtRp1153
(dp1154
g61
(dp1155
g88
g89
ssg70
g1144
sg63
(lp1156
S':'
asbag56
(g77
g58
NtRp1157
(dp1158
g61
(dp1159
sg70
g1144
sg63
(lp1160
g56
(g57
g58
NtRp1161
(dp1162
g61
(dp1163
g69
I4
ssg70
g1157
sg63
(lp1164
S'8000'
p1165
asbasbasbag56
(g72
g58
NtRp1166
(dp1167
g61
(dp1168
sg70
g636
sg63
(lp1169
g56
(g77
g58
NtRp1170
(dp1171
g61
(dp1172
g81
g82
ssg70
g1166
sg63
(lp1173
S'server_protocol'
p1174
asbag56
(g77
g58
NtRp1175
(dp1176
g61
(dp1177
g88
g89
ssg70
g1166
sg63
(lp1178
S':'
asbag56
(g77
g58
NtRp1179
(dp1180
g61
(dp1181
sg70
g1166
sg63
(lp1182
g56
(g57
g58
NtRp1183
(dp1184
g61
(dp1185
g69
I4
ssg70
g1179
sg63
(lp1186
S'HTTP/1.1'
p1187
asbasbasbag56
(g72
g58
NtRp1188
(dp1189
g61
(dp1190
sg70
g636
sg63
(lp1191
g56
(g77
g58
NtRp1192
(dp1193
g61
(dp1194
g81
g82
ssg70
g1188
sg63
(lp1195
S'server_software'
p1196
asbag56
(g77
g58
NtRp1197
(dp1198
g61
(dp1199
g88
g89
ssg70
g1188
sg63
(lp1200
S':'
asbag56
(g77
g58
NtRp1201
(dp1202
g61
(dp1203
sg70
g1188
sg63
(lp1204
g56
(g57
g58
NtRp1205
(dp1206
g61
(dp1207
g69
I4
ssg70
g1201
sg63
(lp1208
S'Rocket 1.2.4'
p1209
asbasbasbag56
(g72
g58
NtRp1210
(dp1211
g61
(dp1212
sg70
g636
sg63
(lp1213
g56
(g77
g58
NtRp1214
(dp1215
g61
(dp1216
g81
g82
ssg70
g1210
sg63
(lp1217
S'web2py_crontype'
p1218
asbag56
(g77
g58
NtRp1219
(dp1220
g61
(dp1221
g88
g89
ssg70
g1210
sg63
(lp1222
S':'
asbag56
(g77
g58
NtRp1223
(dp1224
g61
(dp1225
sg70
g1210
sg63
(lp1226
g56
(g57
g58
NtRp1227
(dp1228
g61
(dp1229
g69
I4
ssg70
g1223
sg63
(lp1230
S'hard'
p1231
asbasbasbag56
(g72
g58
NtRp1232
(dp1233
g61
(dp1234
sg70
g636
sg63
(lp1235
g56
(g77
g58
NtRp1236
(dp1237
g61
(dp1238
g81
g82
ssg70
g1232
sg63
(lp1239
S'web2py_path'
p1240
asbag56
(g77
g58
NtRp1241
(dp1242
g61
(dp1243
g88
g89
ssg70
g1232
sg63
(lp1244
S':'
asbag56
(g77
g58
NtRp1245
(dp1246
g61
(dp1247
sg70
g1232
sg63
(lp1248
g56
(g57
g58
NtRp1249
(dp1250
g61
(dp1251
g69
I4
ssg70
g1245
sg63
(lp1252
g683
asbasbasbag56
(g72
g58
NtRp1253
(dp1254
g61
(dp1255
sg70
g636
sg63
(lp1256
g56
(g77
g58
NtRp1257
(dp1258
g61
(dp1259
g81
g82
ssg70
g1253
sg63
(lp1260
S'web2py_version'
p1261
asbag56
(g77
g58
NtRp1262
(dp1263
g61
(dp1264
g88
g89
ssg70
g1253
sg63
(lp1265
S':'
asbag56
(g77
g58
NtRp1266
(dp1267
g61
(dp1268
sg70
g1253
sg63
(lp1269
g56
(g57
g58
NtRp1270
(dp1271
g61
(dp1272
g69
I4
ssg70
g1266
sg63
(lp1273
g56
(g65
g58
NtRp1274
(dp1275
g61
(dp1276
g69
I3
ssg70
Nsg63
(lp1277
g56
(g72
g58
NtRp1278
(dp1279
g61
(dp1280
sg70
g1274
sg63
(lp1281
g56
(g77
g58
NtRp1282
(dp1283
g61
(dp1284
sg70
g1278
sg63
(lp1285
g56
(g57
g58
NtRp1286
(dp1287
g61
(dp1288
g69
I3
ssg70
g1282
sg63
(lp1289
S'1'
asbasbasbag56
(g72
g58
NtRp1290
(dp1291
g61
(dp1292
sg70
g1274
sg63
(lp1293
g56
(g77
g58
NtRp1294
(dp1295
g61
(dp1296
sg70
g1290
sg63
(lp1297
g56
(g57
g58
NtRp1298
(dp1299
g61
(dp1300
g69
I3
ssg70
g1294
sg63
(lp1301
S'99'
p1302
asbasbasbag56
(g72
g58
NtRp1303
(dp1304
g61
(dp1305
sg70
g1274
sg63
(lp1306
g56
(g77
g58
NtRp1307
(dp1308
g61
(dp1309
sg70
g1303
sg63
(lp1310
g56
(g57
g58
NtRp1311
(dp1312
g61
(dp1313
g69
I3
ssg70
g1307
sg63
(lp1314
S'2'
asbasbasbag56
(g72
g58
NtRp1315
(dp1316
g61
(dp1317
sg70
g1274
sg63
(lp1318
g56
(g77
g58
NtRp1319
(dp1320
g61
(dp1321
sg70
g1315
sg63
(lp1322
g56
(g57
g58
NtRp1323
(dp1324
g61
(dp1325
g69
I3
ssg70
g1319
sg63
(lp1326
S'datetime.datetime(2011, 9, 26, 6, 55, 33)'
p1327
asbasbasbag56
(g72
g58
NtRp1328
(dp1329
g61
(dp1330
sg70
g1274
sg63
(lp1331
g56
(g77
g58
NtRp1332
(dp1333
g61
(dp1334
sg70
g1328
sg63
(lp1335
g56
(g57
g58
NtRp1336
(dp1337
g61
(dp1338
g69
I3
ssg70
g1332
sg63
(lp1339
S'stable'
p1340
asbasbasbasbasbasbasbag56
(g72
g58
NtRp1341
(dp1342
g61
(dp1343
sg70
g636
sg63
(lp1344
g56
(g77
g58
NtRp1345
(dp1346
g61
(dp1347
g81
g82
ssg70
g1341
sg63
(lp1348
S'wsgi_errors'
p1349
asbag56
(g77
g58
NtRp1350
(dp1351
g61
(dp1352
g88
g89
ssg70
g1341
sg63
(lp1353
S':'
asbag56
(g77
g58
NtRp1354
(dp1355
g61
(dp1356
sg70
g1341
sg63
(lp1357
g56
(g57
g58
NtRp1358
(dp1359
g61
(dp1360
g69
I4
ssg70
g1354
sg63
(lp1361
S"<open file '<stderr>', mode 'w' at 0x100416140>"
p1362
asbasbasbag56
(g72
g58
NtRp1363
(dp1364
g61
(dp1365
sg70
g636
sg63
(lp1366
g56
(g77
g58
NtRp1367
(dp1368
g61
(dp1369
g81
g82
ssg70
g1363
sg63
(lp1370
S'wsgi_file_wrapper'
p1371
asbag56
(g77
g58
NtRp1372
(dp1373
g61
(dp1374
g88
g89
ssg70
g1363
sg63
(lp1375
S':'
asbag56
(g77
g58
NtRp1376
(dp1377
g61
(dp1378
sg70
g1363
sg63
(lp1379
g56
(g57
g58
NtRp1380
(dp1381
g61
(dp1382
g69
I4
ssg70
g1376
sg63
(lp1383
S'<class wsgiref.util.FileWrapper at 0x1014a1bf0>'
p1384
asbasbasbag56
(g72
g58
NtRp1385
(dp1386
g61
(dp1387
sg70
g636
sg63
(lp1388
g56
(g77
g58
NtRp1389
(dp1390
g61
(dp1391
g81
g82
ssg70
g1385
sg63
(lp1392
S'wsgi_input'
p1393
asbag56
(g77
g58
NtRp1394
(dp1395
g61
(dp1396
g88
g89
ssg70
g1385
sg63
(lp1397
S':'
asbag56
(g77
g58
NtRp1398
(dp1399
g61
(dp1400
sg70
g1385
sg63
(lp1401
g56
(g57
g58
NtRp1402
(dp1403
g61
(dp1404
g69
I4
ssg70
g1398
sg63
(lp1405
S'<socket._fileobject object at 0x1015448c0>'
p1406
asbasbasbag56
(g72
g58
NtRp1407
(dp1408
g61
(dp1409
sg70
g636
sg63
(lp1410
g56
(g77
g58
NtRp1411
(dp1412
g61
(dp1413
g81
g82
ssg70
g1407
sg63
(lp1414
S'wsgi_multiprocess'
p1415
asbag56
(g77
g58
NtRp1416
(dp1417
g61
(dp1418
g88
g89
ssg70
g1407
sg63
(lp1419
S':'
asbag56
(g77
g58
NtRp1420
(dp1421
g61
(dp1422
sg70
g1407
sg63
(lp1423
g56
(g57
g58
NtRp1424
(dp1425
g61
(dp1426
g69
I4
ssg70
g1420
sg63
(lp1427
g99
asbasbasbag56
(g72
g58
NtRp1428
(dp1429
g61
(dp1430
sg70
g636
sg63
(lp1431
g56
(g77
g58
NtRp1432
(dp1433
g61
(dp1434
g81
g82
ssg70
g1428
sg63
(lp1435
S'wsgi_multithread'
p1436
asbag56
(g77
g58
NtRp1437
(dp1438
g61
(dp1439
g88
g89
ssg70
g1428
sg63
(lp1440
S':'
asbag56
(g77
g58
NtRp1441
(dp1442
g61
(dp1443
sg70
g1428
sg63
(lp1444
g56
(g57
g58
NtRp1445
(dp1446
g61
(dp1447
g69
I4
ssg70
g1441
sg63
(lp1448
S'True'
p1449
asbasbasbag56
(g72
g58
NtRp1450
(dp1451
g61
(dp1452
sg70
g636
sg63
(lp1453
g56
(g77
g58
NtRp1454
(dp1455
g61
(dp1456
g81
g82
ssg70
g1450
sg63
(lp1457
S'wsgi_run_once'
p1458
asbag56
(g77
g58
NtRp1459
(dp1460
g61
(dp1461
g88
g89
ssg70
g1450
sg63
(lp1462
S':'
asbag56
(g77
g58
NtRp1463
(dp1464
g61
(dp1465
sg70
g1450
sg63
(lp1466
g56
(g57
g58
NtRp1467
(dp1468
g61
(dp1469
g69
I4
ssg70
g1463
sg63
(lp1470
g99
asbasbasbag56
(g72
g58
NtRp1471
(dp1472
g61
(dp1473
sg70
g636
sg63
(lp1474
g56
(g77
g58
NtRp1475
(dp1476
g61
(dp1477
g81
g82
ssg70
g1471
sg63
(lp1478
S'wsgi_url_scheme'
p1479
asbag56
(g77
g58
NtRp1480
(dp1481
g61
(dp1482
g88
g89
ssg70
g1471
sg63
(lp1483
S':'
asbag56
(g77
g58
NtRp1484
(dp1485
g61
(dp1486
sg70
g1471
sg63
(lp1487
g56
(g57
g58
NtRp1488
(dp1489
g61
(dp1490
g69
I4
ssg70
g1484
sg63
(lp1491
S'http'
p1492
asbasbasbag56
(g72
g58
NtRp1493
(dp1494
g61
(dp1495
sg70
g636
sg63
(lp1496
g56
(g77
g58
NtRp1497
(dp1498
g61
(dp1499
g81
g82
ssg70
g1493
sg63
(lp1500
S'wsgi_version'
p1501
asbag56
(g77
g58
NtRp1502
(dp1503
g61
(dp1504
g88
g89
ssg70
g1493
sg63
(lp1505
S':'
asbag56
(g77
g58
NtRp1506
(dp1507
g61
(dp1508
sg70
g1493
sg63
(lp1509
g56
(g57
g58
NtRp1510
(dp1511
g61
(dp1512
g69
I4
ssg70
g1506
sg63
(lp1513
g56
(g65
g58
NtRp1514
(dp1515
g61
(dp1516
g69
I3
ssg70
Nsg63
(lp1517
g56
(g72
g58
NtRp1518
(dp1519
g61
(dp1520
sg70
g1514
sg63
(lp1521
g56
(g77
g58
NtRp1522
(dp1523
g61
(dp1524
sg70
g1518
sg63
(lp1525
g56
(g57
g58
NtRp1526
(dp1527
g61
(dp1528
g69
I3
ssg70
g1522
sg63
(lp1529
S'1'
asbasbasbag56
(g72
g58
NtRp1530
(dp1531
g61
(dp1532
sg70
g1514
sg63
(lp1533
g56
(g77
g58
NtRp1534
(dp1535
g61
(dp1536
sg70
g1530
sg63
(lp1537
g56
(g57
g58
NtRp1538
(dp1539
g61
(dp1540
g69
I3
ssg70
g1534
sg63
(lp1541
S'0'
asbasbasbasbasbasbasbasbasbasbasbag56
(g72
g58
NtRp1542
(dp1543
g61
(dp1544
sg70
g66
sg63
(lp1545
g56
(g77
g58
NtRp1546
(dp1547
g61
(dp1548
g81
g82
ssg70
g1542
sg63
(lp1549
S'extension'
p1550
asbag56
(g77
g58
NtRp1551
(dp1552
g61
(dp1553
g88
g89
ssg70
g1542
sg63
(lp1554
S':'
asbag56
(g77
g58
NtRp1555
(dp1556
g61
(dp1557
sg70
g1542
sg63
(lp1558
g56
(g57
g58
NtRp1559
(dp1560
g61
(dp1561
g69
I5
ssg70
g1555
sg63
(lp1562
S'html'
p1563
asbasbasbag56
(g72
g58
NtRp1564
(dp1565
g61
(dp1566
sg70
g66
sg63
(lp1567
g56
(g77
g58
NtRp1568
(dp1569
g61
(dp1570
g81
g82
ssg70
g1564
sg63
(lp1571
S'folder'
p1572
asbag56
(g77
g58
NtRp1573
(dp1574
g61
(dp1575
g88
g89
ssg70
g1564
sg63
(lp1576
S':'
asbag56
(g77
g58
NtRp1577
(dp1578
g61
(dp1579
sg70
g1564
sg63
(lp1580
g56
(g57
g58
NtRp1581
(dp1582
g61
(dp1583
g69
I5
ssg70
g1577
sg63
(lp1584
S'/Users/excon/Sites/dreamscape/applications/welcome/'
p1585
asbasbasbag56
(g72
g58
NtRp1586
(dp1587
g61
(dp1588
sg70
g66
sg63
(lp1589
g56
(g77
g58
NtRp1590
(dp1591
g61
(dp1592
g81
g82
ssg70
g1586
sg63
(lp1593
S'function'
p1594
asbag56
(g77
g58
NtRp1595
(dp1596
g61
(dp1597
g88
g89
ssg70
g1586
sg63
(lp1598
S':'
asbag56
(g77
g58
NtRp1599
(dp1600
g61
(dp1601
sg70
g1586
sg63
(lp1602
g56
(g57
g58
NtRp1603
(dp1604
g61
(dp1605
g69
I5
ssg70
g1599
sg63
(lp1606
S'index'
p1607
asbasbasbag56
(g72
g58
NtRp1608
(dp1609
g61
(dp1610
sg70
g66
sg63
(lp1611
g56
(g77
g58
NtRp1612
(dp1613
g61
(dp1614
g81
g82
ssg70
g1608
sg63
(lp1615
S'get_vars'
p1616
asbag56
(g77
g58
NtRp1617
(dp1618
g61
(dp1619
g88
g89
ssg70
g1608
sg63
(lp1620
S':'
asbag56
(g77
g58
NtRp1621
(dp1622
g61
(dp1623
sg70
g1608
sg63
(lp1624
g56
(g57
g58
NtRp1625
(dp1626
g61
(dp1627
g69
I5
ssg70
g1621
sg63
(lp1628
g56
(g65
g58
NtRp1629
(dp1630
g61
(dp1631
g69
I4
ssg70
Nsg63
(lp1632
sbasbasbasbag56
(g72
g58
NtRp1633
(dp1634
g61
(dp1635
sg70
g66
sg63
(lp1636
g56
(g77
g58
NtRp1637
(dp1638
g61
(dp1639
g81
g82
ssg70
g1633
sg63
(lp1640
S'global_settings'
p1641
asbag56
(g77
g58
NtRp1642
(dp1643
g61
(dp1644
g88
g89
ssg70
g1633
sg63
(lp1645
S':'
asbag56
(g77
g58
NtRp1646
(dp1647
g61
(dp1648
sg70
g1633
sg63
(lp1649
g56
(g57
g58
NtRp1650
(dp1651
g61
(dp1652
g69
I5
ssg70
g1646
sg63
(lp1653
g56
(g65
g58
NtRp1654
(dp1655
g61
(dp1656
g69
I4
ssg70
Nsg63
(lp1657
g56
(g72
g58
NtRp1658
(dp1659
g61
(dp1660
sg70
g1654
sg63
(lp1661
g56
(g77
g58
NtRp1662
(dp1663
g61
(dp1664
g81
g82
ssg70
g1658
sg63
(lp1665
g648
asbag56
(g77
g58
NtRp1666
(dp1667
g61
(dp1668
g88
g89
ssg70
g1658
sg63
(lp1669
S':'
asbag56
(g77
g58
NtRp1670
(dp1671
g61
(dp1672
sg70
g1658
sg63
(lp1673
g56
(g57
g58
NtRp1674
(dp1675
g61
(dp1676
g69
I4
ssg70
g1670
sg63
(lp1677
S"set(['/Users/excon/Sites/dreamscape/applications/welcome/', '/Users/excon/Sites/dreamscape/applications/admin/'])"
p1678
asbasbasbag56
(g72
g58
NtRp1679
(dp1680
g61
(dp1681
sg70
g1654
sg63
(lp1682
g56
(g77
g58
NtRp1683
(dp1684
g61
(dp1685
g81
g82
ssg70
g1679
sg63
(lp1686
g670
asbag56
(g77
g58
NtRp1687
(dp1688
g61
(dp1689
g88
g89
ssg70
g1679
sg63
(lp1690
S':'
asbag56
(g77
g58
NtRp1691
(dp1692
g61
(dp1693
sg70
g1679
sg63
(lp1694
g56
(g57
g58
NtRp1695
(dp1696
g61
(dp1697
g69
I4
ssg70
g1691
sg63
(lp1698
g683
asbasbasbag56
(g72
g58
NtRp1699
(dp1700
g61
(dp1701
sg70
g1654
sg63
(lp1702
g56
(g77
g58
NtRp1703
(dp1704
g61
(dp1705
g81
g82
ssg70
g1699
sg63
(lp1706
g692
asbag56
(g77
g58
NtRp1707
(dp1708
g61
(dp1709
g88
g89
ssg70
g1699
sg63
(lp1710
S':'
asbag56
(g77
g58
NtRp1711
(dp1712
g61
(dp1713
sg70
g1699
sg63
(lp1714
g56
(g57
g58
NtRp1715
(dp1716
g61
(dp1717
g69
I4
ssg70
g1711
sg63
(lp1718
g56
(g65
g58
NtRp1719
(dp1720
g61
(dp1721
g69
I3
ssg70
Nsg63
(lp1722
sbasbasbasbag56
(g72
g58
NtRp1723
(dp1724
g61
(dp1725
sg70
g1654
sg63
(lp1726
g56
(g77
g58
NtRp1727
(dp1728
g61
(dp1729
g81
g82
ssg70
g1723
sg63
(lp1730
g717
asbag56
(g77
g58
NtRp1731
(dp1732
g61
(dp1733
g88
g89
ssg70
g1723
sg63
(lp1734
S':'
asbag56
(g77
g58
NtRp1735
(dp1736
g61
(dp1737
sg70
g1723
sg63
(lp1738
g56
(g57
g58
NtRp1739
(dp1740
g61
(dp1741
g69
I4
ssg70
g1735
sg63
(lp1742
S"<Values at 0x101c08e18: {'verbose': False, 'ip': '127.0.0.1', 'shutdown_timeout': 5, 'taskbar': False, 'nocron': False, 'pid_filename': 'httpserver.pid', 'maxthreads': None, 'softcron': False, 'server_name': 'Excons-MacBook.local', 'bpython': False, 'nogui': False, 'port': 8000, 'extcron': False, 'debuglevel': 30, 'test': None, 'folder': '/Users/excon/Sites/dreamscape', 'config': '', 'import_models': False, 'winservice': '', 'shell': None, 'run': '', 'log_filename': 'httpserver.log', 'args': [''], 'ssl_ca_certificate': None, 'scheduler': None, 'profiler_filename': None, 'ssl_private_key': '', 'password': '<ask>', 'request_queue_size': 5, 'ssl_certificate': '', 'cronjob': False, 'plain': False, 'quiet': False, 'interfaces': None, 'minthreads': None, 'timeout': 10, 'numthreads': None, 'nobanner': False}>"
p1743
asbasbasbag56
(g72
g58
NtRp1744
(dp1745
g61
(dp1746
sg70
g1654
sg63
(lp1747
g56
(g77
g58
NtRp1748
(dp1749
g61
(dp1750
g81
g82
ssg70
g1744
sg63
(lp1751
g739
asbag56
(g77
g58
NtRp1752
(dp1753
g61
(dp1754
g88
g89
ssg70
g1744
sg63
(lp1755
S':'
asbag56
(g77
g58
NtRp1756
(dp1757
g61
(dp1758
sg70
g1744
sg63
(lp1759
g56
(g57
g58
NtRp1760
(dp1761
g61
(dp1762
g69
I4
ssg70
g1756
sg63
(lp1763
S'set([])'
p1764
asbasbasbag56
(g72
g58
NtRp1765
(dp1766
g61
(dp1767
sg70
g1654
sg63
(lp1768
g56
(g77
g58
NtRp1769
(dp1770
g61
(dp1771
g81
g82
ssg70
g1765
sg63
(lp1772
g761
asbag56
(g77
g58
NtRp1773
(dp1774
g61
(dp1775
g88
g89
ssg70
g1765
sg63
(lp1776
S':'
asbag56
(g77
g58
NtRp1777
(dp1778
g61
(dp1779
sg70
g1765
sg63
(lp1780
g56
(g57
g58
NtRp1781
(dp1782
g61
(dp1783
g69
I4
ssg70
g1777
sg63
(lp1784
g99
asbasbasbag56
(g72
g58
NtRp1785
(dp1786
g61
(dp1787
sg70
g1654
sg63
(lp1788
g56
(g77
g58
NtRp1789
(dp1790
g61
(dp1791
g81
g82
ssg70
g1785
sg63
(lp1792
g782
asbag56
(g77
g58
NtRp1793
(dp1794
g61
(dp1795
g88
g89
ssg70
g1785
sg63
(lp1796
S':'
asbag56
(g77
g58
NtRp1797
(dp1798
g61
(dp1799
sg70
g1785
sg63
(lp1800
g56
(g57
g58
NtRp1801
(dp1802
g61
(dp1803
g69
I4
ssg70
g1797
sg63
(lp1804
g795
asbasbasbag56
(g72
g58
NtRp1805
(dp1806
g61
(dp1807
sg70
g1654
sg63
(lp1808
g56
(g77
g58
NtRp1809
(dp1810
g61
(dp1811
g81
g82
ssg70
g1805
sg63
(lp1812
g980
asbag56
(g77
g58
NtRp1813
(dp1814
g61
(dp1815
g88
g89
ssg70
g1805
sg63
(lp1816
S':'
asbag56
(g77
g58
NtRp1817
(dp1818
g61
(dp1819
sg70
g1805
sg63
(lp1820
g56
(g57
g58
NtRp1821
(dp1822
g61
(dp1823
g69
I4
ssg70
g1817
sg63
(lp1824
g99
asbasbasbag56
(g72
g58
NtRp1825
(dp1826
g61
(dp1827
sg70
g1654
sg63
(lp1828
g56
(g77
g58
NtRp1829
(dp1830
g61
(dp1831
g81
g82
ssg70
g1825
sg63
(lp1832
g1218
asbag56
(g77
g58
NtRp1833
(dp1834
g61
(dp1835
g88
g89
ssg70
g1825
sg63
(lp1836
S':'
asbag56
(g77
g58
NtRp1837
(dp1838
g61
(dp1839
sg70
g1825
sg63
(lp1840
g56
(g57
g58
NtRp1841
(dp1842
g61
(dp1843
g69
I4
ssg70
g1837
sg63
(lp1844
g1231
asbasbasbag56
(g72
g58
NtRp1845
(dp1846
g61
(dp1847
sg70
g1654
sg63
(lp1848
g56
(g77
g58
NtRp1849
(dp1850
g61
(dp1851
g81
g82
ssg70
g1845
sg63
(lp1852
g1261
asbag56
(g77
g58
NtRp1853
(dp1854
g61
(dp1855
g88
g89
ssg70
g1845
sg63
(lp1856
S':'
asbag56
(g77
g58
NtRp1857
(dp1858
g61
(dp1859
sg70
g1845
sg63
(lp1860
g56
(g57
g58
NtRp1861
(dp1862
g61
(dp1863
g69
I4
ssg70
g1857
sg63
(lp1864
g56
(g65
g58
NtRp1865
(dp1866
g61
(dp1867
g69
I3
ssg70
Nsg63
(lp1868
g56
(g72
g58
NtRp1869
(dp1870
g61
(dp1871
sg70
g1865
sg63
(lp1872
g56
(g77
g58
NtRp1873
(dp1874
g61
(dp1875
sg70
g1869
sg63
(lp1876
g56
(g57
g58
NtRp1877
(dp1878
g61
(dp1879
g69
I3
ssg70
g1873
sg63
(lp1880
S'1'
asbasbasbag56
(g72
g58
NtRp1881
(dp1882
g61
(dp1883
sg70
g1865
sg63
(lp1884
g56
(g77
g58
NtRp1885
(dp1886
g61
(dp1887
sg70
g1881
sg63
(lp1888
g56
(g57
g58
NtRp1889
(dp1890
g61
(dp1891
g69
I3
ssg70
g1885
sg63
(lp1892
S'99'
p1893
asbasbasbag56
(g72
g58
NtRp1894
(dp1895
g61
(dp1896
sg70
g1865
sg63
(lp1897
g56
(g77
g58
NtRp1898
(dp1899
g61
(dp1900
sg70
g1894
sg63
(lp1901
g56
(g57
g58
NtRp1902
(dp1903
g61
(dp1904
g69
I3
ssg70
g1898
sg63
(lp1905
S'2'
asbasbasbag56
(g72
g58
NtRp1906
(dp1907
g61
(dp1908
sg70
g1865
sg63
(lp1909
g56
(g77
g58
NtRp1910
(dp1911
g61
(dp1912
sg70
g1906
sg63
(lp1913
g56
(g57
g58
NtRp1914
(dp1915
g61
(dp1916
g69
I3
ssg70
g1910
sg63
(lp1917
S'datetime.datetime(2011, 9, 26, 6, 55, 33)'
p1918
asbasbasbag56
(g72
g58
NtRp1919
(dp1920
g61
(dp1921
sg70
g1865
sg63
(lp1922
g56
(g77
g58
NtRp1923
(dp1924
g61
(dp1925
sg70
g1919
sg63
(lp1926
g56
(g57
g58
NtRp1927
(dp1928
g61
(dp1929
g69
I3
ssg70
g1923
sg63
(lp1930
g1340
asbasbasbasbasbasbasbasbasbasbasbag56
(g72
g58
NtRp1931
(dp1932
g61
(dp1933
sg70
g66
sg63
(lp1934
g56
(g77
g58
NtRp1935
(dp1936
g61
(dp1937
g81
g82
ssg70
g1931
sg63
(lp1938
S'is_https'
p1939
asbag56
(g77
g58
NtRp1940
(dp1941
g61
(dp1942
g88
g89
ssg70
g1931
sg63
(lp1943
S':'
asbag56
(g77
g58
NtRp1944
(dp1945
g61
(dp1946
sg70
g1931
sg63
(lp1947
g56
(g57
g58
NtRp1948
(dp1949
g61
(dp1950
g69
I5
ssg70
g1944
sg63
(lp1951
g99
asbasbasbag56
(g72
g58
NtRp1952
(dp1953
g61
(dp1954
sg70
g66
sg63
(lp1955
g56
(g77
g58
NtRp1956
(dp1957
g61
(dp1958
g81
g82
ssg70
g1952
sg63
(lp1959
S'is_local'
p1960
asbag56
(g77
g58
NtRp1961
(dp1962
g61
(dp1963
g88
g89
ssg70
g1952
sg63
(lp1964
S':'
asbag56
(g77
g58
NtRp1965
(dp1966
g61
(dp1967
sg70
g1952
sg63
(lp1968
g56
(g57
g58
NtRp1969
(dp1970
g61
(dp1971
g69
I5
ssg70
g1965
sg63
(lp1972
g1449
asbasbasbag56
(g72
g58
NtRp1973
(dp1974
g61
(dp1975
sg70
g66
sg63
(lp1976
g56
(g77
g58
NtRp1977
(dp1978
g61
(dp1979
g81
g82
ssg70
g1973
sg63
(lp1980
S'is_restful'
p1981
asbag56
(g77
g58
NtRp1982
(dp1983
g61
(dp1984
g88
g89
ssg70
g1973
sg63
(lp1985
S':'
asbag56
(g77
g58
NtRp1986
(dp1987
g61
(dp1988
sg70
g1973
sg63
(lp1989
g56
(g57
g58
NtRp1990
(dp1991
g61
(dp1992
g69
I5
ssg70
g1986
sg63
(lp1993
g99
asbasbasbag56
(g72
g58
NtRp1994
(dp1995
g61
(dp1996
sg70
g66
sg63
(lp1997
g56
(g77
g58
NtRp1998
(dp1999
g61
(dp2000
g81
g82
ssg70
g1994
sg63
(lp2001
S'now'
p2002
asbag56
(g77
g58
NtRp2003
(dp2004
g61
(dp2005
g88
g89
ssg70
g1994
sg63
(lp2006
S':'
asbag56
(g77
g58
NtRp2007
(dp2008
g61
(dp2009
sg70
g1994
sg63
(lp2010
g56
(g57
g58
NtRp2011
(dp2012
g61
(dp2013
g69
I5
ssg70
g2007
sg63
(lp2014
S'datetime.datetime(2011, 9, 28, 16, 29, 31, 181791)'
p2015
asbasbasbag56
(g72
g58
NtRp2016
(dp2017
g61
(dp2018
sg70
g66
sg63
(lp2019
g56
(g77
g58
NtRp2020
(dp2021
g61
(dp2022
g81
g82
ssg70
g2016
sg63
(lp2023
S'post_vars'
p2024
asbag56
(g77
g58
NtRp2025
(dp2026
g61
(dp2027
g88
g89
ssg70
g2016
sg63
(lp2028
S':'
asbag56
(g77
g58
NtRp2029
(dp2030
g61
(dp2031
sg70
g2016
sg63
(lp2032
g56
(g57
g58
NtRp2033
(dp2034
g61
(dp2035
g69
I5
ssg70
g2029
sg63
(lp2036
g56
(g65
g58
NtRp2037
(dp2038
g61
(dp2039
g69
I4
ssg70
Nsg63
(lp2040
sbasbasbasbag56
(g72
g58
NtRp2041
(dp2042
g61
(dp2043
sg70
g66
sg63
(lp2044
g56
(g77
g58
NtRp2045
(dp2046
g61
(dp2047
g81
g82
ssg70
g2041
sg63
(lp2048
S'url'
p2049
asbag56
(g77
g58
NtRp2050
(dp2051
g61
(dp2052
g88
g89
ssg70
g2041
sg63
(lp2053
S':'
asbag56
(g77
g58
NtRp2054
(dp2055
g61
(dp2056
sg70
g2041
sg63
(lp2057
g56
(g57
g58
NtRp2058
(dp2059
g61
(dp2060
g69
I5
ssg70
g2054
sg63
(lp2061
S'/welcome/default/index'
p2062
asbasbasbag56
(g72
g58
NtRp2063
(dp2064
g61
(dp2065
sg70
g66
sg63
(lp2066
g56
(g77
g58
NtRp2067
(dp2068
g61
(dp2069
g81
g82
ssg70
g2063
sg63
(lp2070
S'utcnow'
p2071
asbag56
(g77
g58
NtRp2072
(dp2073
g61
(dp2074
g88
g89
ssg70
g2063
sg63
(lp2075
S':'
asbag56
(g77
g58
NtRp2076
(dp2077
g61
(dp2078
sg70
g2063
sg63
(lp2079
g56
(g57
g58
NtRp2080
(dp2081
g61
(dp2082
g69
I5
ssg70
g2076
sg63
(lp2083
S'datetime.datetime(2011, 9, 28, 23, 29, 31, 181804)'
p2084
asbasbasbag56
(g72
g58
NtRp2085
(dp2086
g61
(dp2087
sg70
g66
sg63
(lp2088
g56
(g77
g58
NtRp2089
(dp2090
g61
(dp2091
g81
g82
ssg70
g2085
sg63
(lp2092
S'uuid'
p2093
asbag56
(g77
g58
NtRp2094
(dp2095
g61
(dp2096
g88
g89
ssg70
g2085
sg63
(lp2097
S':'
asbag56
(g77
g58
NtRp2098
(dp2099
g61
(dp2100
sg70
g2085
sg63
(lp2101
g56
(g57
g58
NtRp2102
(dp2103
g61
(dp2104
g69
I5
ssg70
g2098
sg63
(lp2105
S'welcome/127.0.0.1.2011-09-28.16-29-31.4181a63e-958f-4bd3-a42c-5cdb44217916'
p2106
asbasbasbag56
(g72
g58
NtRp2107
(dp2108
g61
(dp2109
sg70
g66
sg63
(lp2110
g56
(g77
g58
NtRp2111
(dp2112
g61
(dp2113
g81
g82
ssg70
g2107
sg63
(lp2114
S'vars'
p2115
asbag56
(g77
g58
NtRp2116
(dp2117
g61
(dp2118
g88
g89
ssg70
g2107
sg63
(lp2119
S':'
asbag56
(g77
g58
NtRp2120
(dp2121
g61
(dp2122
sg70
g2107
sg63
(lp2123
g56
(g57
g58
NtRp2124
(dp2125
g61
(dp2126
g69
I5
ssg70
g2120
sg63
(lp2127
g56
(g65
g58
NtRp2128
(dp2129
g61
(dp2130
g69
I4
ssg70
Nsg63
(lp2131
sbasbasbasbag56
(g72
g58
NtRp2132
(dp2133
g61
(dp2134
sg70
g66
sg63
(lp2135
g56
(g77
g58
NtRp2136
(dp2137
g61
(dp2138
g81
g82
ssg70
g2132
sg63
(lp2139
S'wsgi'
p2140
asbag56
(g77
g58
NtRp2141
(dp2142
g61
(dp2143
g88
g89
ssg70
g2132
sg63
(lp2144
S':'
asbag56
(g77
g58
NtRp2145
(dp2146
g61
(dp2147
sg70
g2132
sg63
(lp2148
g56
(g57
g58
NtRp2149
(dp2150
g61
(dp2151
g69
I5
ssg70
g2145
sg63
(lp2152
g56
(g65
g58
NtRp2153
(dp2154
g61
(dp2155
g69
I4
ssg70
Nsg63
(lp2156
g56
(g72
g58
NtRp2157
(dp2158
g61
(dp2159
sg70
g2153
sg63
(lp2160
g56
(g77
g58
NtRp2161
(dp2162
g61
(dp2163
g81
g82
ssg70
g2157
sg63
(lp2164
S'environ'
p2165
asbag56
(g77
g58
NtRp2166
(dp2167
g61
(dp2168
g88
g89
ssg70
g2157
sg63
(lp2169
S':'
asbag56
(g77
g58
NtRp2170
(dp2171
g61
(dp2172
sg70
g2157
sg63
(lp2173
g56
(g57
g58
NtRp2174
(dp2175
g61
(dp2176
g69
I4
ssg70
g2170
sg63
(lp2177
g56
(g65
g58
NtRp2178
(dp2179
g61
(dp2180
g69
I3
ssg70
Nsg63
(lp2181
g56
(g72
g58
NtRp2182
(dp2183
g61
(dp2184
sg70
g2178
sg63
(lp2185
g56
(g77
g58
NtRp2186
(dp2187
g61
(dp2188
g81
g82
ssg70
g2182
sg63
(lp2189
S'HTTP_ACCEPT'
p2190
asbag56
(g77
g58
NtRp2191
(dp2192
g61
(dp2193
g88
g89
ssg70
g2182
sg63
(lp2194
S':'
asbag56
(g77
g58
NtRp2195
(dp2196
g61
(dp2197
sg70
g2182
sg63
(lp2198
g56
(g57
g58
NtRp2199
(dp2200
g61
(dp2201
g69
I3
ssg70
g2195
sg63
(lp2202
g817
asbasbasbag56
(g72
g58
NtRp2203
(dp2204
g61
(dp2205
sg70
g2178
sg63
(lp2206
g56
(g77
g58
NtRp2207
(dp2208
g61
(dp2209
g81
g82
ssg70
g2203
sg63
(lp2210
S'HTTP_ACCEPT_CHARSET'
p2211
asbag56
(g77
g58
NtRp2212
(dp2213
g61
(dp2214
g88
g89
ssg70
g2203
sg63
(lp2215
S':'
asbag56
(g77
g58
NtRp2216
(dp2217
g61
(dp2218
sg70
g2203
sg63
(lp2219
g56
(g57
g58
NtRp2220
(dp2221
g61
(dp2222
g69
I3
ssg70
g2216
sg63
(lp2223
g839
asbasbasbag56
(g72
g58
NtRp2224
(dp2225
g61
(dp2226
sg70
g2178
sg63
(lp2227
g56
(g77
g58
NtRp2228
(dp2229
g61
(dp2230
g81
g82
ssg70
g2224
sg63
(lp2231
S'HTTP_ACCEPT_ENCODING'
p2232
asbag56
(g77
g58
NtRp2233
(dp2234
g61
(dp2235
g88
g89
ssg70
g2224
sg63
(lp2236
S':'
asbag56
(g77
g58
NtRp2237
(dp2238
g61
(dp2239
sg70
g2224
sg63
(lp2240
g56
(g57
g58
NtRp2241
(dp2242
g61
(dp2243
g69
I3
ssg70
g2237
sg63
(lp2244
g861
asbasbasbag56
(g72
g58
NtRp2245
(dp2246
g61
(dp2247
sg70
g2178
sg63
(lp2248
g56
(g77
g58
NtRp2249
(dp2250
g61
(dp2251
g81
g82
ssg70
g2245
sg63
(lp2252
S'HTTP_ACCEPT_LANGUAGE'
p2253
asbag56
(g77
g58
NtRp2254
(dp2255
g61
(dp2256
g88
g89
ssg70
g2245
sg63
(lp2257
S':'
asbag56
(g77
g58
NtRp2258
(dp2259
g61
(dp2260
sg70
g2245
sg63
(lp2261
g56
(g57
g58
NtRp2262
(dp2263
g61
(dp2264
g69
I3
ssg70
g2258
sg63
(lp2265
g883
asbasbasbag56
(g72
g58
NtRp2266
(dp2267
g61
(dp2268
sg70
g2178
sg63
(lp2269
g56
(g77
g58
NtRp2270
(dp2271
g61
(dp2272
g81
g82
ssg70
g2266
sg63
(lp2273
S'HTTP_CONNECTION'
p2274
asbag56
(g77
g58
NtRp2275
(dp2276
g61
(dp2277
g88
g89
ssg70
g2266
sg63
(lp2278
S':'
asbag56
(g77
g58
NtRp2279
(dp2280
g61
(dp2281
sg70
g2266
sg63
(lp2282
g56
(g57
g58
NtRp2283
(dp2284
g61
(dp2285
g69
I3
ssg70
g2279
sg63
(lp2286
g905
asbasbasbag56
(g72
g58
NtRp2287
(dp2288
g61
(dp2289
sg70
g2178
sg63
(lp2290
g56
(g77
g58
NtRp2291
(dp2292
g61
(dp2293
g81
g82
ssg70
g2287
sg63
(lp2294
S'HTTP_COOKIE'
p2295
asbag56
(g77
g58
NtRp2296
(dp2297
g61
(dp2298
g88
g89
ssg70
g2287
sg63
(lp2299
S':'
asbag56
(g77
g58
NtRp2300
(dp2301
g61
(dp2302
sg70
g2287
sg63
(lp2303
g56
(g57
g58
NtRp2304
(dp2305
g61
(dp2306
g69
I3
ssg70
g2300
sg63
(lp2307
g927
asbasbasbag56
(g72
g58
NtRp2308
(dp2309
g61
(dp2310
sg70
g2178
sg63
(lp2311
g56
(g77
g58
NtRp2312
(dp2313
g61
(dp2314
g81
g82
ssg70
g2308
sg63
(lp2315
S'HTTP_HOST'
p2316
asbag56
(g77
g58
NtRp2317
(dp2318
g61
(dp2319
g88
g89
ssg70
g2308
sg63
(lp2320
S':'
asbag56
(g77
g58
NtRp2321
(dp2322
g61
(dp2323
sg70
g2308
sg63
(lp2324
g56
(g57
g58
NtRp2325
(dp2326
g61
(dp2327
g69
I3
ssg70
g2321
sg63
(lp2328
g949
asbasbasbag56
(g72
g58
NtRp2329
(dp2330
g61
(dp2331
sg70
g2178
sg63
(lp2332
g56
(g77
g58
NtRp2333
(dp2334
g61
(dp2335
g81
g82
ssg70
g2329
sg63
(lp2336
S'HTTP_USER_AGENT'
p2337
asbag56
(g77
g58
NtRp2338
(dp2339
g61
(dp2340
g88
g89
ssg70
g2329
sg63
(lp2341
S':'
asbag56
(g77
g58
NtRp2342
(dp2343
g61
(dp2344
sg70
g2329
sg63
(lp2345
g56
(g57
g58
NtRp2346
(dp2347
g61
(dp2348
g69
I3
ssg70
g2342
sg63
(lp2349
g971
asbasbasbag56
(g72
g58
NtRp2350
(dp2351
g61
(dp2352
sg70
g2178
sg63
(lp2353
g56
(g77
g58
NtRp2354
(dp2355
g61
(dp2356
g81
g82
ssg70
g2350
sg63
(lp2357
S'PATH_INFO'
p2358
asbag56
(g77
g58
NtRp2359
(dp2360
g61
(dp2361
g88
g89
ssg70
g2350
sg63
(lp2362
S':'
asbag56
(g77
g58
NtRp2363
(dp2364
g61
(dp2365
sg70
g2350
sg63
(lp2366
g56
(g57
g58
NtRp2367
(dp2368
g61
(dp2369
g69
I3
ssg70
g2363
sg63
(lp2370
g1014
asbasbasbag56
(g72
g58
NtRp2371
(dp2372
g61
(dp2373
sg70
g2178
sg63
(lp2374
g56
(g77
g58
NtRp2375
(dp2376
g61
(dp2377
g81
g82
ssg70
g2371
sg63
(lp2378
S'QUERY_STRING'
p2379
asbag56
(g77
g58
NtRp2380
(dp2381
g61
(dp2382
g88
g89
ssg70
g2371
sg63
(lp2383
S':'
asbag56
(g77
g58
NtRp2384
(dp2385
g61
(dp2386
sg70
g2371
sg63
(lp2387
g56
(g57
g58
NtRp2388
(dp2389
g61
(dp2390
g69
I3
ssg70
g2384
sg63
(lp2391
S''
asbasbasbag56
(g72
g58
NtRp2392
(dp2393
g61
(dp2394
sg70
g2178
sg63
(lp2395
g56
(g77
g58
NtRp2396
(dp2397
g61
(dp2398
g81
g82
ssg70
g2392
sg63
(lp2399
S'REMOTE_ADDR'
p2400
asbag56
(g77
g58
NtRp2401
(dp2402
g61
(dp2403
g88
g89
ssg70
g2392
sg63
(lp2404
S':'
asbag56
(g77
g58
NtRp2405
(dp2406
g61
(dp2407
sg70
g2392
sg63
(lp2408
g56
(g57
g58
NtRp2409
(dp2410
g61
(dp2411
g69
I3
ssg70
g2405
sg63
(lp2412
g189
asbasbasbag56
(g72
g58
NtRp2413
(dp2414
g61
(dp2415
sg70
g2178
sg63
(lp2416
g56
(g77
g58
NtRp2417
(dp2418
g61
(dp2419
g81
g82
ssg70
g2413
sg63
(lp2420
S'REMOTE_PORT'
p2421
asbag56
(g77
g58
NtRp2422
(dp2423
g61
(dp2424
g88
g89
ssg70
g2413
sg63
(lp2425
S':'
asbag56
(g77
g58
NtRp2426
(dp2427
g61
(dp2428
sg70
g2413
sg63
(lp2429
g56
(g57
g58
NtRp2430
(dp2431
g61
(dp2432
g69
I3
ssg70
g2426
sg63
(lp2433
g1078
asbasbasbag56
(g72
g58
NtRp2434
(dp2435
g61
(dp2436
sg70
g2178
sg63
(lp2437
g56
(g77
g58
NtRp2438
(dp2439
g61
(dp2440
g81
g82
ssg70
g2434
sg63
(lp2441
S'REQUEST_METHOD'
p2442
asbag56
(g77
g58
NtRp2443
(dp2444
g61
(dp2445
g88
g89
ssg70
g2434
sg63
(lp2446
S':'
asbag56
(g77
g58
NtRp2447
(dp2448
g61
(dp2449
sg70
g2434
sg63
(lp2450
g56
(g57
g58
NtRp2451
(dp2452
g61
(dp2453
g69
I3
ssg70
g2447
sg63
(lp2454
g1100
asbasbasbag56
(g72
g58
NtRp2455
(dp2456
g61
(dp2457
sg70
g2178
sg63
(lp2458
g56
(g77
g58
NtRp2459
(dp2460
g61
(dp2461
g81
g82
ssg70
g2455
sg63
(lp2462
S'SCRIPT_NAME'
p2463
asbag56
(g77
g58
NtRp2464
(dp2465
g61
(dp2466
g88
g89
ssg70
g2455
sg63
(lp2467
S':'
asbag56
(g77
g58
NtRp2468
(dp2469
g61
(dp2470
sg70
g2455
sg63
(lp2471
g56
(g57
g58
NtRp2472
(dp2473
g61
(dp2474
g69
I3
ssg70
g2468
sg63
(lp2475
S''
asbasbasbag56
(g72
g58
NtRp2476
(dp2477
g61
(dp2478
sg70
g2178
sg63
(lp2479
g56
(g77
g58
NtRp2480
(dp2481
g61
(dp2482
g81
g82
ssg70
g2476
sg63
(lp2483
S'SERVER_NAME'
p2484
asbag56
(g77
g58
NtRp2485
(dp2486
g61
(dp2487
g88
g89
ssg70
g2476
sg63
(lp2488
S':'
asbag56
(g77
g58
NtRp2489
(dp2490
g61
(dp2491
sg70
g2476
sg63
(lp2492
g56
(g57
g58
NtRp2493
(dp2494
g61
(dp2495
g69
I3
ssg70
g2489
sg63
(lp2496
g1143
asbasbasbag56
(g72
g58
NtRp2497
(dp2498
g61
(dp2499
sg70
g2178
sg63
(lp2500
g56
(g77
g58
NtRp2501
(dp2502
g61
(dp2503
g81
g82
ssg70
g2497
sg63
(lp2504
S'SERVER_PORT'
p2505
asbag56
(g77
g58
NtRp2506
(dp2507
g61
(dp2508
g88
g89
ssg70
g2497
sg63
(lp2509
S':'
asbag56
(g77
g58
NtRp2510
(dp2511
g61
(dp2512
sg70
g2497
sg63
(lp2513
g56
(g57
g58
NtRp2514
(dp2515
g61
(dp2516
g69
I3
ssg70
g2510
sg63
(lp2517
g1165
asbasbasbag56
(g72
g58
NtRp2518
(dp2519
g61
(dp2520
sg70
g2178
sg63
(lp2521
g56
(g77
g58
NtRp2522
(dp2523
g61
(dp2524
g81
g82
ssg70
g2518
sg63
(lp2525
S'SERVER_PROTOCOL'
p2526
asbag56
(g77
g58
NtRp2527
(dp2528
g61
(dp2529
g88
g89
ssg70
g2518
sg63
(lp2530
S':'
asbag56
(g77
g58
NtRp2531
(dp2532
g61
(dp2533
sg70
g2518
sg63
(lp2534
g56
(g57
g58
NtRp2535
(dp2536
g61
(dp2537
g69
I3
ssg70
g2531
sg63
(lp2538
g1187
asbasbasbag56
(g72
g58
NtRp2539
(dp2540
g61
(dp2541
sg70
g2178
sg63
(lp2542
g56
(g77
g58
NtRp2543
(dp2544
g61
(dp2545
g81
g82
ssg70
g2539
sg63
(lp2546
S'SERVER_SOFTWARE'
p2547
asbag56
(g77
g58
NtRp2548
(dp2549
g61
(dp2550
g88
g89
ssg70
g2539
sg63
(lp2551
S':'
asbag56
(g77
g58
NtRp2552
(dp2553
g61
(dp2554
sg70
g2539
sg63
(lp2555
g56
(g57
g58
NtRp2556
(dp2557
g61
(dp2558
g69
I3
ssg70
g2552
sg63
(lp2559
g1209
asbasbasbag56
(g72
g58
NtRp2560
(dp2561
g61
(dp2562
sg70
g2178
sg63
(lp2563
g56
(g77
g58
NtRp2564
(dp2565
g61
(dp2566
g81
g82
ssg70
g2560
sg63
(lp2567
S'wsgi.errors'
p2568
asbag56
(g77
g58
NtRp2569
(dp2570
g61
(dp2571
g88
g89
ssg70
g2560
sg63
(lp2572
S':'
asbag56
(g77
g58
NtRp2573
(dp2574
g61
(dp2575
sg70
g2560
sg63
(lp2576
g56
(g57
g58
NtRp2577
(dp2578
g61
(dp2579
g69
I3
ssg70
g2573
sg63
(lp2580
S"<open file '<stderr>', mode 'w' at 0x100416140>"
p2581
asbasbasbag56
(g72
g58
NtRp2582
(dp2583
g61
(dp2584
sg70
g2178
sg63
(lp2585
g56
(g77
g58
NtRp2586
(dp2587
g61
(dp2588
g81
g82
ssg70
g2582
sg63
(lp2589
S'wsgi.file_wrapper'
p2590
asbag56
(g77
g58
NtRp2591
(dp2592
g61
(dp2593
g88
g89
ssg70
g2582
sg63
(lp2594
S':'
asbag56
(g77
g58
NtRp2595
(dp2596
g61
(dp2597
sg70
g2582
sg63
(lp2598
g56
(g57
g58
NtRp2599
(dp2600
g61
(dp2601
g69
I3
ssg70
g2595
sg63
(lp2602
S'<class wsgiref.util.FileWrapper at 0x1014a1bf0>'
p2603
asbasbasbag56
(g72
g58
NtRp2604
(dp2605
g61
(dp2606
sg70
g2178
sg63
(lp2607
g56
(g77
g58
NtRp2608
(dp2609
g61
(dp2610
g81
g82
ssg70
g2604
sg63
(lp2611
S'wsgi.input'
p2612
asbag56
(g77
g58
NtRp2613
(dp2614
g61
(dp2615
g88
g89
ssg70
g2604
sg63
(lp2616
S':'
asbag56
(g77
g58
NtRp2617
(dp2618
g61
(dp2619
sg70
g2604
sg63
(lp2620
g56
(g57
g58
NtRp2621
(dp2622
g61
(dp2623
g69
I3
ssg70
g2617
sg63
(lp2624
S'<cStringIO.StringO object at 0x112dca6f8>'
p2625
asbasbasbag56
(g72
g58
NtRp2626
(dp2627
g61
(dp2628
sg70
g2178
sg63
(lp2629
g56
(g77
g58
NtRp2630
(dp2631
g61
(dp2632
g81
g82
ssg70
g2626
sg63
(lp2633
S'wsgi.multiprocess'
p2634
asbag56
(g77
g58
NtRp2635
(dp2636
g61
(dp2637
g88
g89
ssg70
g2626
sg63
(lp2638
S':'
asbag56
(g77
g58
NtRp2639
(dp2640
g61
(dp2641
sg70
g2626
sg63
(lp2642
g56
(g57
g58
NtRp2643
(dp2644
g61
(dp2645
g69
I3
ssg70
g2639
sg63
(lp2646
g99
asbasbasbag56
(g72
g58
NtRp2647
(dp2648
g61
(dp2649
sg70
g2178
sg63
(lp2650
g56
(g77
g58
NtRp2651
(dp2652
g61
(dp2653
g81
g82
ssg70
g2647
sg63
(lp2654
S'wsgi.multithread'
p2655
asbag56
(g77
g58
NtRp2656
(dp2657
g61
(dp2658
g88
g89
ssg70
g2647
sg63
(lp2659
S':'
asbag56
(g77
g58
NtRp2660
(dp2661
g61
(dp2662
sg70
g2647
sg63
(lp2663
g56
(g57
g58
NtRp2664
(dp2665
g61
(dp2666
g69
I3
ssg70
g2660
sg63
(lp2667
g1449
asbasbasbag56
(g72
g58
NtRp2668
(dp2669
g61
(dp2670
sg70
g2178
sg63
(lp2671
g56
(g77
g58
NtRp2672
(dp2673
g61
(dp2674
g81
g82
ssg70
g2668
sg63
(lp2675
S'wsgi.run_once'
p2676
asbag56
(g77
g58
NtRp2677
(dp2678
g61
(dp2679
g88
g89
ssg70
g2668
sg63
(lp2680
S':'
asbag56
(g77
g58
NtRp2681
(dp2682
g61
(dp2683
sg70
g2668
sg63
(lp2684
g56
(g57
g58
NtRp2685
(dp2686
g61
(dp2687
g69
I3
ssg70
g2681
sg63
(lp2688
g99
asbasbasbag56
(g72
g58
NtRp2689
(dp2690
g61
(dp2691
sg70
g2178
sg63
(lp2692
g56
(g77
g58
NtRp2693
(dp2694
g61
(dp2695
g81
g82
ssg70
g2689
sg63
(lp2696
S'wsgi.url_scheme'
p2697
asbag56
(g77
g58
NtRp2698
(dp2699
g61
(dp2700
g88
g89
ssg70
g2689
sg63
(lp2701
S':'
asbag56
(g77
g58
NtRp2702
(dp2703
g61
(dp2704
sg70
g2689
sg63
(lp2705
g56
(g57
g58
NtRp2706
(dp2707
g61
(dp2708
g69
I3
ssg70
g2702
sg63
(lp2709
g1492
asbasbasbag56
(g72
g58
NtRp2710
(dp2711
g61
(dp2712
sg70
g2178
sg63
(lp2713
g56
(g77
g58
NtRp2714
(dp2715
g61
(dp2716
g81
g82
ssg70
g2710
sg63
(lp2717
S'wsgi.version'
p2718
asbag56
(g77
g58
NtRp2719
(dp2720
g61
(dp2721
g88
g89
ssg70
g2710
sg63
(lp2722
S':'
asbag56
(g77
g58
NtRp2723
(dp2724
g61
(dp2725
sg70
g2710
sg63
(lp2726
g56
(g57
g58
NtRp2727
(dp2728
g61
(dp2729
g69
I3
ssg70
g2723
sg63
(lp2730
S'1'
asbasbasbasbasbasbasbasbasbasbasbasbasbsS'frames'
p2731
(lp2732
(dp2733
S'file'
p2734
S'/Users/excon/Sites/dreamscape/gluon/restricted.py'
p2735
sS'dump'
p2736
(dp2737
S'environment'
p2738
S"{'A': <class 'gluon.html.A'>, 'Auth': <class 'gluon.tools.Auth'>, 'B': <class 'gluon.html.B'>, 'BEAUTIFY': <class 'gluon.html.BEAUTIFY'>, 'BODY': <class 'gluon.html.BODY'>, 'BR': <class 'gluon.html.BR'>, 'BUTTON': <class 'gluon.html.BUTTON'>, 'CAT': <class 'gluon.html.CAT'>, 'CENTER': <class 'gluon.html.CENTER'>, 'CLEANUP': <class 'gluon.validators.CLEANUP'>, ...}"
p2739
sS'ccode'
p2740
S'<code object <module> at 0x112db8cd8, file "/Use...cations/welcome/controllers/default.py", line 12>'
p2741
ssS'lnum'
p2742
I194
sS'lines'
p2743
(dp2744
I192
S'        else:'
p2745
sI193
S'            ccode = compile2(code,layer)'
p2746
sI194
S'        exec ccode in environment'
p2747
sI195
S'    except HTTP:'
p2748
sI196
S'        raise'
p2749
sI197
S'    except Exception, error:'
p2750
sI198
S'        # XXX Show exception in Wing IDE if running in debugger'
p2751
sI189
S'    try:'
p2752
sI190
S'        if type(code) == types.CodeType:'
p2753
sI191
S'            ccode = code'
p2754
ssS'call'
p2755
S"(code='# -*- coding: utf-8 -*-\\n# this file is released ...=crud())\\n\\nresponse._vars=response._caller(index)\\n', environment={'A': <class 'gluon.html.A'>, 'Auth': <class 'gluon.tools.Auth'>, 'B': <class 'gluon.html.B'>, 'BEAUTIFY': <class 'gluon.html.BEAUTIFY'>, 'BODY': <class 'gluon.html.BODY'>, 'BR': <class 'gluon.html.BR'>, 'BUTTON': <class 'gluon.html.BUTTON'>, 'CAT': <class 'gluon.html.CAT'>, 'CENTER': <class 'gluon.html.CENTER'>, 'CLEANUP': <class 'gluon.validators.CLEANUP'>, ...}, layer='/Users/excon/Sites/dreamscape/applications/welcome/controllers/default.py')"
p2756
sS'func'
p2757
S'restricted'
p2758
sa(dp2759
g2734
S'/Users/excon/Sites/dreamscape/applications/welcome/controllers/default.py'
p2760
sg2736
(dp2761
sg2742
I85
sg2743
(dp2762
I74
S'    http://..../[app]/default/data/update/[table]/[id]'
p2763
sI75
S'    http://..../[app]/default/data/delete/[table]/[id]'
p2764
sI76
S'    http://..../[app]/default/data/select/[table]'
p2765
sI77
S'    http://..../[app]/default/data/search/[table]'
p2766
sI78
S'    but URLs bust be signed, i.e. linked with'
p2767
sI79
S"      A('table',_href=URL('data/tables',user_signature=True))"
p2768
sI80
S'    or with the signed load operator'
p2769
sI81
S"      LOAD('default','data.load',args='tables',ajax=True,user_signature=True)"
p2770
sI82
S'    """'
p2771
sI83
S'    return dict(form=crud())'
p2772
ssg2755
S'()'
p2773
sg2757
S'<module>'
p2774
sa(dp2775
g2734
S'/Users/excon/Sites/dreamscape/gluon/globals.py'
p2776
sg2736
(dp2777
S'self'
p2778
S'undefined'
p2779
sS'f'
S'<function index at 0x112db8d70>'
p2780
ssg2742
I149
sg2743
(dp2781
I144
S'        self.meta = Storage()      # used by web2py_ajax.html'
p2782
sI145
S'        self.menu = []             # used by the default view layout'
p2783
sI146
S'        self.files = []            # used by web2py_ajax.html'
p2784
sI147
S'        self.generic_patterns = [] # patterns to allow generic views'
p2785
sI148
S'        self._vars = None'
p2786
sI149
S'        self._caller = lambda f: f()'
p2787
sI150
S'        self._view_environment = None'
p2788
sI151
S'        self._custom_commit = None'
p2789
sI152
S'        self._custom_rollback = None'
p2790
sI153
S''
ssg2755
S'(f=<function index at 0x112db8d70>)'
p2791
sg2757
S'<lambda>'
p2792
sa(dp2793
g2734
S'/Users/excon/Sites/dreamscape/applications/welcome/controllers/default.py'
p2794
sg2736
(dp2795
S'COMING_SOON'
p2796
g2779
ssg2742
I17
sg2743
(dp2797
I12
S'def index():'
p2798
sI13
S'    """'
p2799
sI14
S'    example action using the internationalization operator T and flash'
p2800
sI15
S'    rendered by views/default/index.html or views/generic.html'
p2801
sI16
S'    """'
p2802
sI17
S'    if COMING_SOON:'
p2803
sI18
S"        redirect(URL('coming_soon'))"
p2804
sI19
S'    return dict()'
p2805
sI20
S''
sI21
S'def coming_soon():'
p2806
ssg2755
S'()'
p2807
sg2757
S'index'
p2808
sasS'pyver'
p2809
S'Python 2.6.1: /usr/bin/python'
p2810
sS'session'
p2811
g56
(g57
g58
NtRp2812
(dp2813
g61
(dp2814
sg63
(lp2815
g56
(g65
g58
NtRp2816
(dp2817
g61
(dp2818
g69
I5
ssg70
Nsg63
(lp2819
sbasbsS'etype'
p2820
S"<type 'exceptions.NameError'>"
p2821
sS'date'
p2822
S'Wed Sep 28 16:29:31 2011'
p2823
sS'response'
p2824
g56
(g57
g58
NtRp2825
(dp2826
g61
(dp2827
sg63
(lp2828
g56
(g65
g58
NtRp2829
(dp2830
g61
(dp2831
g69
I5
ssg70
Nsg63
(lp2832
g56
(g72
g58
NtRp2833
(dp2834
g61
(dp2835
sg70
g2829
sg63
(lp2836
g56
(g77
g58
NtRp2837
(dp2838
g61
(dp2839
g81
g82
ssg70
g2833
sg63
(lp2840
g154
asbag56
(g77
g58
NtRp2841
(dp2842
g61
(dp2843
g88
g89
ssg70
g2833
sg63
(lp2844
S':'
asbag56
(g77
g58
NtRp2845
(dp2846
g61
(dp2847
sg70
g2833
sg63
(lp2848
g56
(g57
g58
NtRp2849
(dp2850
g61
(dp2851
g69
I5
ssg70
g2845
sg63
(lp2852
S'<cStringIO.StringO object at 0x112d8db90>'
p2853
asbasbasbag56
(g72
g58
NtRp2854
(dp2855
g61
(dp2856
sg70
g2829
sg63
(lp2857
g56
(g77
g58
NtRp2858
(dp2859
g61
(dp2860
g81
g82
ssg70
g2854
sg63
(lp2861
g220
asbag56
(g77
g58
NtRp2862
(dp2863
g61
(dp2864
g88
g89
ssg70
g2854
sg63
(lp2865
S':'
asbag56
(g77
g58
NtRp2866
(dp2867
g61
(dp2868
sg70
g2854
sg63
(lp2869
g56
(g57
g58
NtRp2870
(dp2871
g61
(dp2872
g69
I5
ssg70
g2866
sg63
(lp2873
g56
(g65
g58
NtRp2874
(dp2875
g61
(dp2876
g69
I4
ssg70
Nsg63
(lp2877
g56
(g72
g58
NtRp2878
(dp2879
g61
(dp2880
sg70
g2874
sg63
(lp2881
g56
(g77
g58
NtRp2882
(dp2883
g61
(dp2884
g81
g82
ssg70
g2878
sg63
(lp2885
S'session_id_welcome'
p2886
asbag56
(g77
g58
NtRp2887
(dp2888
g61
(dp2889
g88
g89
ssg70
g2878
sg63
(lp2890
S':'
asbag56
(g77
g58
NtRp2891
(dp2892
g61
(dp2893
sg70
g2878
sg63
(lp2894
g56
(g57
g58
NtRp2895
(dp2896
g61
(dp2897
g69
I4
ssg70
g2891
sg63
(lp2898
g56
(g65
g58
NtRp2899
(dp2900
g61
(dp2901
g69
I3
ssg70
Nsg63
(lp2902
g56
(g72
g58
NtRp2903
(dp2904
g61
(dp2905
sg70
g2899
sg63
(lp2906
g56
(g77
g58
NtRp2907
(dp2908
g61
(dp2909
g81
g82
ssg70
g2903
sg63
(lp2910
g270
asbag56
(g77
g58
NtRp2911
(dp2912
g61
(dp2913
g88
g89
ssg70
g2903
sg63
(lp2914
S':'
asbag56
(g77
g58
NtRp2915
(dp2916
g61
(dp2917
sg70
g2903
sg63
(lp2918
g56
(g57
g58
NtRp2919
(dp2920
g61
(dp2921
g69
I3
ssg70
g2915
sg63
(lp2922
S''
asbasbasbag56
(g72
g58
NtRp2923
(dp2924
g61
(dp2925
sg70
g2899
sg63
(lp2926
g56
(g77
g58
NtRp2927
(dp2928
g61
(dp2929
g81
g82
ssg70
g2923
sg63
(lp2930
g291
asbag56
(g77
g58
NtRp2931
(dp2932
g61
(dp2933
g88
g89
ssg70
g2923
sg63
(lp2934
S':'
asbag56
(g77
g58
NtRp2935
(dp2936
g61
(dp2937
sg70
g2923
sg63
(lp2938
g56
(g57
g58
NtRp2939
(dp2940
g61
(dp2941
g69
I3
ssg70
g2935
sg63
(lp2942
S''
asbasbasbag56
(g72
g58
NtRp2943
(dp2944
g61
(dp2945
sg70
g2899
sg63
(lp2946
g56
(g77
g58
NtRp2947
(dp2948
g61
(dp2949
g81
g82
ssg70
g2943
sg63
(lp2950
g312
asbag56
(g77
g58
NtRp2951
(dp2952
g61
(dp2953
g88
g89
ssg70
g2943
sg63
(lp2954
S':'
asbag56
(g77
g58
NtRp2955
(dp2956
g61
(dp2957
sg70
g2943
sg63
(lp2958
g56
(g57
g58
NtRp2959
(dp2960
g61
(dp2961
g69
I3
ssg70
g2955
sg63
(lp2962
S''
asbasbasbag56
(g72
g58
NtRp2963
(dp2964
g61
(dp2965
sg70
g2899
sg63
(lp2966
g56
(g77
g58
NtRp2967
(dp2968
g61
(dp2969
g81
g82
ssg70
g2963
sg63
(lp2970
g333
asbag56
(g77
g58
NtRp2971
(dp2972
g61
(dp2973
g88
g89
ssg70
g2963
sg63
(lp2974
S':'
asbag56
(g77
g58
NtRp2975
(dp2976
g61
(dp2977
sg70
g2963
sg63
(lp2978
g56
(g57
g58
NtRp2979
(dp2980
g61
(dp2981
g69
I3
ssg70
g2975
sg63
(lp2982
S''
asbasbasbag56
(g72
g58
NtRp2983
(dp2984
g61
(dp2985
sg70
g2899
sg63
(lp2986
g56
(g77
g58
NtRp2987
(dp2988
g61
(dp2989
g81
g82
ssg70
g2983
sg63
(lp2990
g354
asbag56
(g77
g58
NtRp2991
(dp2992
g61
(dp2993
g88
g89
ssg70
g2983
sg63
(lp2994
S':'
asbag56
(g77
g58
NtRp2995
(dp2996
g61
(dp2997
sg70
g2983
sg63
(lp2998
g56
(g57
g58
NtRp2999
(dp3000
g61
(dp3001
g69
I3
ssg70
g2995
sg63
(lp3002
S''
asbasbasbag56
(g72
g58
NtRp3003
(dp3004
g61
(dp3005
sg70
g2899
sg63
(lp3006
g56
(g77
g58
NtRp3007
(dp3008
g61
(dp3009
g81
g82
ssg70
g3003
sg63
(lp3010
g375
asbag56
(g77
g58
NtRp3011
(dp3012
g61
(dp3013
g88
g89
ssg70
g3003
sg63
(lp3014
S':'
asbag56
(g77
g58
NtRp3015
(dp3016
g61
(dp3017
sg70
g3003
sg63
(lp3018
g56
(g57
g58
NtRp3019
(dp3020
g61
(dp3021
g69
I3
ssg70
g3015
sg63
(lp3022
S'/'
asbasbasbag56
(g72
g58
NtRp3023
(dp3024
g61
(dp3025
sg70
g2899
sg63
(lp3026
g56
(g77
g58
NtRp3027
(dp3028
g61
(dp3029
g81
g82
ssg70
g3023
sg63
(lp3030
g396
asbag56
(g77
g58
NtRp3031
(dp3032
g61
(dp3033
g88
g89
ssg70
g3023
sg63
(lp3034
S':'
asbag56
(g77
g58
NtRp3035
(dp3036
g61
(dp3037
sg70
g3023
sg63
(lp3038
g56
(g57
g58
NtRp3039
(dp3040
g61
(dp3041
g69
I3
ssg70
g3035
sg63
(lp3042
S''
asbasbasbag56
(g72
g58
NtRp3043
(dp3044
g61
(dp3045
sg70
g2899
sg63
(lp3046
g56
(g77
g58
NtRp3047
(dp3048
g61
(dp3049
g81
g82
ssg70
g3043
sg63
(lp3050
g417
asbag56
(g77
g58
NtRp3051
(dp3052
g61
(dp3053
g88
g89
ssg70
g3043
sg63
(lp3054
S':'
asbag56
(g77
g58
NtRp3055
(dp3056
g61
(dp3057
sg70
g3043
sg63
(lp3058
g56
(g57
g58
NtRp3059
(dp3060
g61
(dp3061
g69
I3
ssg70
g3055
sg63
(lp3062
S''
asbasbasbasbasbasbasbasbasbasbasbag56
(g72
g58
NtRp3063
(dp3064
g61
(dp3065
sg70
g2829
sg63
(lp3066
g56
(g77
g58
NtRp3067
(dp3068
g61
(dp3069
g81
g82
ssg70
g3063
sg63
(lp3070
S'files'
p3071
asbag56
(g77
g58
NtRp3072
(dp3073
g61
(dp3074
g88
g89
ssg70
g3063
sg63
(lp3075
S':'
asbag56
(g77
g58
NtRp3076
(dp3077
g61
(dp3078
sg70
g3063
sg63
(lp3079
g56
(g57
g58
NtRp3080
(dp3081
g61
(dp3082
g69
I5
ssg70
g3076
sg63
(lp3083
g56
(g65
g58
NtRp3084
(dp3085
g61
(dp3086
g69
I4
ssg70
Nsg63
(lp3087
sbasbasbasbag56
(g72
g58
NtRp3088
(dp3089
g61
(dp3090
sg70
g2829
sg63
(lp3091
g56
(g77
g58
NtRp3092
(dp3093
g61
(dp3094
g81
g82
ssg70
g3088
sg63
(lp3095
S'flash'
p3096
asbag56
(g77
g58
NtRp3097
(dp3098
g61
(dp3099
g88
g89
ssg70
g3088
sg63
(lp3100
S':'
asbag56
(g77
g58
NtRp3101
(dp3102
g61
(dp3103
sg70
g3088
sg63
(lp3104
g56
(g57
g58
NtRp3105
(dp3106
g61
(dp3107
g69
I5
ssg70
g3101
sg63
(lp3108
S''
asbasbasbag56
(g72
g58
NtRp3109
(dp3110
g61
(dp3111
sg70
g2829
sg63
(lp3112
g56
(g77
g58
NtRp3113
(dp3114
g61
(dp3115
g81
g82
ssg70
g3109
sg63
(lp3116
S'generic_patterns'
p3117
asbag56
(g77
g58
NtRp3118
(dp3119
g61
(dp3120
g88
g89
ssg70
g3109
sg63
(lp3121
S':'
asbag56
(g77
g58
NtRp3122
(dp3123
g61
(dp3124
sg70
g3109
sg63
(lp3125
g56
(g57
g58
NtRp3126
(dp3127
g61
(dp3128
g69
I5
ssg70
g3122
sg63
(lp3129
g56
(g65
g58
NtRp3130
(dp3131
g61
(dp3132
g69
I4
ssg70
Nsg63
(lp3133
g56
(g72
g58
NtRp3134
(dp3135
g61
(dp3136
sg70
g3130
sg63
(lp3137
g56
(g77
g58
NtRp3138
(dp3139
g61
(dp3140
sg70
g3134
sg63
(lp3141
g56
(g57
g58
NtRp3142
(dp3143
g61
(dp3144
g69
I4
ssg70
g3138
sg63
(lp3145
S'*'
asbasbasbasbasbasbasbag56
(g72
g58
NtRp3146
(dp3147
g61
(dp3148
sg70
g2829
sg63
(lp3149
g56
(g77
g58
NtRp3150
(dp3151
g61
(dp3152
g81
g82
ssg70
g3146
sg63
(lp3153
S'headers'
p3154
asbag56
(g77
g58
NtRp3155
(dp3156
g61
(dp3157
g88
g89
ssg70
g3146
sg63
(lp3158
S':'
asbag56
(g77
g58
NtRp3159
(dp3160
g61
(dp3161
sg70
g3146
sg63
(lp3162
g56
(g57
g58
NtRp3163
(dp3164
g61
(dp3165
g69
I5
ssg70
g3159
sg63
(lp3166
g56
(g65
g58
NtRp3167
(dp3168
g61
(dp3169
g69
I4
ssg70
Nsg63
(lp3170
g56
(g72
g58
NtRp3171
(dp3172
g61
(dp3173
sg70
g3167
sg63
(lp3174
g56
(g77
g58
NtRp3175
(dp3176
g61
(dp3177
g81
g82
ssg70
g3171
sg63
(lp3178
S'Cache-Control'
p3179
asbag56
(g77
g58
NtRp3180
(dp3181
g61
(dp3182
g88
g89
ssg70
g3171
sg63
(lp3183
S':'
asbag56
(g77
g58
NtRp3184
(dp3185
g61
(dp3186
sg70
g3171
sg63
(lp3187
g56
(g57
g58
NtRp3188
(dp3189
g61
(dp3190
g69
I4
ssg70
g3184
sg63
(lp3191
S'no-store, no-cache, must-revalidate, post-check=0, pre-check=0'
p3192
asbasbasbag56
(g72
g58
NtRp3193
(dp3194
g61
(dp3195
sg70
g3167
sg63
(lp3196
g56
(g77
g58
NtRp3197
(dp3198
g61
(dp3199
g81
g82
ssg70
g3193
sg63
(lp3200
S'Content-Type'
p3201
asbag56
(g77
g58
NtRp3202
(dp3203
g61
(dp3204
g88
g89
ssg70
g3193
sg63
(lp3205
S':'
asbag56
(g77
g58
NtRp3206
(dp3207
g61
(dp3208
sg70
g3193
sg63
(lp3209
g56
(g57
g58
NtRp3210
(dp3211
g61
(dp3212
g69
I4
ssg70
g3206
sg63
(lp3213
S'text/html; charset=utf-8'
p3214
asbasbasbag56
(g72
g58
NtRp3215
(dp3216
g61
(dp3217
sg70
g3167
sg63
(lp3218
g56
(g77
g58
NtRp3219
(dp3220
g61
(dp3221
g81
g82
ssg70
g3215
sg63
(lp3222
S'Expires'
p3223
asbag56
(g77
g58
NtRp3224
(dp3225
g61
(dp3226
g88
g89
ssg70
g3215
sg63
(lp3227
S':'
asbag56
(g77
g58
NtRp3228
(dp3229
g61
(dp3230
sg70
g3215
sg63
(lp3231
g56
(g57
g58
NtRp3232
(dp3233
g61
(dp3234
g69
I4
ssg70
g3228
sg63
(lp3235
S'Wed, 28 Sep 2011 23:29:31 GMT'
p3236
asbasbasbag56
(g72
g58
NtRp3237
(dp3238
g61
(dp3239
sg70
g3167
sg63
(lp3240
g56
(g77
g58
NtRp3241
(dp3242
g61
(dp3243
g81
g82
ssg70
g3237
sg63
(lp3244
S'Pragma'
p3245
asbag56
(g77
g58
NtRp3246
(dp3247
g61
(dp3248
g88
g89
ssg70
g3237
sg63
(lp3249
S':'
asbag56
(g77
g58
NtRp3250
(dp3251
g61
(dp3252
sg70
g3237
sg63
(lp3253
g56
(g57
g58
NtRp3254
(dp3255
g61
(dp3256
g69
I4
ssg70
g3250
sg63
(lp3257
S'no-cache'
p3258
asbasbasbag56
(g72
g58
NtRp3259
(dp3260
g61
(dp3261
sg70
g3167
sg63
(lp3262
g56
(g77
g58
NtRp3263
(dp3264
g61
(dp3265
g81
g82
ssg70
g3259
sg63
(lp3266
S'X-Powered-By'
p3267
asbag56
(g77
g58
NtRp3268
(dp3269
g61
(dp3270
g88
g89
ssg70
g3259
sg63
(lp3271
S':'
asbag56
(g77
g58
NtRp3272
(dp3273
g61
(dp3274
sg70
g3259
sg63
(lp3275
g56
(g57
g58
NtRp3276
(dp3277
g61
(dp3278
g69
I4
ssg70
g3272
sg63
(lp3279
S'web2py'
p3280
asbasbasbasbasbasbasbag56
(g72
g58
NtRp3281
(dp3282
g61
(dp3283
sg70
g2829
sg63
(lp3284
g56
(g77
g58
NtRp3285
(dp3286
g61
(dp3287
g81
g82
ssg70
g3281
sg63
(lp3288
S'menu'
p3289
asbag56
(g77
g58
NtRp3290
(dp3291
g61
(dp3292
g88
g89
ssg70
g3281
sg63
(lp3293
S':'
asbag56
(g77
g58
NtRp3294
(dp3295
g61
(dp3296
sg70
g3281
sg63
(lp3297
g56
(g57
g58
NtRp3298
(dp3299
g61
(dp3300
g69
I5
ssg70
g3294
sg63
(lp3301
g56
(g65
g58
NtRp3302
(dp3303
g61
(dp3304
g69
I4
ssg70
Nsg63
(lp3305
g56
(g72
g58
NtRp3306
(dp3307
g61
(dp3308
sg70
g3302
sg63
(lp3309
g56
(g77
g58
NtRp3310
(dp3311
g61
(dp3312
sg70
g3306
sg63
(lp3313
g56
(g57
g58
NtRp3314
(dp3315
g61
(dp3316
g69
I4
ssg70
g3310
sg63
(lp3317
g56
(g65
g58
NtRp3318
(dp3319
g61
(dp3320
g69
I3
ssg70
Nsg63
(lp3321
g56
(g72
g58
NtRp3322
(dp3323
g61
(dp3324
sg70
g3318
sg63
(lp3325
g56
(g77
g58
NtRp3326
(dp3327
g61
(dp3328
sg70
g3322
sg63
(lp3329
g56
(g57
g58
NtRp3330
(dp3331
g61
(dp3332
g69
I3
ssg70
g3326
sg63
(lp3333
cgluon.languages
lazyT_unpickle
p3334
(S's\x04\x00\x00\x00Home'
tRp3335
asbasbasbag56
(g72
g58
NtRp3336
(dp3337
g61
(dp3338
sg70
g3318
sg63
(lp3339
g56
(g77
g58
NtRp3340
(dp3341
g61
(dp3342
sg70
g3336
sg63
(lp3343
g56
(g57
g58
NtRp3344
(dp3345
g61
(dp3346
g69
I3
ssg70
g3340
sg63
(lp3347
g99
asbasbasbag56
(g72
g58
NtRp3348
(dp3349
g61
(dp3350
sg70
g3318
sg63
(lp3351
g56
(g77
g58
NtRp3352
(dp3353
g61
(dp3354
sg70
g3348
sg63
(lp3355
g56
(g57
g58
NtRp3356
(dp3357
g61
(dp3358
g69
I3
ssg70
g3352
sg63
(lp3359
S'/welcome/default/index'
p3360
asbasbasbag56
(g72
g58
NtRp3361
(dp3362
g61
(dp3363
sg70
g3318
sg63
(lp3364
g56
(g77
g58
NtRp3365
(dp3366
g61
(dp3367
sg70
g3361
sg63
(lp3368
g56
(g57
g58
NtRp3369
(dp3370
g61
(dp3371
g69
I3
ssg70
g3365
sg63
(lp3372
g56
(g65
g58
NtRp3373
(dp3374
g61
(dp3375
g69
I2
ssg70
Nsg63
(lp3376
sbasbasbasbasbasbasbasbag56
(g72
g58
NtRp3377
(dp3378
g61
(dp3379
sg70
g3302
sg63
(lp3380
g56
(g77
g58
NtRp3381
(dp3382
g61
(dp3383
sg70
g3377
sg63
(lp3384
g56
(g57
g58
NtRp3385
(dp3386
g61
(dp3387
g69
I4
ssg70
g3381
sg63
(lp3388
g56
(g65
g58
NtRp3389
(dp3390
g61
(dp3391
g69
I3
ssg70
Nsg63
(lp3392
g56
(g72
g58
NtRp3393
(dp3394
g61
(dp3395
sg70
g3389
sg63
(lp3396
g56
(g77
g58
NtRp3397
(dp3398
g61
(dp3399
sg70
g3393
sg63
(lp3400
g56
(g57
g58
NtRp3401
(dp3402
g61
(dp3403
g69
I3
ssg70
g3397
sg63
(lp3404
g3334
(S's\x08\x00\x00\x00This App'
tRp3405
asbasbasbag56
(g72
g58
NtRp3406
(dp3407
g61
(dp3408
sg70
g3389
sg63
(lp3409
g56
(g77
g58
NtRp3410
(dp3411
g61
(dp3412
sg70
g3406
sg63
(lp3413
g56
(g57
g58
NtRp3414
(dp3415
g61
(dp3416
g69
I3
ssg70
g3410
sg63
(lp3417
g99
asbasbasbag56
(g72
g58
NtRp3418
(dp3419
g61
(dp3420
sg70
g3389
sg63
(lp3421
g56
(g77
g58
NtRp3422
(dp3423
g61
(dp3424
sg70
g3418
sg63
(lp3425
g56
(g57
g58
NtRp3426
(dp3427
g61
(dp3428
g69
I3
ssg70
g3422
sg63
(lp3429
S'/admin/default/design/welcome'
p3430
asbasbasbag56
(g72
g58
NtRp3431
(dp3432
g61
(dp3433
sg70
g3389
sg63
(lp3434
g56
(g77
g58
NtRp3435
(dp3436
g61
(dp3437
sg70
g3431
sg63
(lp3438
g56
(g57
g58
NtRp3439
(dp3440
g61
(dp3441
g69
I3
ssg70
g3435
sg63
(lp3442
g56
(g65
g58
NtRp3443
(dp3444
g61
(dp3445
g69
I2
ssg70
Nsg63
(lp3446
g56
(g72
g58
NtRp3447
(dp3448
g61
(dp3449
sg70
g3443
sg63
(lp3450
g56
(g77
g58
NtRp3451
(dp3452
g61
(dp3453
sg70
g3447
sg63
(lp3454
g56
(g57
g58
NtRp3455
(dp3456
g61
(dp3457
g69
I2
ssg70
g3451
sg63
(lp3458
g56
(g65
g58
NtRp3459
(dp3460
g61
(dp3461
g69
I1
ssg70
Nsg63
(lp3462
g56
(g72
g58
NtRp3463
(dp3464
g61
(dp3465
sg70
g3459
sg63
(lp3466
g56
(g77
g58
NtRp3467
(dp3468
g61
(dp3469
sg70
g3463
sg63
(lp3470
g56
(g57
g58
NtRp3471
(dp3472
g61
(dp3473
g69
I1
ssg70
g3467
sg63
(lp3474
g3334
(S's\n\x00\x00\x00Controller'
tRp3475
asbasbasbag56
(g72
g58
NtRp3476
(dp3477
g61
(dp3478
sg70
g3459
sg63
(lp3479
g56
(g77
g58
NtRp3480
(dp3481
g61
(dp3482
sg70
g3476
sg63
(lp3483
g56
(g57
g58
NtRp3484
(dp3485
g61
(dp3486
g69
I1
ssg70
g3480
sg63
(lp3487
I00
asbasbasbag56
(g72
g58
NtRp3488
(dp3489
g61
(dp3490
sg70
g3459
sg63
(lp3491
g56
(g77
g58
NtRp3492
(dp3493
g61
(dp3494
sg70
g3488
sg63
(lp3495
g56
(g57
g58
NtRp3496
(dp3497
g61
(dp3498
g69
I1
ssg70
g3492
sg63
(lp3499
S'/admin/default/edit/welcome/controllers/default.py'
p3500
asbasbasbasbasbasbasbag56
(g72
g58
NtRp3501
(dp3502
g61
(dp3503
sg70
g3443
sg63
(lp3504
g56
(g77
g58
NtRp3505
(dp3506
g61
(dp3507
sg70
g3501
sg63
(lp3508
g56
(g57
g58
NtRp3509
(dp3510
g61
(dp3511
g69
I2
ssg70
g3505
sg63
(lp3512
g56
(g65
g58
NtRp3513
(dp3514
g61
(dp3515
g69
I1
ssg70
Nsg63
(lp3516
g56
(g72
g58
NtRp3517
(dp3518
g61
(dp3519
sg70
g3513
sg63
(lp3520
g56
(g77
g58
NtRp3521
(dp3522
g61
(dp3523
sg70
g3517
sg63
(lp3524
g56
(g57
g58
NtRp3525
(dp3526
g61
(dp3527
g69
I1
ssg70
g3521
sg63
(lp3528
g3334
(S's\x04\x00\x00\x00View'
tRp3529
asbasbasbag56
(g72
g58
NtRp3530
(dp3531
g61
(dp3532
sg70
g3513
sg63
(lp3533
g56
(g77
g58
NtRp3534
(dp3535
g61
(dp3536
sg70
g3530
sg63
(lp3537
g56
(g57
g58
NtRp3538
(dp3539
g61
(dp3540
g69
I1
ssg70
g3534
sg63
(lp3541
I00
asbasbasbag56
(g72
g58
NtRp3542
(dp3543
g61
(dp3544
sg70
g3513
sg63
(lp3545
g56
(g77
g58
NtRp3546
(dp3547
g61
(dp3548
sg70
g3542
sg63
(lp3549
g56
(g57
g58
NtRp3550
(dp3551
g61
(dp3552
g69
I1
ssg70
g3546
sg63
(lp3553
S'/admin/default/edit/welcome/views/default/index.html'
p3554
asbasbasbasbasbasbasbag56
(g72
g58
NtRp3555
(dp3556
g61
(dp3557
sg70
g3443
sg63
(lp3558
g56
(g77
g58
NtRp3559
(dp3560
g61
(dp3561
sg70
g3555
sg63
(lp3562
g56
(g57
g58
NtRp3563
(dp3564
g61
(dp3565
g69
I2
ssg70
g3559
sg63
(lp3566
g56
(g65
g58
NtRp3567
(dp3568
g61
(dp3569
g69
I1
ssg70
Nsg63
(lp3570
g56
(g72
g58
NtRp3571
(dp3572
g61
(dp3573
sg70
g3567
sg63
(lp3574
g56
(g77
g58
NtRp3575
(dp3576
g61
(dp3577
sg70
g3571
sg63
(lp3578
g56
(g57
g58
NtRp3579
(dp3580
g61
(dp3581
g69
I1
ssg70
g3575
sg63
(lp3582
g3334
(S's\x06\x00\x00\x00Layout'
tRp3583
asbasbasbag56
(g72
g58
NtRp3584
(dp3585
g61
(dp3586
sg70
g3567
sg63
(lp3587
g56
(g77
g58
NtRp3588
(dp3589
g61
(dp3590
sg70
g3584
sg63
(lp3591
g56
(g57
g58
NtRp3592
(dp3593
g61
(dp3594
g69
I1
ssg70
g3588
sg63
(lp3595
I00
asbasbasbag56
(g72
g58
NtRp3596
(dp3597
g61
(dp3598
sg70
g3567
sg63
(lp3599
g56
(g77
g58
NtRp3600
(dp3601
g61
(dp3602
sg70
g3596
sg63
(lp3603
g56
(g57
g58
NtRp3604
(dp3605
g61
(dp3606
g69
I1
ssg70
g3600
sg63
(lp3607
S'/admin/default/edit/welcome/views/layout.html'
p3608
asbasbasbasbasbasbasbag56
(g72
g58
NtRp3609
(dp3610
g61
(dp3611
sg70
g3443
sg63
(lp3612
g56
(g77
g58
NtRp3613
(dp3614
g61
(dp3615
sg70
g3609
sg63
(lp3616
g56
(g57
g58
NtRp3617
(dp3618
g61
(dp3619
g69
I2
ssg70
g3613
sg63
(lp3620
g56
(g65
g58
NtRp3621
(dp3622
g61
(dp3623
g69
I1
ssg70
Nsg63
(lp3624
g56
(g72
g58
NtRp3625
(dp3626
g61
(dp3627
sg70
g3621
sg63
(lp3628
g56
(g77
g58
NtRp3629
(dp3630
g61
(dp3631
sg70
g3625
sg63
(lp3632
g56
(g57
g58
NtRp3633
(dp3634
g61
(dp3635
g69
I1
ssg70
g3629
sg63
(lp3636
g3334
(S's\n\x00\x00\x00Stylesheet'
tRp3637
asbasbasbag56
(g72
g58
NtRp3638
(dp3639
g61
(dp3640
sg70
g3621
sg63
(lp3641
g56
(g77
g58
NtRp3642
(dp3643
g61
(dp3644
sg70
g3638
sg63
(lp3645
g56
(g57
g58
NtRp3646
(dp3647
g61
(dp3648
g69
I1
ssg70
g3642
sg63
(lp3649
I00
asbasbasbag56
(g72
g58
NtRp3650
(dp3651
g61
(dp3652
sg70
g3621
sg63
(lp3653
g56
(g77
g58
NtRp3654
(dp3655
g61
(dp3656
sg70
g3650
sg63
(lp3657
g56
(g57
g58
NtRp3658
(dp3659
g61
(dp3660
g69
I1
ssg70
g3654
sg63
(lp3661
S'/admin/default/edit/welcome/static/base.css'
p3662
asbasbasbasbasbasbasbag56
(g72
g58
NtRp3663
(dp3664
g61
(dp3665
sg70
g3443
sg63
(lp3666
g56
(g77
g58
NtRp3667
(dp3668
g61
(dp3669
sg70
g3663
sg63
(lp3670
g56
(g57
g58
NtRp3671
(dp3672
g61
(dp3673
g69
I2
ssg70
g3667
sg63
(lp3674
g56
(g65
g58
NtRp3675
(dp3676
g61
(dp3677
g69
I1
ssg70
Nsg63
(lp3678
g56
(g72
g58
NtRp3679
(dp3680
g61
(dp3681
sg70
g3675
sg63
(lp3682
g56
(g77
g58
NtRp3683
(dp3684
g61
(dp3685
sg70
g3679
sg63
(lp3686
g56
(g57
g58
NtRp3687
(dp3688
g61
(dp3689
g69
I1
ssg70
g3683
sg63
(lp3690
g3334
(S's\x08\x00\x00\x00DB Model'
tRp3691
asbasbasbag56
(g72
g58
NtRp3692
(dp3693
g61
(dp3694
sg70
g3675
sg63
(lp3695
g56
(g77
g58
NtRp3696
(dp3697
g61
(dp3698
sg70
g3692
sg63
(lp3699
g56
(g57
g58
NtRp3700
(dp3701
g61
(dp3702
g69
I1
ssg70
g3696
sg63
(lp3703
I00
asbasbasbag56
(g72
g58
NtRp3704
(dp3705
g61
(dp3706
sg70
g3675
sg63
(lp3707
g56
(g77
g58
NtRp3708
(dp3709
g61
(dp3710
sg70
g3704
sg63
(lp3711
g56
(g57
g58
NtRp3712
(dp3713
g61
(dp3714
g69
I1
ssg70
g3708
sg63
(lp3715
S'/admin/default/edit/welcome/models/db.py'
p3716
asbasbasbasbasbasbasbag56
(g72
g58
NtRp3717
(dp3718
g61
(dp3719
sg70
g3443
sg63
(lp3720
g56
(g77
g58
NtRp3721
(dp3722
g61
(dp3723
sg70
g3717
sg63
(lp3724
g56
(g57
g58
NtRp3725
(dp3726
g61
(dp3727
g69
I2
ssg70
g3721
sg63
(lp3728
g56
(g65
g58
NtRp3729
(dp3730
g61
(dp3731
g69
I1
ssg70
Nsg63
(lp3732
g56
(g72
g58
NtRp3733
(dp3734
g61
(dp3735
sg70
g3729
sg63
(lp3736
g56
(g77
g58
NtRp3737
(dp3738
g61
(dp3739
sg70
g3733
sg63
(lp3740
g56
(g57
g58
NtRp3741
(dp3742
g61
(dp3743
g69
I1
ssg70
g3737
sg63
(lp3744
g3334
(S's\n\x00\x00\x00Menu Model'
tRp3745
asbasbasbag56
(g72
g58
NtRp3746
(dp3747
g61
(dp3748
sg70
g3729
sg63
(lp3749
g56
(g77
g58
NtRp3750
(dp3751
g61
(dp3752
sg70
g3746
sg63
(lp3753
g56
(g57
g58
NtRp3754
(dp3755
g61
(dp3756
g69
I1
ssg70
g3750
sg63
(lp3757
I00
asbasbasbag56
(g72
g58
NtRp3758
(dp3759
g61
(dp3760
sg70
g3729
sg63
(lp3761
g56
(g77
g58
NtRp3762
(dp3763
g61
(dp3764
sg70
g3758
sg63
(lp3765
g56
(g57
g58
NtRp3766
(dp3767
g61
(dp3768
g69
I1
ssg70
g3762
sg63
(lp3769
S'/admin/default/edit/welcome/models/menu.py'
p3770
asbasbasbasbasbasbasbag56
(g72
g58
NtRp3771
(dp3772
g61
(dp3773
sg70
g3443
sg63
(lp3774
g56
(g77
g58
NtRp3775
(dp3776
g61
(dp3777
sg70
g3771
sg63
(lp3778
g56
(g57
g58
NtRp3779
(dp3780
g61
(dp3781
g69
I2
ssg70
g3775
sg63
(lp3782
g56
(g65
g58
NtRp3783
(dp3784
g61
(dp3785
g69
I1
ssg70
Nsg63
(lp3786
g56
(g72
g58
NtRp3787
(dp3788
g61
(dp3789
sg70
g3783
sg63
(lp3790
g56
(g77
g58
NtRp3791
(dp3792
g61
(dp3793
sg70
g3787
sg63
(lp3794
g56
(g57
g58
NtRp3795
(dp3796
g61
(dp3797
g69
I1
ssg70
g3791
sg63
(lp3798
g3334
(S's\x08\x00\x00\x00Database'
tRp3799
asbasbasbag56
(g72
g58
NtRp3800
(dp3801
g61
(dp3802
sg70
g3783
sg63
(lp3803
g56
(g77
g58
NtRp3804
(dp3805
g61
(dp3806
sg70
g3800
sg63
(lp3807
g56
(g57
g58
NtRp3808
(dp3809
g61
(dp3810
g69
I1
ssg70
g3804
sg63
(lp3811
I00
asbasbasbag56
(g72
g58
NtRp3812
(dp3813
g61
(dp3814
sg70
g3783
sg63
(lp3815
g56
(g77
g58
NtRp3816
(dp3817
g61
(dp3818
sg70
g3812
sg63
(lp3819
g56
(g57
g58
NtRp3820
(dp3821
g61
(dp3822
g69
I1
ssg70
g3816
sg63
(lp3823
S'/welcome/appadmin/index'
p3824
asbasbasbasbasbasbasbag56
(g72
g58
NtRp3825
(dp3826
g61
(dp3827
sg70
g3443
sg63
(lp3828
g56
(g77
g58
NtRp3829
(dp3830
g61
(dp3831
sg70
g3825
sg63
(lp3832
g56
(g57
g58
NtRp3833
(dp3834
g61
(dp3835
g69
I2
ssg70
g3829
sg63
(lp3836
g56
(g65
g58
NtRp3837
(dp3838
g61
(dp3839
g69
I1
ssg70
Nsg63
(lp3840
g56
(g72
g58
NtRp3841
(dp3842
g61
(dp3843
sg70
g3837
sg63
(lp3844
g56
(g77
g58
NtRp3845
(dp3846
g61
(dp3847
sg70
g3841
sg63
(lp3848
g56
(g57
g58
NtRp3849
(dp3850
g61
(dp3851
g69
I1
ssg70
g3845
sg63
(lp3852
g3334
(S's\x06\x00\x00\x00Errors'
tRp3853
asbasbasbag56
(g72
g58
NtRp3854
(dp3855
g61
(dp3856
sg70
g3837
sg63
(lp3857
g56
(g77
g58
NtRp3858
(dp3859
g61
(dp3860
sg70
g3854
sg63
(lp3861
g56
(g57
g58
NtRp3862
(dp3863
g61
(dp3864
g69
I1
ssg70
g3858
sg63
(lp3865
I00
asbasbasbag56
(g72
g58
NtRp3866
(dp3867
g61
(dp3868
sg70
g3837
sg63
(lp3869
g56
(g77
g58
NtRp3870
(dp3871
g61
(dp3872
sg70
g3866
sg63
(lp3873
g56
(g57
g58
NtRp3874
(dp3875
g61
(dp3876
g69
I1
ssg70
g3870
sg63
(lp3877
S'/admin/default/errors/welcome'
p3878
asbasbasbasbasbasbasbag56
(g72
g58
NtRp3879
(dp3880
g61
(dp3881
sg70
g3443
sg63
(lp3882
g56
(g77
g58
NtRp3883
(dp3884
g61
(dp3885
sg70
g3879
sg63
(lp3886
g56
(g57
g58
NtRp3887
(dp3888
g61
(dp3889
g69
I2
ssg70
g3883
sg63
(lp3890
g56
(g65
g58
NtRp3891
(dp3892
g61
(dp3893
g69
I1
ssg70
Nsg63
(lp3894
g56
(g72
g58
NtRp3895
(dp3896
g61
(dp3897
sg70
g3891
sg63
(lp3898
g56
(g77
g58
NtRp3899
(dp3900
g61
(dp3901
sg70
g3895
sg63
(lp3902
g56
(g57
g58
NtRp3903
(dp3904
g61
(dp3905
g69
I1
ssg70
g3899
sg63
(lp3906
g3334
(S's\x05\x00\x00\x00About'
tRp3907
asbasbasbag56
(g72
g58
NtRp3908
(dp3909
g61
(dp3910
sg70
g3891
sg63
(lp3911
g56
(g77
g58
NtRp3912
(dp3913
g61
(dp3914
sg70
g3908
sg63
(lp3915
g56
(g57
g58
NtRp3916
(dp3917
g61
(dp3918
g69
I1
ssg70
g3912
sg63
(lp3919
I00
asbasbasbag56
(g72
g58
NtRp3920
(dp3921
g61
(dp3922
sg70
g3891
sg63
(lp3923
g56
(g77
g58
NtRp3924
(dp3925
g61
(dp3926
sg70
g3920
sg63
(lp3927
g56
(g57
g58
NtRp3928
(dp3929
g61
(dp3930
g69
I1
ssg70
g3924
sg63
(lp3931
S'/admin/default/about/welcome'
p3932
asbasbasbasbasbasbasbasbasbasbasbasbasbasbasbag56
(g72
g58
NtRp3933
(dp3934
g61
(dp3935
sg70
g3302
sg63
(lp3936
g56
(g77
g58
NtRp3937
(dp3938
g61
(dp3939
sg70
g3933
sg63
(lp3940
g56
(g57
g58
NtRp3941
(dp3942
g61
(dp3943
g69
I4
ssg70
g3937
sg63
(lp3944
g56
(g65
g58
NtRp3945
(dp3946
g61
(dp3947
g69
I3
ssg70
Nsg63
(lp3948
g56
(g72
g58
NtRp3949
(dp3950
g61
(dp3951
sg70
g3945
sg63
(lp3952
g56
(g77
g58
NtRp3953
(dp3954
g61
(dp3955
sg70
g3949
sg63
(lp3956
g56
(g57
g58
NtRp3957
(dp3958
g61
(dp3959
g69
I3
ssg70
g3953
sg63
(lp3960
g3334
(S's\t\x00\x00\x00Resources'
tRp3961
asbasbasbag56
(g72
g58
NtRp3962
(dp3963
g61
(dp3964
sg70
g3945
sg63
(lp3965
g56
(g77
g58
NtRp3966
(dp3967
g61
(dp3968
sg70
g3962
sg63
(lp3969
g56
(g57
g58
NtRp3970
(dp3971
g61
(dp3972
g69
I3
ssg70
g3966
sg63
(lp3973
g99
asbasbasbag56
(g72
g58
NtRp3974
(dp3975
g61
(dp3976
sg70
g3945
sg63
(lp3977
g56
(g77
g58
NtRp3978
(dp3979
g61
(dp3980
sg70
g3974
sg63
(lp3981
g56
(g57
g58
NtRp3982
(dp3983
g61
(dp3984
g69
I3
ssg70
g3978
sg63
(lp3985
S'None'
p3986
asbasbasbag56
(g72
g58
NtRp3987
(dp3988
g61
(dp3989
sg70
g3945
sg63
(lp3990
g56
(g77
g58
NtRp3991
(dp3992
g61
(dp3993
sg70
g3987
sg63
(lp3994
g56
(g57
g58
NtRp3995
(dp3996
g61
(dp3997
g69
I3
ssg70
g3991
sg63
(lp3998
g56
(g65
g58
NtRp3999
(dp4000
g61
(dp4001
g69
I2
ssg70
Nsg63
(lp4002
g56
(g72
g58
NtRp4003
(dp4004
g61
(dp4005
sg70
g3999
sg63
(lp4006
g56
(g77
g58
NtRp4007
(dp4008
g61
(dp4009
sg70
g4003
sg63
(lp4010
g56
(g57
g58
NtRp4011
(dp4012
g61
(dp4013
g69
I2
ssg70
g4007
sg63
(lp4014
g56
(g65
g58
NtRp4015
(dp4016
g61
(dp4017
g69
I1
ssg70
Nsg63
(lp4018
g56
(g72
g58
NtRp4019
(dp4020
g61
(dp4021
sg70
g4015
sg63
(lp4022
g56
(g77
g58
NtRp4023
(dp4024
g61
(dp4025
sg70
g4019
sg63
(lp4026
g56
(g57
g58
NtRp4027
(dp4028
g61
(dp4029
g69
I1
ssg70
g4023
sg63
(lp4030
g3334
(S's\r\x00\x00\x00Documentation'
tRp4031
asbasbasbag56
(g72
g58
NtRp4032
(dp4033
g61
(dp4034
sg70
g4015
sg63
(lp4035
g56
(g77
g58
NtRp4036
(dp4037
g61
(dp4038
sg70
g4032
sg63
(lp4039
g56
(g57
g58
NtRp4040
(dp4041
g61
(dp4042
g69
I1
ssg70
g4036
sg63
(lp4043
I00
asbasbasbag56
(g72
g58
NtRp4044
(dp4045
g61
(dp4046
sg70
g4015
sg63
(lp4047
g56
(g77
g58
NtRp4048
(dp4049
g61
(dp4050
sg70
g4044
sg63
(lp4051
g56
(g57
g58
NtRp4052
(dp4053
g61
(dp4054
g69
I1
ssg70
g4048
sg63
(lp4055
S'http://www.web2py.com/book'
p4056
asbasbasbag56
(g72
g58
NtRp4057
(dp4058
g61
(dp4059
sg70
g4015
sg63
(lp4060
g56
(g77
g58
NtRp4061
(dp4062
g61
(dp4063
sg70
g4057
sg63
(lp4064
g56
(g57
g58
NtRp4065
(dp4066
g61
(dp4067
g69
I1
ssg70
g4061
sg63
(lp4068
(lp4069
(g3334
(S's\x07\x00\x00\x00Preface'
tRp4070
I00
S'http://www.web2py.com/book/default/chapter/00'
p4071
tp4072
a(g3334
(S's\x0c\x00\x00\x00Introduction'
tRp4073
I00
S'http://www.web2py.com/book/default/chapter/01'
p4074
tp4075
a(g3334
(S's\x06\x00\x00\x00Python'
tRp4076
I00
S'http://www.web2py.com/book/default/chapter/02'
p4077
tp4078
a(g3334
(S's\x08\x00\x00\x00Overview'
tRp4079
I00
S'http://www.web2py.com/book/default/chapter/03'
p4080
tp4081
a(g3334
(S's\x08\x00\x00\x00The Core'
tRp4082
I00
S'http://www.web2py.com/book/default/chapter/04'
p4083
tp4084
a(g3334
(S's\t\x00\x00\x00The Views'
tRp4085
I00
S'http://www.web2py.com/book/default/chapter/05'
p4086
tp4087
a(g3334
(S's\x08\x00\x00\x00Database'
tRp4088
I00
S'http://www.web2py.com/book/default/chapter/06'
p4089
tp4090
a(g3334
(S's\x14\x00\x00\x00Forms and Validators'
tRp4091
I00
S'http://www.web2py.com/book/default/chapter/07'
p4092
tp4093
a(g3334
(S's\x0e\x00\x00\x00Access Control'
tRp4094
I00
S'http://www.web2py.com/book/default/chapter/08'
p4095
tp4096
a(g3334
(S's\x08\x00\x00\x00Services'
tRp4097
I00
S'http://www.web2py.com/book/default/chapter/09'
p4098
tp4099
a(g3334
(S's\x0c\x00\x00\x00Ajax Recipes'
tRp4100
I00
S'http://www.web2py.com/book/default/chapter/10'
p4101
tp4102
a(g3334
(S's\x12\x00\x00\x00Deployment Recipes'
tRp4103
I00
S'http://www.web2py.com/book/default/chapter/11'
p4104
tp4105
a(g3334
(S's\r\x00\x00\x00Other Recipes'
tRp4106
I00
S'http://www.web2py.com/book/default/chapter/12'
p4107
tp4108
a(g3334
(S's\r\x00\x00\x00Buy this book'
tRp4109
I00
S'http://stores.lulu.com/web2py'
p4110
tp4111
aasbasbasbasbasbasbasbag56
(g72
g58
NtRp4112
(dp4113
g61
(dp4114
sg70
g3999
sg63
(lp4115
g56
(g77
g58
NtRp4116
(dp4117
g61
(dp4118
sg70
g4112
sg63
(lp4119
g56
(g57
g58
NtRp4120
(dp4121
g61
(dp4122
g69
I2
ssg70
g4116
sg63
(lp4123
g56
(g65
g58
NtRp4124
(dp4125
g61
(dp4126
g69
I1
ssg70
Nsg63
(lp4127
g56
(g72
g58
NtRp4128
(dp4129
g61
(dp4130
sg70
g4124
sg63
(lp4131
g56
(g77
g58
NtRp4132
(dp4133
g61
(dp4134
sg70
g4128
sg63
(lp4135
g56
(g57
g58
NtRp4136
(dp4137
g61
(dp4138
g69
I1
ssg70
g4132
sg63
(lp4139
g3334
(S's\t\x00\x00\x00Community'
tRp4140
asbasbasbag56
(g72
g58
NtRp4141
(dp4142
g61
(dp4143
sg70
g4124
sg63
(lp4144
g56
(g77
g58
NtRp4145
(dp4146
g61
(dp4147
sg70
g4141
sg63
(lp4148
g56
(g57
g58
NtRp4149
(dp4150
g61
(dp4151
g69
I1
ssg70
g4145
sg63
(lp4152
I00
asbasbasbag56
(g72
g58
NtRp4153
(dp4154
g61
(dp4155
sg70
g4124
sg63
(lp4156
g56
(g77
g58
NtRp4157
(dp4158
g61
(dp4159
sg70
g4153
sg63
(lp4160
g56
(g57
g58
NtRp4161
(dp4162
g61
(dp4163
g69
I1
ssg70
g4157
sg63
(lp4164
Nasbasbasbag56
(g72
g58
NtRp4165
(dp4166
g61
(dp4167
sg70
g4124
sg63
(lp4168
g56
(g77
g58
NtRp4169
(dp4170
g61
(dp4171
sg70
g4165
sg63
(lp4172
g56
(g57
g58
NtRp4173
(dp4174
g61
(dp4175
g69
I1
ssg70
g4169
sg63
(lp4176
(lp4177
(g3334
(S's\x06\x00\x00\x00Groups'
tRp4178
I00
S'http://www.web2py.com/examples/default/usergroups'
p4179
tp4180
a(g3334
(S's\x07\x00\x00\x00Twitter'
tRp4181
I00
S'http://twitter.com/web2py'
p4182
tp4183
a(g3334
(S's\t\x00\x00\x00Live chat'
tRp4184
I00
S'http://mibbit.com/?channel=%23web2py&server=irc.mibbit.net'
p4185
tp4186
a(g3334
(S's\n\x00\x00\x00User Voice'
tRp4187
I00
S'http://web2py.uservoice.com/'
p4188
tp4189
aasbasbasbasbasbasbasbag56
(g72
g58
NtRp4190
(dp4191
g61
(dp4192
sg70
g3999
sg63
(lp4193
g56
(g77
g58
NtRp4194
(dp4195
g61
(dp4196
sg70
g4190
sg63
(lp4197
g56
(g57
g58
NtRp4198
(dp4199
g61
(dp4200
g69
I2
ssg70
g4194
sg63
(lp4201
g56
(g65
g58
NtRp4202
(dp4203
g61
(dp4204
g69
I1
ssg70
Nsg63
(lp4205
g56
(g72
g58
NtRp4206
(dp4207
g61
(dp4208
sg70
g4202
sg63
(lp4209
g56
(g77
g58
NtRp4210
(dp4211
g61
(dp4212
sg70
g4206
sg63
(lp4213
g56
(g57
g58
NtRp4214
(dp4215
g61
(dp4216
g69
I1
ssg70
g4210
sg63
(lp4217
g3334
(S's\x06\x00\x00\x00Web2py'
tRp4218
asbasbasbag56
(g72
g58
NtRp4219
(dp4220
g61
(dp4221
sg70
g4202
sg63
(lp4222
g56
(g77
g58
NtRp4223
(dp4224
g61
(dp4225
sg70
g4219
sg63
(lp4226
g56
(g57
g58
NtRp4227
(dp4228
g61
(dp4229
g69
I1
ssg70
g4223
sg63
(lp4230
I00
asbasbasbag56
(g72
g58
NtRp4231
(dp4232
g61
(dp4233
sg70
g4202
sg63
(lp4234
g56
(g77
g58
NtRp4235
(dp4236
g61
(dp4237
sg70
g4231
sg63
(lp4238
g56
(g57
g58
NtRp4239
(dp4240
g61
(dp4241
g69
I1
ssg70
g4235
sg63
(lp4242
S'http://www.web2py.com'
p4243
asbasbasbag56
(g72
g58
NtRp4244
(dp4245
g61
(dp4246
sg70
g4202
sg63
(lp4247
g56
(g77
g58
NtRp4248
(dp4249
g61
(dp4250
sg70
g4244
sg63
(lp4251
g56
(g57
g58
NtRp4252
(dp4253
g61
(dp4254
g69
I1
ssg70
g4248
sg63
(lp4255
(lp4256
(g3334
(S's\x08\x00\x00\x00Download'
tRp4257
I00
S'http://www.web2py.com/examples/default/download'
p4258
tp4259
a(g3334
(S's\x07\x00\x00\x00Support'
tRp4260
I00
S'http://www.web2py.com/examples/default/support'
p4261
tp4262
a(g3334
(S's\x0e\x00\x00\x00Quick Examples'
tRp4263
I00
S'http://web2py.com/examples/default/examples'
p4264
tp4265
a(g3334
(S's\x03\x00\x00\x00FAQ'
tRp4266
I00
S'http://web2py.com/AlterEgo'
p4267
tp4268
a(g3334
(S's\x11\x00\x00\x00Free Applications'
tRp4269
I00
S'http://web2py.com/appliances'
p4270
tp4271
a(g3334
(S's\x07\x00\x00\x00Plugins'
tRp4272
I00
S'http://web2py.com/plugins'
p4273
tp4274
a(g3334
(S's\x07\x00\x00\x00Recipes'
tRp4275
I00
S'http://web2pyslices.com/'
p4276
tp4277
a(g3334
(S's\x04\x00\x00\x00Demo'
tRp4278
I00
S'http://web2py.com/demo_admin'
p4279
tp4280
a(g3334
(S's\x08\x00\x00\x00Semantic'
tRp4281
I00
S'http://web2py.com/semantic'
p4282
tp4283
a(g3334
(S's\x07\x00\x00\x00Layouts'
tRp4284
I00
S'http://web2py.com/layouts'
p4285
tp4286
a(g3334
(S's\x06\x00\x00\x00Videos'
tRp4287
I00
S'http://www.web2py.com/examples/default/videos/'
p4288
tp4289
aasbasbasbasbasbasbasbasbasbasbasbasbasbasbasbasbasbasbasbag56
(g72
g58
NtRp4290
(dp4291
g61
(dp4292
sg70
g2829
sg63
(lp4293
g56
(g77
g58
NtRp4294
(dp4295
g61
(dp4296
g81
g82
ssg70
g4290
sg63
(lp4297
S'meta'
p4298
asbag56
(g77
g58
NtRp4299
(dp4300
g61
(dp4301
g88
g89
ssg70
g4290
sg63
(lp4302
S':'
asbag56
(g77
g58
NtRp4303
(dp4304
g61
(dp4305
sg70
g4290
sg63
(lp4306
g56
(g57
g58
NtRp4307
(dp4308
g61
(dp4309
g69
I5
ssg70
g4303
sg63
(lp4310
g56
(g65
g58
NtRp4311
(dp4312
g61
(dp4313
g69
I4
ssg70
Nsg63
(lp4314
g56
(g72
g58
NtRp4315
(dp4316
g61
(dp4317
sg70
g4311
sg63
(lp4318
g56
(g77
g58
NtRp4319
(dp4320
g61
(dp4321
g81
g82
ssg70
g4315
sg63
(lp4322
S'author'
p4323
asbag56
(g77
g58
NtRp4324
(dp4325
g61
(dp4326
g88
g89
ssg70
g4315
sg63
(lp4327
S':'
asbag56
(g77
g58
NtRp4328
(dp4329
g61
(dp4330
sg70
g4315
sg63
(lp4331
g56
(g57
g58
NtRp4332
(dp4333
g61
(dp4334
g69
I4
ssg70
g4328
sg63
(lp4335
S'Your Name <you@example.com>'
p4336
asbasbasbag56
(g72
g58
NtRp4337
(dp4338
g61
(dp4339
sg70
g4311
sg63
(lp4340
g56
(g77
g58
NtRp4341
(dp4342
g61
(dp4343
g81
g82
ssg70
g4337
sg63
(lp4344
S'copyright'
p4345
asbag56
(g77
g58
NtRp4346
(dp4347
g61
(dp4348
g88
g89
ssg70
g4337
sg63
(lp4349
S':'
asbag56
(g77
g58
NtRp4350
(dp4351
g61
(dp4352
sg70
g4337
sg63
(lp4353
g56
(g57
g58
NtRp4354
(dp4355
g61
(dp4356
g69
I4
ssg70
g4350
sg63
(lp4357
S'Copyright 2011'
p4358
asbasbasbag56
(g72
g58
NtRp4359
(dp4360
g61
(dp4361
sg70
g4311
sg63
(lp4362
g56
(g77
g58
NtRp4363
(dp4364
g61
(dp4365
g81
g82
ssg70
g4359
sg63
(lp4366
S'description'
p4367
asbag56
(g77
g58
NtRp4368
(dp4369
g61
(dp4370
g88
g89
ssg70
g4359
sg63
(lp4371
S':'
asbag56
(g77
g58
NtRp4372
(dp4373
g61
(dp4374
sg70
g4359
sg63
(lp4375
g56
(g57
g58
NtRp4376
(dp4377
g61
(dp4378
g69
I4
ssg70
g4372
sg63
(lp4379
S'a cool new app'
p4380
asbasbasbag56
(g72
g58
NtRp4381
(dp4382
g61
(dp4383
sg70
g4311
sg63
(lp4384
g56
(g77
g58
NtRp4385
(dp4386
g61
(dp4387
g81
g82
ssg70
g4381
sg63
(lp4388
S'generator'
p4389
asbag56
(g77
g58
NtRp4390
(dp4391
g61
(dp4392
g88
g89
ssg70
g4381
sg63
(lp4393
S':'
asbag56
(g77
g58
NtRp4394
(dp4395
g61
(dp4396
sg70
g4381
sg63
(lp4397
g56
(g57
g58
NtRp4398
(dp4399
g61
(dp4400
g69
I4
ssg70
g4394
sg63
(lp4401
S'Web2py Web Framework'
p4402
asbasbasbag56
(g72
g58
NtRp4403
(dp4404
g61
(dp4405
sg70
g4311
sg63
(lp4406
g56
(g77
g58
NtRp4407
(dp4408
g61
(dp4409
g81
g82
ssg70
g4403
sg63
(lp4410
S'keywords'
p4411
asbag56
(g77
g58
NtRp4412
(dp4413
g61
(dp4414
g88
g89
ssg70
g4403
sg63
(lp4415
S':'
asbag56
(g77
g58
NtRp4416
(dp4417
g61
(dp4418
sg70
g4403
sg63
(lp4419
g56
(g57
g58
NtRp4420
(dp4421
g61
(dp4422
g69
I4
ssg70
g4416
sg63
(lp4423
S'web2py, python, framework'
p4424
asbasbasbasbasbasbasbag56
(g72
g58
NtRp4425
(dp4426
g61
(dp4427
sg70
g2829
sg63
(lp4428
g56
(g77
g58
NtRp4429
(dp4430
g61
(dp4431
g81
g82
ssg70
g4425
sg63
(lp4432
S'postprocessing'
p4433
asbag56
(g77
g58
NtRp4434
(dp4435
g61
(dp4436
g88
g89
ssg70
g4425
sg63
(lp4437
S':'
asbag56
(g77
g58
NtRp4438
(dp4439
g61
(dp4440
sg70
g4425
sg63
(lp4441
g56
(g57
g58
NtRp4442
(dp4443
g61
(dp4444
g69
I5
ssg70
g4438
sg63
(lp4445
g56
(g65
g58
NtRp4446
(dp4447
g61
(dp4448
g69
I4
ssg70
Nsg63
(lp4449
sbasbasbasbag56
(g72
g58
NtRp4450
(dp4451
g61
(dp4452
sg70
g2829
sg63
(lp4453
g56
(g77
g58
NtRp4454
(dp4455
g61
(dp4456
g81
g82
ssg70
g4450
sg63
(lp4457
S'session_file'
p4458
asbag56
(g77
g58
NtRp4459
(dp4460
g61
(dp4461
g88
g89
ssg70
g4450
sg63
(lp4462
S':'
asbag56
(g77
g58
NtRp4463
(dp4464
g61
(dp4465
sg70
g4450
sg63
(lp4466
g56
(g57
g58
NtRp4467
(dp4468
g61
(dp4469
g69
I5
ssg70
g4463
sg63
(lp4470
S"<open file '/Users/excon/Sites/dreamscape/applications/welcome/sessions/127.0.0.1-51cc951f-9f8f-44c6-96d8-bac94161d020', mode 'rb+' at 0x10100ce00>"
p4471
asbasbasbag56
(g72
g58
NtRp4472
(dp4473
g61
(dp4474
sg70
g2829
sg63
(lp4475
g56
(g77
g58
NtRp4476
(dp4477
g61
(dp4478
g81
g82
ssg70
g4472
sg63
(lp4479
S'session_filename'
p4480
asbag56
(g77
g58
NtRp4481
(dp4482
g61
(dp4483
g88
g89
ssg70
g4472
sg63
(lp4484
S':'
asbag56
(g77
g58
NtRp4485
(dp4486
g61
(dp4487
sg70
g4472
sg63
(lp4488
g56
(g57
g58
NtRp4489
(dp4490
g61
(dp4491
g69
I5
ssg70
g4485
sg63
(lp4492
S'/Users/excon/Sites/dreamscape/applications/welcome/sessions/127.0.0.1-51cc951f-9f8f-44c6-96d8-bac94161d020'
p4493
asbasbasbag56
(g72
g58
NtRp4494
(dp4495
g61
(dp4496
sg70
g2829
sg63
(lp4497
g56
(g77
g58
NtRp4498
(dp4499
g61
(dp4500
g81
g82
ssg70
g4494
sg63
(lp4501
S'session_id'
p4502
asbag56
(g77
g58
NtRp4503
(dp4504
g61
(dp4505
g88
g89
ssg70
g4494
sg63
(lp4506
S':'
asbag56
(g77
g58
NtRp4507
(dp4508
g61
(dp4509
sg70
g4494
sg63
(lp4510
g56
(g57
g58
NtRp4511
(dp4512
g61
(dp4513
g69
I5
ssg70
g4507
sg63
(lp4514
S'127.0.0.1-51cc951f-9f8f-44c6-96d8-bac94161d020'
p4515
asbasbasbag56
(g72
g58
NtRp4516
(dp4517
g61
(dp4518
sg70
g2829
sg63
(lp4519
g56
(g77
g58
NtRp4520
(dp4521
g61
(dp4522
g81
g82
ssg70
g4516
sg63
(lp4523
S'session_id_name'
p4524
asbag56
(g77
g58
NtRp4525
(dp4526
g61
(dp4527
g88
g89
ssg70
g4516
sg63
(lp4528
S':'
asbag56
(g77
g58
NtRp4529
(dp4530
g61
(dp4531
sg70
g4516
sg63
(lp4532
g56
(g57
g58
NtRp4533
(dp4534
g61
(dp4535
g69
I5
ssg70
g4529
sg63
(lp4536
g2886
asbasbasbag56
(g72
g58
NtRp4537
(dp4538
g61
(dp4539
sg70
g2829
sg63
(lp4540
g56
(g77
g58
NtRp4541
(dp4542
g61
(dp4543
g81
g82
ssg70
g4537
sg63
(lp4544
S'session_locked'
p4545
asbag56
(g77
g58
NtRp4546
(dp4547
g61
(dp4548
g88
g89
ssg70
g4537
sg63
(lp4549
S':'
asbag56
(g77
g58
NtRp4550
(dp4551
g61
(dp4552
sg70
g4537
sg63
(lp4553
g56
(g57
g58
NtRp4554
(dp4555
g61
(dp4556
g69
I5
ssg70
g4550
sg63
(lp4557
g1449
asbasbasbag56
(g72
g58
NtRp4558
(dp4559
g61
(dp4560
sg70
g2829
sg63
(lp4561
g56
(g77
g58
NtRp4562
(dp4563
g61
(dp4564
g81
g82
ssg70
g4558
sg63
(lp4565
S'session_new'
p4566
asbag56
(g77
g58
NtRp4567
(dp4568
g61
(dp4569
g88
g89
ssg70
g4558
sg63
(lp4570
S':'
asbag56
(g77
g58
NtRp4571
(dp4572
g61
(dp4573
sg70
g4558
sg63
(lp4574
g56
(g57
g58
NtRp4575
(dp4576
g61
(dp4577
g69
I5
ssg70
g4571
sg63
(lp4578
g99
asbasbasbag56
(g72
g58
NtRp4579
(dp4580
g61
(dp4581
sg70
g2829
sg63
(lp4582
g56
(g77
g58
NtRp4583
(dp4584
g61
(dp4585
g81
g82
ssg70
g4579
sg63
(lp4586
S'status'
p4587
asbag56
(g77
g58
NtRp4588
(dp4589
g61
(dp4590
g88
g89
ssg70
g4579
sg63
(lp4591
S':'
asbag56
(g77
g58
NtRp4592
(dp4593
g61
(dp4594
sg70
g4579
sg63
(lp4595
g56
(g57
g58
NtRp4596
(dp4597
g61
(dp4598
g69
I5
ssg70
g4592
sg63
(lp4599
S'200'
p4600
asbasbasbag56
(g72
g58
NtRp4601
(dp4602
g61
(dp4603
sg70
g2829
sg63
(lp4604
g56
(g77
g58
NtRp4605
(dp4606
g61
(dp4607
g81
g82
ssg70
g4601
sg63
(lp4608
S'subtitle'
p4609
asbag56
(g77
g58
NtRp4610
(dp4611
g61
(dp4612
g88
g89
ssg70
g4601
sg63
(lp4613
S':'
asbag56
(g77
g58
NtRp4614
(dp4615
g61
(dp4616
sg70
g4601
sg63
(lp4617
g56
(g57
g58
NtRp4618
(dp4619
g61
(dp4620
g69
I5
ssg70
g4614
sg63
(lp4621
g3334
(S's\r\x00\x00\x00customize me!'
tRp4622
asbasbasbag56
(g72
g58
NtRp4623
(dp4624
g61
(dp4625
sg70
g2829
sg63
(lp4626
g56
(g77
g58
NtRp4627
(dp4628
g61
(dp4629
g81
g82
ssg70
g4623
sg63
(lp4630
S'title'
p4631
asbag56
(g77
g58
NtRp4632
(dp4633
g61
(dp4634
g88
g89
ssg70
g4623
sg63
(lp4635
S':'
asbag56
(g77
g58
NtRp4636
(dp4637
g61
(dp4638
sg70
g4623
sg63
(lp4639
g56
(g57
g58
NtRp4640
(dp4641
g61
(dp4642
g69
I5
ssg70
g4636
sg63
(lp4643
g121
asbasbasbag56
(g72
g58
NtRp4644
(dp4645
g61
(dp4646
sg70
g2829
sg63
(lp4647
g56
(g77
g58
NtRp4648
(dp4649
g61
(dp4650
g81
g82
ssg70
g4644
sg63
(lp4651
g2093
asbag56
(g77
g58
NtRp4652
(dp4653
g61
(dp4654
g88
g89
ssg70
g4644
sg63
(lp4655
S':'
asbag56
(g77
g58
NtRp4656
(dp4657
g61
(dp4658
sg70
g4644
sg63
(lp4659
g56
(g57
g58
NtRp4660
(dp4661
g61
(dp4662
g69
I5
ssg70
g4656
sg63
(lp4663
g2106
asbasbasbag56
(g72
g58
NtRp4664
(dp4665
g61
(dp4666
sg70
g2829
sg63
(lp4667
g56
(g77
g58
NtRp4668
(dp4669
g61
(dp4670
g81
g82
ssg70
g4664
sg63
(lp4671
S'view'
p4672
asbag56
(g77
g58
NtRp4673
(dp4674
g61
(dp4675
g88
g89
ssg70
g4664
sg63
(lp4676
S':'
asbag56
(g77
g58
NtRp4677
(dp4678
g61
(dp4679
sg70
g4664
sg63
(lp4680
g56
(g57
g58
NtRp4681
(dp4682
g61
(dp4683
g69
I5
ssg70
g4677
sg63
(lp4684
S'default/index.html'
p4685
asbasbasbasbasbsS'locals'
p4686
(dp4687
ssS'traceback'
p4688
S'Traceback (most recent call last):\n  File "/Users/excon/Sites/dreamscape/gluon/restricted.py", line 194, in restricted\n    exec ccode in environment\n  File "/Users/excon/Sites/dreamscape/applications/welcome/controllers/default.py", line 85, in <module>\n  File "/Users/excon/Sites/dreamscape/gluon/globals.py", line 149, in <lambda>\n    self._caller = lambda f: f()\n  File "/Users/excon/Sites/dreamscape/applications/welcome/controllers/default.py", line 17, in index\n    if COMING_SOON:\nNameError: global name \'COMING_SOON\' is not defined\n'
p4689
s.