(dp1
S'output'
p2
S''
sS'layer'
p3
S'/Users/excon/Sites/dreamscape/applications/welcome/controllers/default.py'
p4
sS'code'
p5
S'# -*- coding: utf-8 -*-\n# this file is released under public domain and you can use without limitations\n\n#########################################################################\n## This is a samples controller\n## - index is the default action of any application\n## - user is required for authentication and authorization\n## - download is for downloading files uploaded in the db (does streaming)\n## - call exposes all registered services (none by default)\n#########################################################################\n\nCOMING_SOON = False\n\ndef index():\n    """\n    example action using the internationalization operator T and flash\n    rendered by views/default/index.html or views/generic.html\n    """\n    if COMING_SOON:\n        redirect(URL(r=request, f=\'coming_soon\'))\n        \n    return dict()\n    \ndef coming_soon():\n    form = SQLFORM.factory(db.invitation, submit_button=\'DREAM\', formstyle=\'table3cols\')\n            \n    if form.process().accepted:\n        db.invitation.insert(email=form.vars.email)\n        response.flash = \'You have wonderful dreams!\'\n    elif form.errors:\n        response.flash = \'Invalid Email\'\n    else:\n        response.flash = \'Type your email\'\n        \n    return dict(form=form)\n\ndef user():\n    """\n    exposes:\n    http://..../[app]/default/user/login\n    http://..../[app]/default/user/logout\n    http://..../[app]/default/user/register\n    http://..../[app]/default/user/profile\n    http://..../[app]/default/user/retrieve_password\n    http://..../[app]/default/user/change_password\n    use @auth.requires_login()\n        @auth.requires_membership(\'group name\')\n        @auth.requires_permission(\'read\',\'table name\',record_id)\n    to decorate functions that need access control\n    """\n    if COMING_SOON:\n        redirect(URL(r=request, f=\'coming_soon\'))\n        \n    return dict(form=auth(next=URL(r=request, f=\'comint_soon\')))\n\n\ndef download():\n    """\n    allows downloading of uploaded files\n    http://..../[app]/default/download/[filename]\n    """\n    if COMING_SOON:\n        redirect(URL(r=request, f=\'coming_soon\'))\n    return response.download(request,db)\n\n\ndef call():\n    """\n    exposes services. for example:\n    http://..../[app]/default/call/jsonrpc\n    decorate with @services.jsonrpc the functions to expose\n    supports xml, json, xmlrpc, jsonrpc, amfrpc, rss, csv\n    """\n    if COMING_SOON:\n        redirect(URL(r=request, f=\'coming_soon\'))\n    return service()\n\n\n@auth.requires_signature()\ndef data():\n    """\n    http://..../[app]/default/data/tables\n    http://..../[app]/default/data/create/[table]\n    http://..../[app]/default/data/read/[table]/[id]\n    http://..../[app]/default/data/update/[table]/[id]\n    http://..../[app]/default/data/delete/[table]/[id]\n    http://..../[app]/default/data/select/[table]\n    http://..../[app]/default/data/search/[table]\n    but URLs bust be signed, i.e. linked with\n      A(\'table\',_href=URL(\'data/tables\',user_signature=True))\n    or with the signed load operator\n      LOAD(\'default\',\'data.load\',args=\'tables\',ajax=True,user_signature=True)\n    """\n    if COMING_SOON:\n        redirect(URL(r=request, f=\'coming_soon\'))\n    return dict(form=crud())\n\nresponse._vars=response._caller(user)\n'
p6
sS'snapshot'
p7
(dp8
S'exception'
p9
(dp10
S'__hash__'
p11
S"<method-wrapper '__hash__' of exceptions.TypeError object at 0x101a4f710>"
p12
sS'__setattr__'
p13
S"<method-wrapper '__setattr__' of exceptions.TypeError object at 0x101a4f710>"
p14
sS'__reduce_ex__'
p15
S'<built-in method __reduce_ex__ of exceptions.TypeError object at 0x101a4f710>'
p16
sS'__getslice__'
p17
S"<method-wrapper '__getslice__' of exceptions.TypeError object at 0x101a4f710>"
p18
sS'__getitem__'
p19
S"<method-wrapper '__getitem__' of exceptions.TypeError object at 0x101a4f710>"
p20
sS'__setstate__'
p21
S'<built-in method __setstate__ of exceptions.TypeError object at 0x101a4f710>'
p22
sS'args'
p23
S'("__call__() got an unexpected keyword argument \'next\'",)'
p24
sS'__reduce__'
p25
S'<built-in method __reduce__ of exceptions.TypeError object at 0x101a4f710>'
p26
sS'__str__'
p27
S"<method-wrapper '__str__' of exceptions.TypeError object at 0x101a4f710>"
p28
sS'__format__'
p29
S'<built-in method __format__ of exceptions.TypeError object at 0x101a4f710>'
p30
sS'__getattribute__'
p31
S"<method-wrapper '__getattribute__' of exceptions.TypeError object at 0x101a4f710>"
p32
sS'__class__'
p33
S"<type 'exceptions.TypeError'>"
p34
sS'__unicode__'
p35
S'<built-in method __unicode__ of exceptions.TypeError object at 0x101a4f710>'
p36
sS'__delattr__'
p37
S"<method-wrapper '__delattr__' of exceptions.TypeError object at 0x101a4f710>"
p38
sS'__subclasshook__'
p39
S'<built-in method __subclasshook__ of type object at 0x10011a2c0>'
p40
sS'__repr__'
p41
S"<method-wrapper '__repr__' of exceptions.TypeError object at 0x101a4f710>"
p42
sS'__dict__'
p43
S'{}'
p44
sS'__sizeof__'
p45
S'<built-in method __sizeof__ of exceptions.TypeError object at 0x101a4f710>'
p46
sS'__doc__'
p47
S"'Inappropriate argument type.'"
p48
sS'__init__'
p49
S"<method-wrapper '__init__' of exceptions.TypeError object at 0x101a4f710>"
p50
sS'__new__'
p51
S'<built-in method __new__ of type object at 0x10011a2c0>'
p52
ssS'evalue'
p53
S"__call__() got an unexpected keyword argument 'next'"
p54
sS'request'
p55
ccopy_reg
_reconstructor
p56
(cgluon.html
BEAUTIFY
p57
c__builtin__
object
p58
NtRp59
(dp60
S'attributes'
p61
(dp62
sS'components'
p63
(lp64
g56
(cgluon.html
TABLE
p65
g58
NtRp66
(dp67
g61
(dp68
S'level'
p69
I5
ssS'parent'
p70
Nsg63
(lp71
g56
(cgluon.html
TR
p72
g58
NtRp73
(dp74
g61
(dp75
sg70
g66
sg63
(lp76
g56
(cgluon.html
TD
p77
g58
NtRp78
(dp79
g61
(dp80
S'_style'
p81
S'font-weight:bold;'
p82
ssg70
g73
sg63
(lp83
S'ajax'
p84
asbag56
(g77
g58
NtRp85
(dp86
g61
(dp87
S'_valign'
p88
S'top'
p89
ssg70
g73
sg63
(lp90
S':'
asbag56
(g77
g58
NtRp91
(dp92
g61
(dp93
sg70
g73
sg63
(lp94
g56
(g57
g58
NtRp95
(dp96
g61
(dp97
g69
I5
ssg70
g91
sg63
(lp98
S'False'
p99
asbasbasbag56
(g72
g58
NtRp100
(dp101
g61
(dp102
sg70
g66
sg63
(lp103
g56
(g77
g58
NtRp104
(dp105
g61
(dp106
g81
g82
ssg70
g100
sg63
(lp107
S'application'
p108
asbag56
(g77
g58
NtRp109
(dp110
g61
(dp111
g88
g89
ssg70
g100
sg63
(lp112
S':'
asbag56
(g77
g58
NtRp113
(dp114
g61
(dp115
sg70
g100
sg63
(lp116
g56
(g57
g58
NtRp117
(dp118
g61
(dp119
g69
I5
ssg70
g113
sg63
(lp120
S'welcome'
p121
asbasbasbag56
(g72
g58
NtRp122
(dp123
g61
(dp124
sg70
g66
sg63
(lp125
g56
(g77
g58
NtRp126
(dp127
g61
(dp128
g81
g82
ssg70
g122
sg63
(lp129
g23
asbag56
(g77
g58
NtRp130
(dp131
g61
(dp132
g88
g89
ssg70
g122
sg63
(lp133
S':'
asbag56
(g77
g58
NtRp134
(dp135
g61
(dp136
sg70
g122
sg63
(lp137
g56
(g57
g58
NtRp138
(dp139
g61
(dp140
g69
I5
ssg70
g134
sg63
(lp141
g56
(g65
g58
NtRp142
(dp143
g61
(dp144
g69
I4
ssg70
Nsg63
(lp145
g56
(g72
g58
NtRp146
(dp147
g61
(dp148
sg70
g142
sg63
(lp149
g56
(g77
g58
NtRp150
(dp151
g61
(dp152
sg70
g146
sg63
(lp153
g56
(g57
g58
NtRp154
(dp155
g61
(dp156
g69
I4
ssg70
g150
sg63
(lp157
S'register'
p158
asbasbasbasbasbasbasbag56
(g72
g58
NtRp159
(dp160
g61
(dp161
sg70
g66
sg63
(lp162
g56
(g77
g58
NtRp163
(dp164
g61
(dp165
g81
g82
ssg70
g159
sg63
(lp166
S'body'
p167
asbag56
(g77
g58
NtRp168
(dp169
g61
(dp170
g88
g89
ssg70
g159
sg63
(lp171
S':'
asbag56
(g77
g58
NtRp172
(dp173
g61
(dp174
sg70
g159
sg63
(lp175
g56
(g57
g58
NtRp176
(dp177
g61
(dp178
g69
I5
ssg70
g172
sg63
(lp179
S'<cStringIO.StringO object at 0x101acaea0>'
p180
asbasbasbag56
(g72
g58
NtRp181
(dp182
g61
(dp183
sg70
g66
sg63
(lp184
g56
(g77
g58
NtRp185
(dp186
g61
(dp187
g81
g82
ssg70
g181
sg63
(lp188
S'client'
p189
asbag56
(g77
g58
NtRp190
(dp191
g61
(dp192
g88
g89
ssg70
g181
sg63
(lp193
S':'
asbag56
(g77
g58
NtRp194
(dp195
g61
(dp196
sg70
g181
sg63
(lp197
g56
(g57
g58
NtRp198
(dp199
g61
(dp200
g69
I5
ssg70
g194
sg63
(lp201
S'127.0.0.1'
p202
asbasbasbag56
(g72
g58
NtRp203
(dp204
g61
(dp205
sg70
g66
sg63
(lp206
g56
(g77
g58
NtRp207
(dp208
g61
(dp209
g81
g82
ssg70
g203
sg63
(lp210
S'controller'
p211
asbag56
(g77
g58
NtRp212
(dp213
g61
(dp214
g88
g89
ssg70
g203
sg63
(lp215
S':'
asbag56
(g77
g58
NtRp216
(dp217
g61
(dp218
sg70
g203
sg63
(lp219
g56
(g57
g58
NtRp220
(dp221
g61
(dp222
g69
I5
ssg70
g216
sg63
(lp223
S'default'
p224
asbasbasbag56
(g72
g58
NtRp225
(dp226
g61
(dp227
sg70
g66
sg63
(lp228
g56
(g77
g58
NtRp229
(dp230
g61
(dp231
g81
g82
ssg70
g225
sg63
(lp232
S'cookies'
p233
asbag56
(g77
g58
NtRp234
(dp235
g61
(dp236
g88
g89
ssg70
g225
sg63
(lp237
S':'
asbag56
(g77
g58
NtRp238
(dp239
g61
(dp240
sg70
g225
sg63
(lp241
g56
(g57
g58
NtRp242
(dp243
g61
(dp244
g69
I5
ssg70
g238
sg63
(lp245
g56
(g65
g58
NtRp246
(dp247
g61
(dp248
g69
I4
ssg70
Nsg63
(lp249
g56
(g72
g58
NtRp250
(dp251
g61
(dp252
sg70
g246
sg63
(lp253
g56
(g77
g58
NtRp254
(dp255
g61
(dp256
g81
g82
ssg70
g250
sg63
(lp257
S'session_id_admin'
p258
asbag56
(g77
g58
NtRp259
(dp260
g61
(dp261
g88
g89
ssg70
g250
sg63
(lp262
S':'
asbag56
(g77
g58
NtRp263
(dp264
g61
(dp265
sg70
g250
sg63
(lp266
g56
(g57
g58
NtRp267
(dp268
g61
(dp269
g69
I4
ssg70
g263
sg63
(lp270
g56
(g65
g58
NtRp271
(dp272
g61
(dp273
g69
I3
ssg70
Nsg63
(lp274
g56
(g72
g58
NtRp275
(dp276
g61
(dp277
sg70
g271
sg63
(lp278
g56
(g77
g58
NtRp279
(dp280
g61
(dp281
g81
g82
ssg70
g275
sg63
(lp282
S'comment'
p283
asbag56
(g77
g58
NtRp284
(dp285
g61
(dp286
g88
g89
ssg70
g275
sg63
(lp287
S':'
asbag56
(g77
g58
NtRp288
(dp289
g61
(dp290
sg70
g275
sg63
(lp291
g56
(g57
g58
NtRp292
(dp293
g61
(dp294
g69
I3
ssg70
g288
sg63
(lp295
S''
asbasbasbag56
(g72
g58
NtRp296
(dp297
g61
(dp298
sg70
g271
sg63
(lp299
g56
(g77
g58
NtRp300
(dp301
g61
(dp302
g81
g82
ssg70
g296
sg63
(lp303
S'domain'
p304
asbag56
(g77
g58
NtRp305
(dp306
g61
(dp307
g88
g89
ssg70
g296
sg63
(lp308
S':'
asbag56
(g77
g58
NtRp309
(dp310
g61
(dp311
sg70
g296
sg63
(lp312
g56
(g57
g58
NtRp313
(dp314
g61
(dp315
g69
I3
ssg70
g309
sg63
(lp316
S''
asbasbasbag56
(g72
g58
NtRp317
(dp318
g61
(dp319
sg70
g271
sg63
(lp320
g56
(g77
g58
NtRp321
(dp322
g61
(dp323
g81
g82
ssg70
g317
sg63
(lp324
S'expires'
p325
asbag56
(g77
g58
NtRp326
(dp327
g61
(dp328
g88
g89
ssg70
g317
sg63
(lp329
S':'
asbag56
(g77
g58
NtRp330
(dp331
g61
(dp332
sg70
g317
sg63
(lp333
g56
(g57
g58
NtRp334
(dp335
g61
(dp336
g69
I3
ssg70
g330
sg63
(lp337
S''
asbasbasbag56
(g72
g58
NtRp338
(dp339
g61
(dp340
sg70
g271
sg63
(lp341
g56
(g77
g58
NtRp342
(dp343
g61
(dp344
g81
g82
ssg70
g338
sg63
(lp345
S'httponly'
p346
asbag56
(g77
g58
NtRp347
(dp348
g61
(dp349
g88
g89
ssg70
g338
sg63
(lp350
S':'
asbag56
(g77
g58
NtRp351
(dp352
g61
(dp353
sg70
g338
sg63
(lp354
g56
(g57
g58
NtRp355
(dp356
g61
(dp357
g69
I3
ssg70
g351
sg63
(lp358
S''
asbasbasbag56
(g72
g58
NtRp359
(dp360
g61
(dp361
sg70
g271
sg63
(lp362
g56
(g77
g58
NtRp363
(dp364
g61
(dp365
g81
g82
ssg70
g359
sg63
(lp366
S'max-age'
p367
asbag56
(g77
g58
NtRp368
(dp369
g61
(dp370
g88
g89
ssg70
g359
sg63
(lp371
S':'
asbag56
(g77
g58
NtRp372
(dp373
g61
(dp374
sg70
g359
sg63
(lp375
g56
(g57
g58
NtRp376
(dp377
g61
(dp378
g69
I3
ssg70
g372
sg63
(lp379
S''
asbasbasbag56
(g72
g58
NtRp380
(dp381
g61
(dp382
sg70
g271
sg63
(lp383
g56
(g77
g58
NtRp384
(dp385
g61
(dp386
g81
g82
ssg70
g380
sg63
(lp387
S'path'
p388
asbag56
(g77
g58
NtRp389
(dp390
g61
(dp391
g88
g89
ssg70
g380
sg63
(lp392
S':'
asbag56
(g77
g58
NtRp393
(dp394
g61
(dp395
sg70
g380
sg63
(lp396
g56
(g57
g58
NtRp397
(dp398
g61
(dp399
g69
I3
ssg70
g393
sg63
(lp400
S''
asbasbasbag56
(g72
g58
NtRp401
(dp402
g61
(dp403
sg70
g271
sg63
(lp404
g56
(g77
g58
NtRp405
(dp406
g61
(dp407
g81
g82
ssg70
g401
sg63
(lp408
S'secure'
p409
asbag56
(g77
g58
NtRp410
(dp411
g61
(dp412
g88
g89
ssg70
g401
sg63
(lp413
S':'
asbag56
(g77
g58
NtRp414
(dp415
g61
(dp416
sg70
g401
sg63
(lp417
g56
(g57
g58
NtRp418
(dp419
g61
(dp420
g69
I3
ssg70
g414
sg63
(lp421
S''
asbasbasbag56
(g72
g58
NtRp422
(dp423
g61
(dp424
sg70
g271
sg63
(lp425
g56
(g77
g58
NtRp426
(dp427
g61
(dp428
g81
g82
ssg70
g422
sg63
(lp429
S'version'
p430
asbag56
(g77
g58
NtRp431
(dp432
g61
(dp433
g88
g89
ssg70
g422
sg63
(lp434
S':'
asbag56
(g77
g58
NtRp435
(dp436
g61
(dp437
sg70
g422
sg63
(lp438
g56
(g57
g58
NtRp439
(dp440
g61
(dp441
g69
I3
ssg70
g435
sg63
(lp442
S''
asbasbasbasbasbasbasbag56
(g72
g58
NtRp443
(dp444
g61
(dp445
sg70
g246
sg63
(lp446
g56
(g77
g58
NtRp447
(dp448
g61
(dp449
g81
g82
ssg70
g443
sg63
(lp450
S'session_id_welcome'
p451
asbag56
(g77
g58
NtRp452
(dp453
g61
(dp454
g88
g89
ssg70
g443
sg63
(lp455
S':'
asbag56
(g77
g58
NtRp456
(dp457
g61
(dp458
sg70
g443
sg63
(lp459
g56
(g57
g58
NtRp460
(dp461
g61
(dp462
g69
I4
ssg70
g456
sg63
(lp463
g56
(g65
g58
NtRp464
(dp465
g61
(dp466
g69
I3
ssg70
Nsg63
(lp467
g56
(g72
g58
NtRp468
(dp469
g61
(dp470
sg70
g464
sg63
(lp471
g56
(g77
g58
NtRp472
(dp473
g61
(dp474
g81
g82
ssg70
g468
sg63
(lp475
g283
asbag56
(g77
g58
NtRp476
(dp477
g61
(dp478
g88
g89
ssg70
g468
sg63
(lp479
S':'
asbag56
(g77
g58
NtRp480
(dp481
g61
(dp482
sg70
g468
sg63
(lp483
g56
(g57
g58
NtRp484
(dp485
g61
(dp486
g69
I3
ssg70
g480
sg63
(lp487
S''
asbasbasbag56
(g72
g58
NtRp488
(dp489
g61
(dp490
sg70
g464
sg63
(lp491
g56
(g77
g58
NtRp492
(dp493
g61
(dp494
g81
g82
ssg70
g488
sg63
(lp495
g304
asbag56
(g77
g58
NtRp496
(dp497
g61
(dp498
g88
g89
ssg70
g488
sg63
(lp499
S':'
asbag56
(g77
g58
NtRp500
(dp501
g61
(dp502
sg70
g488
sg63
(lp503
g56
(g57
g58
NtRp504
(dp505
g61
(dp506
g69
I3
ssg70
g500
sg63
(lp507
S''
asbasbasbag56
(g72
g58
NtRp508
(dp509
g61
(dp510
sg70
g464
sg63
(lp511
g56
(g77
g58
NtRp512
(dp513
g61
(dp514
g81
g82
ssg70
g508
sg63
(lp515
g325
asbag56
(g77
g58
NtRp516
(dp517
g61
(dp518
g88
g89
ssg70
g508
sg63
(lp519
S':'
asbag56
(g77
g58
NtRp520
(dp521
g61
(dp522
sg70
g508
sg63
(lp523
g56
(g57
g58
NtRp524
(dp525
g61
(dp526
g69
I3
ssg70
g520
sg63
(lp527
S''
asbasbasbag56
(g72
g58
NtRp528
(dp529
g61
(dp530
sg70
g464
sg63
(lp531
g56
(g77
g58
NtRp532
(dp533
g61
(dp534
g81
g82
ssg70
g528
sg63
(lp535
g346
asbag56
(g77
g58
NtRp536
(dp537
g61
(dp538
g88
g89
ssg70
g528
sg63
(lp539
S':'
asbag56
(g77
g58
NtRp540
(dp541
g61
(dp542
sg70
g528
sg63
(lp543
g56
(g57
g58
NtRp544
(dp545
g61
(dp546
g69
I3
ssg70
g540
sg63
(lp547
S''
asbasbasbag56
(g72
g58
NtRp548
(dp549
g61
(dp550
sg70
g464
sg63
(lp551
g56
(g77
g58
NtRp552
(dp553
g61
(dp554
g81
g82
ssg70
g548
sg63
(lp555
g367
asbag56
(g77
g58
NtRp556
(dp557
g61
(dp558
g88
g89
ssg70
g548
sg63
(lp559
S':'
asbag56
(g77
g58
NtRp560
(dp561
g61
(dp562
sg70
g548
sg63
(lp563
g56
(g57
g58
NtRp564
(dp565
g61
(dp566
g69
I3
ssg70
g560
sg63
(lp567
S''
asbasbasbag56
(g72
g58
NtRp568
(dp569
g61
(dp570
sg70
g464
sg63
(lp571
g56
(g77
g58
NtRp572
(dp573
g61
(dp574
g81
g82
ssg70
g568
sg63
(lp575
g388
asbag56
(g77
g58
NtRp576
(dp577
g61
(dp578
g88
g89
ssg70
g568
sg63
(lp579
S':'
asbag56
(g77
g58
NtRp580
(dp581
g61
(dp582
sg70
g568
sg63
(lp583
g56
(g57
g58
NtRp584
(dp585
g61
(dp586
g69
I3
ssg70
g580
sg63
(lp587
S''
asbasbasbag56
(g72
g58
NtRp588
(dp589
g61
(dp590
sg70
g464
sg63
(lp591
g56
(g77
g58
NtRp592
(dp593
g61
(dp594
g81
g82
ssg70
g588
sg63
(lp595
g409
asbag56
(g77
g58
NtRp596
(dp597
g61
(dp598
g88
g89
ssg70
g588
sg63
(lp599
S':'
asbag56
(g77
g58
NtRp600
(dp601
g61
(dp602
sg70
g588
sg63
(lp603
g56
(g57
g58
NtRp604
(dp605
g61
(dp606
g69
I3
ssg70
g600
sg63
(lp607
S''
asbasbasbag56
(g72
g58
NtRp608
(dp609
g61
(dp610
sg70
g464
sg63
(lp611
g56
(g77
g58
NtRp612
(dp613
g61
(dp614
g81
g82
ssg70
g608
sg63
(lp615
g430
asbag56
(g77
g58
NtRp616
(dp617
g61
(dp618
g88
g89
ssg70
g608
sg63
(lp619
S':'
asbag56
(g77
g58
NtRp620
(dp621
g61
(dp622
sg70
g608
sg63
(lp623
g56
(g57
g58
NtRp624
(dp625
g61
(dp626
g69
I3
ssg70
g620
sg63
(lp627
S''
asbasbasbasbasbasbasbasbasbasbasbag56
(g72
g58
NtRp628
(dp629
g61
(dp630
sg70
g66
sg63
(lp631
g56
(g77
g58
NtRp632
(dp633
g61
(dp634
g81
g82
ssg70
g628
sg63
(lp635
S'env'
p636
asbag56
(g77
g58
NtRp637
(dp638
g61
(dp639
g88
g89
ssg70
g628
sg63
(lp640
S':'
asbag56
(g77
g58
NtRp641
(dp642
g61
(dp643
sg70
g628
sg63
(lp644
g56
(g57
g58
NtRp645
(dp646
g61
(dp647
g69
I5
ssg70
g641
sg63
(lp648
g56
(g65
g58
NtRp649
(dp650
g61
(dp651
g69
I4
ssg70
Nsg63
(lp652
g56
(g72
g58
NtRp653
(dp654
g61
(dp655
sg70
g649
sg63
(lp656
g56
(g77
g58
NtRp657
(dp658
g61
(dp659
g81
g82
ssg70
g653
sg63
(lp660
S'app_folders'
p661
asbag56
(g77
g58
NtRp662
(dp663
g61
(dp664
g88
g89
ssg70
g653
sg63
(lp665
S':'
asbag56
(g77
g58
NtRp666
(dp667
g61
(dp668
sg70
g653
sg63
(lp669
g56
(g57
g58
NtRp670
(dp671
g61
(dp672
g69
I4
ssg70
g666
sg63
(lp673
S"set(['/Users/excon/Sites/dreamscape/applications/welcome/', '/Users/excon/Sites/dreamscape/applications/admin/'])"
p674
asbasbasbag56
(g72
g58
NtRp675
(dp676
g61
(dp677
sg70
g649
sg63
(lp678
g56
(g77
g58
NtRp679
(dp680
g61
(dp681
g81
g82
ssg70
g675
sg63
(lp682
S'applications_parent'
p683
asbag56
(g77
g58
NtRp684
(dp685
g61
(dp686
g88
g89
ssg70
g675
sg63
(lp687
S':'
asbag56
(g77
g58
NtRp688
(dp689
g61
(dp690
sg70
g675
sg63
(lp691
g56
(g57
g58
NtRp692
(dp693
g61
(dp694
g69
I4
ssg70
g688
sg63
(lp695
S'/Users/excon/Sites/dreamscape'
p696
asbasbasbag56
(g72
g58
NtRp697
(dp698
g61
(dp699
sg70
g649
sg63
(lp700
g56
(g77
g58
NtRp701
(dp702
g61
(dp703
g81
g82
ssg70
g697
sg63
(lp704
S'cmd_args'
p705
asbag56
(g77
g58
NtRp706
(dp707
g61
(dp708
g88
g89
ssg70
g697
sg63
(lp709
S':'
asbag56
(g77
g58
NtRp710
(dp711
g61
(dp712
sg70
g697
sg63
(lp713
g56
(g57
g58
NtRp714
(dp715
g61
(dp716
g69
I4
ssg70
g710
sg63
(lp717
g56
(g65
g58
NtRp718
(dp719
g61
(dp720
g69
I3
ssg70
Nsg63
(lp721
sbasbasbasbag56
(g72
g58
NtRp722
(dp723
g61
(dp724
sg70
g649
sg63
(lp725
g56
(g77
g58
NtRp726
(dp727
g61
(dp728
g81
g82
ssg70
g722
sg63
(lp729
S'cmd_options'
p730
asbag56
(g77
g58
NtRp731
(dp732
g61
(dp733
g88
g89
ssg70
g722
sg63
(lp734
S':'
asbag56
(g77
g58
NtRp735
(dp736
g61
(dp737
sg70
g722
sg63
(lp738
g56
(g57
g58
NtRp739
(dp740
g61
(dp741
g69
I4
ssg70
g735
sg63
(lp742
S"<Values at 0x101c68170: {'verbose': False, 'ip': '127.0.0.1', 'shutdown_timeout': 5, 'taskbar': False, 'nocron': False, 'pid_filename': 'httpserver.pid', 'maxthreads': None, 'softcron': False, 'server_name': 'Excons-MacBook.local', 'bpython': False, 'nogui': False, 'port': 8000, 'extcron': False, 'debuglevel': 30, 'test': None, 'folder': '/Users/excon/Sites/dreamscape', 'config': '', 'import_models': False, 'winservice': '', 'shell': None, 'run': '', 'log_filename': 'httpserver.log', 'args': [''], 'ssl_ca_certificate': None, 'scheduler': None, 'profiler_filename': None, 'ssl_private_key': '', 'password': '<ask>', 'request_queue_size': 5, 'ssl_certificate': '', 'cronjob': False, 'plain': False, 'quiet': False, 'interfaces': None, 'minthreads': None, 'timeout': 10, 'numthreads': None, 'nobanner': False}>"
p743
asbasbasbag56
(g72
g58
NtRp744
(dp745
g61
(dp746
sg70
g649
sg63
(lp747
g56
(g77
g58
NtRp748
(dp749
g61
(dp750
g81
g82
ssg70
g744
sg63
(lp751
S'db_sessions'
p752
asbag56
(g77
g58
NtRp753
(dp754
g61
(dp755
g88
g89
ssg70
g744
sg63
(lp756
S':'
asbag56
(g77
g58
NtRp757
(dp758
g61
(dp759
sg70
g744
sg63
(lp760
g56
(g57
g58
NtRp761
(dp762
g61
(dp763
g69
I4
ssg70
g757
sg63
(lp764
S'set([])'
p765
asbasbasbag56
(g72
g58
NtRp766
(dp767
g61
(dp768
sg70
g649
sg63
(lp769
g56
(g77
g58
NtRp770
(dp771
g61
(dp772
g81
g82
ssg70
g766
sg63
(lp773
S'debugging'
p774
asbag56
(g77
g58
NtRp775
(dp776
g61
(dp777
g88
g89
ssg70
g766
sg63
(lp778
S':'
asbag56
(g77
g58
NtRp779
(dp780
g61
(dp781
sg70
g766
sg63
(lp782
g56
(g57
g58
NtRp783
(dp784
g61
(dp785
g69
I4
ssg70
g779
sg63
(lp786
g99
asbasbasbag56
(g72
g58
NtRp787
(dp788
g61
(dp789
sg70
g649
sg63
(lp790
g56
(g77
g58
NtRp791
(dp792
g61
(dp793
g81
g82
ssg70
g787
sg63
(lp794
S'gluon_parent'
p795
asbag56
(g77
g58
NtRp796
(dp797
g61
(dp798
g88
g89
ssg70
g787
sg63
(lp799
S':'
asbag56
(g77
g58
NtRp800
(dp801
g61
(dp802
sg70
g787
sg63
(lp803
g56
(g57
g58
NtRp804
(dp805
g61
(dp806
g69
I4
ssg70
g800
sg63
(lp807
S'/Users/excon/Sites/dreamscape'
p808
asbasbasbag56
(g72
g58
NtRp809
(dp810
g61
(dp811
sg70
g649
sg63
(lp812
g56
(g77
g58
NtRp813
(dp814
g61
(dp815
g81
g82
ssg70
g809
sg63
(lp816
S'http_accept'
p817
asbag56
(g77
g58
NtRp818
(dp819
g61
(dp820
g88
g89
ssg70
g809
sg63
(lp821
S':'
asbag56
(g77
g58
NtRp822
(dp823
g61
(dp824
sg70
g809
sg63
(lp825
g56
(g57
g58
NtRp826
(dp827
g61
(dp828
g69
I4
ssg70
g822
sg63
(lp829
S'text/html,application/xhtml+xml,application/xml;q=0.9,*/*;q=0.8'
p830
asbasbasbag56
(g72
g58
NtRp831
(dp832
g61
(dp833
sg70
g649
sg63
(lp834
g56
(g77
g58
NtRp835
(dp836
g61
(dp837
g81
g82
ssg70
g831
sg63
(lp838
S'http_accept_charset'
p839
asbag56
(g77
g58
NtRp840
(dp841
g61
(dp842
g88
g89
ssg70
g831
sg63
(lp843
S':'
asbag56
(g77
g58
NtRp844
(dp845
g61
(dp846
sg70
g831
sg63
(lp847
g56
(g57
g58
NtRp848
(dp849
g61
(dp850
g69
I4
ssg70
g844
sg63
(lp851
S'ISO-8859-1,utf-8;q=0.7,*;q=0.7'
p852
asbasbasbag56
(g72
g58
NtRp853
(dp854
g61
(dp855
sg70
g649
sg63
(lp856
g56
(g77
g58
NtRp857
(dp858
g61
(dp859
g81
g82
ssg70
g853
sg63
(lp860
S'http_accept_encoding'
p861
asbag56
(g77
g58
NtRp862
(dp863
g61
(dp864
g88
g89
ssg70
g853
sg63
(lp865
S':'
asbag56
(g77
g58
NtRp866
(dp867
g61
(dp868
sg70
g853
sg63
(lp869
g56
(g57
g58
NtRp870
(dp871
g61
(dp872
g69
I4
ssg70
g866
sg63
(lp873
S'gzip, deflate'
p874
asbasbasbag56
(g72
g58
NtRp875
(dp876
g61
(dp877
sg70
g649
sg63
(lp878
g56
(g77
g58
NtRp879
(dp880
g61
(dp881
g81
g82
ssg70
g875
sg63
(lp882
S'http_accept_language'
p883
asbag56
(g77
g58
NtRp884
(dp885
g61
(dp886
g88
g89
ssg70
g875
sg63
(lp887
S':'
asbag56
(g77
g58
NtRp888
(dp889
g61
(dp890
sg70
g875
sg63
(lp891
g56
(g57
g58
NtRp892
(dp893
g61
(dp894
g69
I4
ssg70
g888
sg63
(lp895
S'en-us,en;q=0.5'
p896
asbasbasbag56
(g72
g58
NtRp897
(dp898
g61
(dp899
sg70
g649
sg63
(lp900
g56
(g77
g58
NtRp901
(dp902
g61
(dp903
g81
g82
ssg70
g897
sg63
(lp904
S'http_cache_control'
p905
asbag56
(g77
g58
NtRp906
(dp907
g61
(dp908
g88
g89
ssg70
g897
sg63
(lp909
S':'
asbag56
(g77
g58
NtRp910
(dp911
g61
(dp912
sg70
g897
sg63
(lp913
g56
(g57
g58
NtRp914
(dp915
g61
(dp916
g69
I4
ssg70
g910
sg63
(lp917
S'max-age=0'
p918
asbasbasbag56
(g72
g58
NtRp919
(dp920
g61
(dp921
sg70
g649
sg63
(lp922
g56
(g77
g58
NtRp923
(dp924
g61
(dp925
g81
g82
ssg70
g919
sg63
(lp926
S'http_connection'
p927
asbag56
(g77
g58
NtRp928
(dp929
g61
(dp930
g88
g89
ssg70
g919
sg63
(lp931
S':'
asbag56
(g77
g58
NtRp932
(dp933
g61
(dp934
sg70
g919
sg63
(lp935
g56
(g57
g58
NtRp936
(dp937
g61
(dp938
g69
I4
ssg70
g932
sg63
(lp939
S'keep-alive'
p940
asbasbasbag56
(g72
g58
NtRp941
(dp942
g61
(dp943
sg70
g649
sg63
(lp944
g56
(g77
g58
NtRp945
(dp946
g61
(dp947
g81
g82
ssg70
g941
sg63
(lp948
S'http_cookie'
p949
asbag56
(g77
g58
NtRp950
(dp951
g61
(dp952
g88
g89
ssg70
g941
sg63
(lp953
S':'
asbag56
(g77
g58
NtRp954
(dp955
g61
(dp956
sg70
g941
sg63
(lp957
g56
(g57
g58
NtRp958
(dp959
g61
(dp960
g69
I4
ssg70
g954
sg63
(lp961
S'session_id_admin=127.0.0.1-313fd634-43bf-4615-b2f5-e4514f202a5c; session_id_welcome=127.0.0.1-8dfa8cd1-5b2c-419d-87ba-df200b08a648'
p962
asbasbasbag56
(g72
g58
NtRp963
(dp964
g61
(dp965
sg70
g649
sg63
(lp966
g56
(g77
g58
NtRp967
(dp968
g61
(dp969
g81
g82
ssg70
g963
sg63
(lp970
S'http_host'
p971
asbag56
(g77
g58
NtRp972
(dp973
g61
(dp974
g88
g89
ssg70
g963
sg63
(lp975
S':'
asbag56
(g77
g58
NtRp976
(dp977
g61
(dp978
sg70
g963
sg63
(lp979
g56
(g57
g58
NtRp980
(dp981
g61
(dp982
g69
I4
ssg70
g976
sg63
(lp983
S'localhost:8000'
p984
asbasbasbag56
(g72
g58
NtRp985
(dp986
g61
(dp987
sg70
g649
sg63
(lp988
g56
(g77
g58
NtRp989
(dp990
g61
(dp991
g81
g82
ssg70
g985
sg63
(lp992
S'http_referer'
p993
asbag56
(g77
g58
NtRp994
(dp995
g61
(dp996
g88
g89
ssg70
g985
sg63
(lp997
S':'
asbag56
(g77
g58
NtRp998
(dp999
g61
(dp1000
sg70
g985
sg63
(lp1001
g56
(g57
g58
NtRp1002
(dp1003
g61
(dp1004
g69
I4
ssg70
g998
sg63
(lp1005
S'http://localhost:8000/'
p1006
asbasbasbag56
(g72
g58
NtRp1007
(dp1008
g61
(dp1009
sg70
g649
sg63
(lp1010
g56
(g77
g58
NtRp1011
(dp1012
g61
(dp1013
g81
g82
ssg70
g1007
sg63
(lp1014
S'http_user_agent'
p1015
asbag56
(g77
g58
NtRp1016
(dp1017
g61
(dp1018
g88
g89
ssg70
g1007
sg63
(lp1019
S':'
asbag56
(g77
g58
NtRp1020
(dp1021
g61
(dp1022
sg70
g1007
sg63
(lp1023
g56
(g57
g58
NtRp1024
(dp1025
g61
(dp1026
g69
I4
ssg70
g1020
sg63
(lp1027
S'Mozilla/5.0 (Macintosh; Intel Mac OS X 10.6; rv:6.0.2) Gecko/20100101 Firefox/6.0.2'
p1028
asbasbasbag56
(g72
g58
NtRp1029
(dp1030
g61
(dp1031
sg70
g649
sg63
(lp1032
g56
(g77
g58
NtRp1033
(dp1034
g61
(dp1035
g81
g82
ssg70
g1029
sg63
(lp1036
S'is_jython'
p1037
asbag56
(g77
g58
NtRp1038
(dp1039
g61
(dp1040
g88
g89
ssg70
g1029
sg63
(lp1041
S':'
asbag56
(g77
g58
NtRp1042
(dp1043
g61
(dp1044
sg70
g1029
sg63
(lp1045
g56
(g57
g58
NtRp1046
(dp1047
g61
(dp1048
g69
I4
ssg70
g1042
sg63
(lp1049
g99
asbasbasbag56
(g72
g58
NtRp1050
(dp1051
g61
(dp1052
sg70
g649
sg63
(lp1053
g56
(g77
g58
NtRp1054
(dp1055
g61
(dp1056
g81
g82
ssg70
g1050
sg63
(lp1057
S'path_info'
p1058
asbag56
(g77
g58
NtRp1059
(dp1060
g61
(dp1061
g88
g89
ssg70
g1050
sg63
(lp1062
S':'
asbag56
(g77
g58
NtRp1063
(dp1064
g61
(dp1065
sg70
g1050
sg63
(lp1066
g56
(g57
g58
NtRp1067
(dp1068
g61
(dp1069
g69
I4
ssg70
g1063
sg63
(lp1070
S'/user/register'
p1071
asbasbasbag56
(g72
g58
NtRp1072
(dp1073
g61
(dp1074
sg70
g649
sg63
(lp1075
g56
(g77
g58
NtRp1076
(dp1077
g61
(dp1078
g81
g82
ssg70
g1072
sg63
(lp1079
S'query_string'
p1080
asbag56
(g77
g58
NtRp1081
(dp1082
g61
(dp1083
g88
g89
ssg70
g1072
sg63
(lp1084
S':'
asbag56
(g77
g58
NtRp1085
(dp1086
g61
(dp1087
sg70
g1072
sg63
(lp1088
g56
(g57
g58
NtRp1089
(dp1090
g61
(dp1091
g69
I4
ssg70
g1085
sg63
(lp1092
S''
asbasbasbag56
(g72
g58
NtRp1093
(dp1094
g61
(dp1095
sg70
g649
sg63
(lp1096
g56
(g77
g58
NtRp1097
(dp1098
g61
(dp1099
g81
g82
ssg70
g1093
sg63
(lp1100
S'remote_addr'
p1101
asbag56
(g77
g58
NtRp1102
(dp1103
g61
(dp1104
g88
g89
ssg70
g1093
sg63
(lp1105
S':'
asbag56
(g77
g58
NtRp1106
(dp1107
g61
(dp1108
sg70
g1093
sg63
(lp1109
g56
(g57
g58
NtRp1110
(dp1111
g61
(dp1112
g69
I4
ssg70
g1106
sg63
(lp1113
g202
asbasbasbag56
(g72
g58
NtRp1114
(dp1115
g61
(dp1116
sg70
g649
sg63
(lp1117
g56
(g77
g58
NtRp1118
(dp1119
g61
(dp1120
g81
g82
ssg70
g1114
sg63
(lp1121
S'remote_port'
p1122
asbag56
(g77
g58
NtRp1123
(dp1124
g61
(dp1125
g88
g89
ssg70
g1114
sg63
(lp1126
S':'
asbag56
(g77
g58
NtRp1127
(dp1128
g61
(dp1129
sg70
g1114
sg63
(lp1130
g56
(g57
g58
NtRp1131
(dp1132
g61
(dp1133
g69
I4
ssg70
g1127
sg63
(lp1134
S'49596'
p1135
asbasbasbag56
(g72
g58
NtRp1136
(dp1137
g61
(dp1138
sg70
g649
sg63
(lp1139
g56
(g77
g58
NtRp1140
(dp1141
g61
(dp1142
g81
g82
ssg70
g1136
sg63
(lp1143
S'request_method'
p1144
asbag56
(g77
g58
NtRp1145
(dp1146
g61
(dp1147
g88
g89
ssg70
g1136
sg63
(lp1148
S':'
asbag56
(g77
g58
NtRp1149
(dp1150
g61
(dp1151
sg70
g1136
sg63
(lp1152
g56
(g57
g58
NtRp1153
(dp1154
g61
(dp1155
g69
I4
ssg70
g1149
sg63
(lp1156
S'GET'
p1157
asbasbasbag56
(g72
g58
NtRp1158
(dp1159
g61
(dp1160
sg70
g649
sg63
(lp1161
g56
(g77
g58
NtRp1162
(dp1163
g61
(dp1164
g81
g82
ssg70
g1158
sg63
(lp1165
S'request_uri'
p1166
asbag56
(g77
g58
NtRp1167
(dp1168
g61
(dp1169
g88
g89
ssg70
g1158
sg63
(lp1170
S':'
asbag56
(g77
g58
NtRp1171
(dp1172
g61
(dp1173
sg70
g1158
sg63
(lp1174
g56
(g57
g58
NtRp1175
(dp1176
g61
(dp1177
g69
I4
ssg70
g1171
sg63
(lp1178
S'/welcome/default/user/register'
p1179
asbasbasbag56
(g72
g58
NtRp1180
(dp1181
g61
(dp1182
sg70
g649
sg63
(lp1183
g56
(g77
g58
NtRp1184
(dp1185
g61
(dp1186
g81
g82
ssg70
g1180
sg63
(lp1187
S'script_name'
p1188
asbag56
(g77
g58
NtRp1189
(dp1190
g61
(dp1191
g88
g89
ssg70
g1180
sg63
(lp1192
S':'
asbag56
(g77
g58
NtRp1193
(dp1194
g61
(dp1195
sg70
g1180
sg63
(lp1196
g56
(g57
g58
NtRp1197
(dp1198
g61
(dp1199
g69
I4
ssg70
g1193
sg63
(lp1200
S''
asbasbasbag56
(g72
g58
NtRp1201
(dp1202
g61
(dp1203
sg70
g649
sg63
(lp1204
g56
(g77
g58
NtRp1205
(dp1206
g61
(dp1207
g81
g82
ssg70
g1201
sg63
(lp1208
S'server_name'
p1209
asbag56
(g77
g58
NtRp1210
(dp1211
g61
(dp1212
g88
g89
ssg70
g1201
sg63
(lp1213
S':'
asbag56
(g77
g58
NtRp1214
(dp1215
g61
(dp1216
sg70
g1201
sg63
(lp1217
g56
(g57
g58
NtRp1218
(dp1219
g61
(dp1220
g69
I4
ssg70
g1214
sg63
(lp1221
S'Excons-MacBook.local'
p1222
asbasbasbag56
(g72
g58
NtRp1223
(dp1224
g61
(dp1225
sg70
g649
sg63
(lp1226
g56
(g77
g58
NtRp1227
(dp1228
g61
(dp1229
g81
g82
ssg70
g1223
sg63
(lp1230
S'server_port'
p1231
asbag56
(g77
g58
NtRp1232
(dp1233
g61
(dp1234
g88
g89
ssg70
g1223
sg63
(lp1235
S':'
asbag56
(g77
g58
NtRp1236
(dp1237
g61
(dp1238
sg70
g1223
sg63
(lp1239
g56
(g57
g58
NtRp1240
(dp1241
g61
(dp1242
g69
I4
ssg70
g1236
sg63
(lp1243
S'8000'
p1244
asbasbasbag56
(g72
g58
NtRp1245
(dp1246
g61
(dp1247
sg70
g649
sg63
(lp1248
g56
(g77
g58
NtRp1249
(dp1250
g61
(dp1251
g81
g82
ssg70
g1245
sg63
(lp1252
S'server_protocol'
p1253
asbag56
(g77
g58
NtRp1254
(dp1255
g61
(dp1256
g88
g89
ssg70
g1245
sg63
(lp1257
S':'
asbag56
(g77
g58
NtRp1258
(dp1259
g61
(dp1260
sg70
g1245
sg63
(lp1261
g56
(g57
g58
NtRp1262
(dp1263
g61
(dp1264
g69
I4
ssg70
g1258
sg63
(lp1265
S'HTTP/1.1'
p1266
asbasbasbag56
(g72
g58
NtRp1267
(dp1268
g61
(dp1269
sg70
g649
sg63
(lp1270
g56
(g77
g58
NtRp1271
(dp1272
g61
(dp1273
g81
g82
ssg70
g1267
sg63
(lp1274
S'server_software'
p1275
asbag56
(g77
g58
NtRp1276
(dp1277
g61
(dp1278
g88
g89
ssg70
g1267
sg63
(lp1279
S':'
asbag56
(g77
g58
NtRp1280
(dp1281
g61
(dp1282
sg70
g1267
sg63
(lp1283
g56
(g57
g58
NtRp1284
(dp1285
g61
(dp1286
g69
I4
ssg70
g1280
sg63
(lp1287
S'Rocket 1.2.4'
p1288
asbasbasbag56
(g72
g58
NtRp1289
(dp1290
g61
(dp1291
sg70
g649
sg63
(lp1292
g56
(g77
g58
NtRp1293
(dp1294
g61
(dp1295
g81
g82
ssg70
g1289
sg63
(lp1296
S'web2py_crontype'
p1297
asbag56
(g77
g58
NtRp1298
(dp1299
g61
(dp1300
g88
g89
ssg70
g1289
sg63
(lp1301
S':'
asbag56
(g77
g58
NtRp1302
(dp1303
g61
(dp1304
sg70
g1289
sg63
(lp1305
g56
(g57
g58
NtRp1306
(dp1307
g61
(dp1308
g69
I4
ssg70
g1302
sg63
(lp1309
S'hard'
p1310
asbasbasbag56
(g72
g58
NtRp1311
(dp1312
g61
(dp1313
sg70
g649
sg63
(lp1314
g56
(g77
g58
NtRp1315
(dp1316
g61
(dp1317
g81
g82
ssg70
g1311
sg63
(lp1318
S'web2py_original_uri'
p1319
asbag56
(g77
g58
NtRp1320
(dp1321
g61
(dp1322
g88
g89
ssg70
g1311
sg63
(lp1323
S':'
asbag56
(g77
g58
NtRp1324
(dp1325
g61
(dp1326
sg70
g1311
sg63
(lp1327
g56
(g57
g58
NtRp1328
(dp1329
g61
(dp1330
g69
I4
ssg70
g1324
sg63
(lp1331
g1071
asbasbasbag56
(g72
g58
NtRp1332
(dp1333
g61
(dp1334
sg70
g649
sg63
(lp1335
g56
(g77
g58
NtRp1336
(dp1337
g61
(dp1338
g81
g82
ssg70
g1332
sg63
(lp1339
S'web2py_path'
p1340
asbag56
(g77
g58
NtRp1341
(dp1342
g61
(dp1343
g88
g89
ssg70
g1332
sg63
(lp1344
S':'
asbag56
(g77
g58
NtRp1345
(dp1346
g61
(dp1347
sg70
g1332
sg63
(lp1348
g56
(g57
g58
NtRp1349
(dp1350
g61
(dp1351
g69
I4
ssg70
g1345
sg63
(lp1352
g696
asbasbasbag56
(g72
g58
NtRp1353
(dp1354
g61
(dp1355
sg70
g649
sg63
(lp1356
g56
(g77
g58
NtRp1357
(dp1358
g61
(dp1359
g81
g82
ssg70
g1353
sg63
(lp1360
S'web2py_version'
p1361
asbag56
(g77
g58
NtRp1362
(dp1363
g61
(dp1364
g88
g89
ssg70
g1353
sg63
(lp1365
S':'
asbag56
(g77
g58
NtRp1366
(dp1367
g61
(dp1368
sg70
g1353
sg63
(lp1369
g56
(g57
g58
NtRp1370
(dp1371
g61
(dp1372
g69
I4
ssg70
g1366
sg63
(lp1373
g56
(g65
g58
NtRp1374
(dp1375
g61
(dp1376
g69
I3
ssg70
Nsg63
(lp1377
g56
(g72
g58
NtRp1378
(dp1379
g61
(dp1380
sg70
g1374
sg63
(lp1381
g56
(g77
g58
NtRp1382
(dp1383
g61
(dp1384
sg70
g1378
sg63
(lp1385
g56
(g57
g58
NtRp1386
(dp1387
g61
(dp1388
g69
I3
ssg70
g1382
sg63
(lp1389
S'1'
asbasbasbag56
(g72
g58
NtRp1390
(dp1391
g61
(dp1392
sg70
g1374
sg63
(lp1393
g56
(g77
g58
NtRp1394
(dp1395
g61
(dp1396
sg70
g1390
sg63
(lp1397
g56
(g57
g58
NtRp1398
(dp1399
g61
(dp1400
g69
I3
ssg70
g1394
sg63
(lp1401
S'99'
p1402
asbasbasbag56
(g72
g58
NtRp1403
(dp1404
g61
(dp1405
sg70
g1374
sg63
(lp1406
g56
(g77
g58
NtRp1407
(dp1408
g61
(dp1409
sg70
g1403
sg63
(lp1410
g56
(g57
g58
NtRp1411
(dp1412
g61
(dp1413
g69
I3
ssg70
g1407
sg63
(lp1414
S'2'
asbasbasbag56
(g72
g58
NtRp1415
(dp1416
g61
(dp1417
sg70
g1374
sg63
(lp1418
g56
(g77
g58
NtRp1419
(dp1420
g61
(dp1421
sg70
g1415
sg63
(lp1422
g56
(g57
g58
NtRp1423
(dp1424
g61
(dp1425
g69
I3
ssg70
g1419
sg63
(lp1426
S'datetime.datetime(2011, 9, 26, 6, 55, 33)'
p1427
asbasbasbag56
(g72
g58
NtRp1428
(dp1429
g61
(dp1430
sg70
g1374
sg63
(lp1431
g56
(g77
g58
NtRp1432
(dp1433
g61
(dp1434
sg70
g1428
sg63
(lp1435
g56
(g57
g58
NtRp1436
(dp1437
g61
(dp1438
g69
I3
ssg70
g1432
sg63
(lp1439
S'stable'
p1440
asbasbasbasbasbasbasbag56
(g72
g58
NtRp1441
(dp1442
g61
(dp1443
sg70
g649
sg63
(lp1444
g56
(g77
g58
NtRp1445
(dp1446
g61
(dp1447
g81
g82
ssg70
g1441
sg63
(lp1448
S'wsgi_errors'
p1449
asbag56
(g77
g58
NtRp1450
(dp1451
g61
(dp1452
g88
g89
ssg70
g1441
sg63
(lp1453
S':'
asbag56
(g77
g58
NtRp1454
(dp1455
g61
(dp1456
sg70
g1441
sg63
(lp1457
g56
(g57
g58
NtRp1458
(dp1459
g61
(dp1460
g69
I4
ssg70
g1454
sg63
(lp1461
S"<open file '<stderr>', mode 'w' at 0x100416140>"
p1462
asbasbasbag56
(g72
g58
NtRp1463
(dp1464
g61
(dp1465
sg70
g649
sg63
(lp1466
g56
(g77
g58
NtRp1467
(dp1468
g61
(dp1469
g81
g82
ssg70
g1463
sg63
(lp1470
S'wsgi_file_wrapper'
p1471
asbag56
(g77
g58
NtRp1472
(dp1473
g61
(dp1474
g88
g89
ssg70
g1463
sg63
(lp1475
S':'
asbag56
(g77
g58
NtRp1476
(dp1477
g61
(dp1478
sg70
g1463
sg63
(lp1479
g56
(g57
g58
NtRp1480
(dp1481
g61
(dp1482
g69
I4
ssg70
g1476
sg63
(lp1483
S'<class wsgiref.util.FileWrapper at 0x1014a2bf0>'
p1484
asbasbasbag56
(g72
g58
NtRp1485
(dp1486
g61
(dp1487
sg70
g649
sg63
(lp1488
g56
(g77
g58
NtRp1489
(dp1490
g61
(dp1491
g81
g82
ssg70
g1485
sg63
(lp1492
S'wsgi_input'
p1493
asbag56
(g77
g58
NtRp1494
(dp1495
g61
(dp1496
g88
g89
ssg70
g1485
sg63
(lp1497
S':'
asbag56
(g77
g58
NtRp1498
(dp1499
g61
(dp1500
sg70
g1485
sg63
(lp1501
g56
(g57
g58
NtRp1502
(dp1503
g61
(dp1504
g69
I4
ssg70
g1498
sg63
(lp1505
S'<socket._fileobject object at 0x11696dde8>'
p1506
asbasbasbag56
(g72
g58
NtRp1507
(dp1508
g61
(dp1509
sg70
g649
sg63
(lp1510
g56
(g77
g58
NtRp1511
(dp1512
g61
(dp1513
g81
g82
ssg70
g1507
sg63
(lp1514
S'wsgi_multiprocess'
p1515
asbag56
(g77
g58
NtRp1516
(dp1517
g61
(dp1518
g88
g89
ssg70
g1507
sg63
(lp1519
S':'
asbag56
(g77
g58
NtRp1520
(dp1521
g61
(dp1522
sg70
g1507
sg63
(lp1523
g56
(g57
g58
NtRp1524
(dp1525
g61
(dp1526
g69
I4
ssg70
g1520
sg63
(lp1527
g99
asbasbasbag56
(g72
g58
NtRp1528
(dp1529
g61
(dp1530
sg70
g649
sg63
(lp1531
g56
(g77
g58
NtRp1532
(dp1533
g61
(dp1534
g81
g82
ssg70
g1528
sg63
(lp1535
S'wsgi_multithread'
p1536
asbag56
(g77
g58
NtRp1537
(dp1538
g61
(dp1539
g88
g89
ssg70
g1528
sg63
(lp1540
S':'
asbag56
(g77
g58
NtRp1541
(dp1542
g61
(dp1543
sg70
g1528
sg63
(lp1544
g56
(g57
g58
NtRp1545
(dp1546
g61
(dp1547
g69
I4
ssg70
g1541
sg63
(lp1548
S'True'
p1549
asbasbasbag56
(g72
g58
NtRp1550
(dp1551
g61
(dp1552
sg70
g649
sg63
(lp1553
g56
(g77
g58
NtRp1554
(dp1555
g61
(dp1556
g81
g82
ssg70
g1550
sg63
(lp1557
S'wsgi_run_once'
p1558
asbag56
(g77
g58
NtRp1559
(dp1560
g61
(dp1561
g88
g89
ssg70
g1550
sg63
(lp1562
S':'
asbag56
(g77
g58
NtRp1563
(dp1564
g61
(dp1565
sg70
g1550
sg63
(lp1566
g56
(g57
g58
NtRp1567
(dp1568
g61
(dp1569
g69
I4
ssg70
g1563
sg63
(lp1570
g99
asbasbasbag56
(g72
g58
NtRp1571
(dp1572
g61
(dp1573
sg70
g649
sg63
(lp1574
g56
(g77
g58
NtRp1575
(dp1576
g61
(dp1577
g81
g82
ssg70
g1571
sg63
(lp1578
S'wsgi_url_scheme'
p1579
asbag56
(g77
g58
NtRp1580
(dp1581
g61
(dp1582
g88
g89
ssg70
g1571
sg63
(lp1583
S':'
asbag56
(g77
g58
NtRp1584
(dp1585
g61
(dp1586
sg70
g1571
sg63
(lp1587
g56
(g57
g58
NtRp1588
(dp1589
g61
(dp1590
g69
I4
ssg70
g1584
sg63
(lp1591
S'http'
p1592
asbasbasbag56
(g72
g58
NtRp1593
(dp1594
g61
(dp1595
sg70
g649
sg63
(lp1596
g56
(g77
g58
NtRp1597
(dp1598
g61
(dp1599
g81
g82
ssg70
g1593
sg63
(lp1600
S'wsgi_version'
p1601
asbag56
(g77
g58
NtRp1602
(dp1603
g61
(dp1604
g88
g89
ssg70
g1593
sg63
(lp1605
S':'
asbag56
(g77
g58
NtRp1606
(dp1607
g61
(dp1608
sg70
g1593
sg63
(lp1609
g56
(g57
g58
NtRp1610
(dp1611
g61
(dp1612
g69
I4
ssg70
g1606
sg63
(lp1613
g56
(g65
g58
NtRp1614
(dp1615
g61
(dp1616
g69
I3
ssg70
Nsg63
(lp1617
g56
(g72
g58
NtRp1618
(dp1619
g61
(dp1620
sg70
g1614
sg63
(lp1621
g56
(g77
g58
NtRp1622
(dp1623
g61
(dp1624
sg70
g1618
sg63
(lp1625
g56
(g57
g58
NtRp1626
(dp1627
g61
(dp1628
g69
I3
ssg70
g1622
sg63
(lp1629
S'1'
asbasbasbag56
(g72
g58
NtRp1630
(dp1631
g61
(dp1632
sg70
g1614
sg63
(lp1633
g56
(g77
g58
NtRp1634
(dp1635
g61
(dp1636
sg70
g1630
sg63
(lp1637
g56
(g57
g58
NtRp1638
(dp1639
g61
(dp1640
g69
I3
ssg70
g1634
sg63
(lp1641
S'0'
asbasbasbasbasbasbasbasbasbasbasbag56
(g72
g58
NtRp1642
(dp1643
g61
(dp1644
sg70
g66
sg63
(lp1645
g56
(g77
g58
NtRp1646
(dp1647
g61
(dp1648
g81
g82
ssg70
g1642
sg63
(lp1649
S'extension'
p1650
asbag56
(g77
g58
NtRp1651
(dp1652
g61
(dp1653
g88
g89
ssg70
g1642
sg63
(lp1654
S':'
asbag56
(g77
g58
NtRp1655
(dp1656
g61
(dp1657
sg70
g1642
sg63
(lp1658
g56
(g57
g58
NtRp1659
(dp1660
g61
(dp1661
g69
I5
ssg70
g1655
sg63
(lp1662
S'html'
p1663
asbasbasbag56
(g72
g58
NtRp1664
(dp1665
g61
(dp1666
sg70
g66
sg63
(lp1667
g56
(g77
g58
NtRp1668
(dp1669
g61
(dp1670
g81
g82
ssg70
g1664
sg63
(lp1671
S'folder'
p1672
asbag56
(g77
g58
NtRp1673
(dp1674
g61
(dp1675
g88
g89
ssg70
g1664
sg63
(lp1676
S':'
asbag56
(g77
g58
NtRp1677
(dp1678
g61
(dp1679
sg70
g1664
sg63
(lp1680
g56
(g57
g58
NtRp1681
(dp1682
g61
(dp1683
g69
I5
ssg70
g1677
sg63
(lp1684
S'/Users/excon/Sites/dreamscape/applications/welcome/'
p1685
asbasbasbag56
(g72
g58
NtRp1686
(dp1687
g61
(dp1688
sg70
g66
sg63
(lp1689
g56
(g77
g58
NtRp1690
(dp1691
g61
(dp1692
g81
g82
ssg70
g1686
sg63
(lp1693
S'function'
p1694
asbag56
(g77
g58
NtRp1695
(dp1696
g61
(dp1697
g88
g89
ssg70
g1686
sg63
(lp1698
S':'
asbag56
(g77
g58
NtRp1699
(dp1700
g61
(dp1701
sg70
g1686
sg63
(lp1702
g56
(g57
g58
NtRp1703
(dp1704
g61
(dp1705
g69
I5
ssg70
g1699
sg63
(lp1706
S'user'
p1707
asbasbasbag56
(g72
g58
NtRp1708
(dp1709
g61
(dp1710
sg70
g66
sg63
(lp1711
g56
(g77
g58
NtRp1712
(dp1713
g61
(dp1714
g81
g82
ssg70
g1708
sg63
(lp1715
S'get_vars'
p1716
asbag56
(g77
g58
NtRp1717
(dp1718
g61
(dp1719
g88
g89
ssg70
g1708
sg63
(lp1720
S':'
asbag56
(g77
g58
NtRp1721
(dp1722
g61
(dp1723
sg70
g1708
sg63
(lp1724
g56
(g57
g58
NtRp1725
(dp1726
g61
(dp1727
g69
I5
ssg70
g1721
sg63
(lp1728
g56
(g65
g58
NtRp1729
(dp1730
g61
(dp1731
g69
I4
ssg70
Nsg63
(lp1732
sbasbasbasbag56
(g72
g58
NtRp1733
(dp1734
g61
(dp1735
sg70
g66
sg63
(lp1736
g56
(g77
g58
NtRp1737
(dp1738
g61
(dp1739
g81
g82
ssg70
g1733
sg63
(lp1740
S'global_settings'
p1741
asbag56
(g77
g58
NtRp1742
(dp1743
g61
(dp1744
g88
g89
ssg70
g1733
sg63
(lp1745
S':'
asbag56
(g77
g58
NtRp1746
(dp1747
g61
(dp1748
sg70
g1733
sg63
(lp1749
g56
(g57
g58
NtRp1750
(dp1751
g61
(dp1752
g69
I5
ssg70
g1746
sg63
(lp1753
g56
(g65
g58
NtRp1754
(dp1755
g61
(dp1756
g69
I4
ssg70
Nsg63
(lp1757
g56
(g72
g58
NtRp1758
(dp1759
g61
(dp1760
sg70
g1754
sg63
(lp1761
g56
(g77
g58
NtRp1762
(dp1763
g61
(dp1764
g81
g82
ssg70
g1758
sg63
(lp1765
g661
asbag56
(g77
g58
NtRp1766
(dp1767
g61
(dp1768
g88
g89
ssg70
g1758
sg63
(lp1769
S':'
asbag56
(g77
g58
NtRp1770
(dp1771
g61
(dp1772
sg70
g1758
sg63
(lp1773
g56
(g57
g58
NtRp1774
(dp1775
g61
(dp1776
g69
I4
ssg70
g1770
sg63
(lp1777
S"set(['/Users/excon/Sites/dreamscape/applications/welcome/', '/Users/excon/Sites/dreamscape/applications/admin/'])"
p1778
asbasbasbag56
(g72
g58
NtRp1779
(dp1780
g61
(dp1781
sg70
g1754
sg63
(lp1782
g56
(g77
g58
NtRp1783
(dp1784
g61
(dp1785
g81
g82
ssg70
g1779
sg63
(lp1786
g683
asbag56
(g77
g58
NtRp1787
(dp1788
g61
(dp1789
g88
g89
ssg70
g1779
sg63
(lp1790
S':'
asbag56
(g77
g58
NtRp1791
(dp1792
g61
(dp1793
sg70
g1779
sg63
(lp1794
g56
(g57
g58
NtRp1795
(dp1796
g61
(dp1797
g69
I4
ssg70
g1791
sg63
(lp1798
g696
asbasbasbag56
(g72
g58
NtRp1799
(dp1800
g61
(dp1801
sg70
g1754
sg63
(lp1802
g56
(g77
g58
NtRp1803
(dp1804
g61
(dp1805
g81
g82
ssg70
g1799
sg63
(lp1806
g705
asbag56
(g77
g58
NtRp1807
(dp1808
g61
(dp1809
g88
g89
ssg70
g1799
sg63
(lp1810
S':'
asbag56
(g77
g58
NtRp1811
(dp1812
g61
(dp1813
sg70
g1799
sg63
(lp1814
g56
(g57
g58
NtRp1815
(dp1816
g61
(dp1817
g69
I4
ssg70
g1811
sg63
(lp1818
g56
(g65
g58
NtRp1819
(dp1820
g61
(dp1821
g69
I3
ssg70
Nsg63
(lp1822
sbasbasbasbag56
(g72
g58
NtRp1823
(dp1824
g61
(dp1825
sg70
g1754
sg63
(lp1826
g56
(g77
g58
NtRp1827
(dp1828
g61
(dp1829
g81
g82
ssg70
g1823
sg63
(lp1830
g730
asbag56
(g77
g58
NtRp1831
(dp1832
g61
(dp1833
g88
g89
ssg70
g1823
sg63
(lp1834
S':'
asbag56
(g77
g58
NtRp1835
(dp1836
g61
(dp1837
sg70
g1823
sg63
(lp1838
g56
(g57
g58
NtRp1839
(dp1840
g61
(dp1841
g69
I4
ssg70
g1835
sg63
(lp1842
S"<Values at 0x101c68170: {'verbose': False, 'ip': '127.0.0.1', 'shutdown_timeout': 5, 'taskbar': False, 'nocron': False, 'pid_filename': 'httpserver.pid', 'maxthreads': None, 'softcron': False, 'server_name': 'Excons-MacBook.local', 'bpython': False, 'nogui': False, 'port': 8000, 'extcron': False, 'debuglevel': 30, 'test': None, 'folder': '/Users/excon/Sites/dreamscape', 'config': '', 'import_models': False, 'winservice': '', 'shell': None, 'run': '', 'log_filename': 'httpserver.log', 'args': [''], 'ssl_ca_certificate': None, 'scheduler': None, 'profiler_filename': None, 'ssl_private_key': '', 'password': '<ask>', 'request_queue_size': 5, 'ssl_certificate': '', 'cronjob': False, 'plain': False, 'quiet': False, 'interfaces': None, 'minthreads': None, 'timeout': 10, 'numthreads': None, 'nobanner': False}>"
p1843
asbasbasbag56
(g72
g58
NtRp1844
(dp1845
g61
(dp1846
sg70
g1754
sg63
(lp1847
g56
(g77
g58
NtRp1848
(dp1849
g61
(dp1850
g81
g82
ssg70
g1844
sg63
(lp1851
g752
asbag56
(g77
g58
NtRp1852
(dp1853
g61
(dp1854
g88
g89
ssg70
g1844
sg63
(lp1855
S':'
asbag56
(g77
g58
NtRp1856
(dp1857
g61
(dp1858
sg70
g1844
sg63
(lp1859
g56
(g57
g58
NtRp1860
(dp1861
g61
(dp1862
g69
I4
ssg70
g1856
sg63
(lp1863
S'set([])'
p1864
asbasbasbag56
(g72
g58
NtRp1865
(dp1866
g61
(dp1867
sg70
g1754
sg63
(lp1868
g56
(g77
g58
NtRp1869
(dp1870
g61
(dp1871
g81
g82
ssg70
g1865
sg63
(lp1872
g774
asbag56
(g77
g58
NtRp1873
(dp1874
g61
(dp1875
g88
g89
ssg70
g1865
sg63
(lp1876
S':'
asbag56
(g77
g58
NtRp1877
(dp1878
g61
(dp1879
sg70
g1865
sg63
(lp1880
g56
(g57
g58
NtRp1881
(dp1882
g61
(dp1883
g69
I4
ssg70
g1877
sg63
(lp1884
g99
asbasbasbag56
(g72
g58
NtRp1885
(dp1886
g61
(dp1887
sg70
g1754
sg63
(lp1888
g56
(g77
g58
NtRp1889
(dp1890
g61
(dp1891
g81
g82
ssg70
g1885
sg63
(lp1892
g795
asbag56
(g77
g58
NtRp1893
(dp1894
g61
(dp1895
g88
g89
ssg70
g1885
sg63
(lp1896
S':'
asbag56
(g77
g58
NtRp1897
(dp1898
g61
(dp1899
sg70
g1885
sg63
(lp1900
g56
(g57
g58
NtRp1901
(dp1902
g61
(dp1903
g69
I4
ssg70
g1897
sg63
(lp1904
g808
asbasbasbag56
(g72
g58
NtRp1905
(dp1906
g61
(dp1907
sg70
g1754
sg63
(lp1908
g56
(g77
g58
NtRp1909
(dp1910
g61
(dp1911
g81
g82
ssg70
g1905
sg63
(lp1912
g1037
asbag56
(g77
g58
NtRp1913
(dp1914
g61
(dp1915
g88
g89
ssg70
g1905
sg63
(lp1916
S':'
asbag56
(g77
g58
NtRp1917
(dp1918
g61
(dp1919
sg70
g1905
sg63
(lp1920
g56
(g57
g58
NtRp1921
(dp1922
g61
(dp1923
g69
I4
ssg70
g1917
sg63
(lp1924
g99
asbasbasbag56
(g72
g58
NtRp1925
(dp1926
g61
(dp1927
sg70
g1754
sg63
(lp1928
g56
(g77
g58
NtRp1929
(dp1930
g61
(dp1931
g81
g82
ssg70
g1925
sg63
(lp1932
g1297
asbag56
(g77
g58
NtRp1933
(dp1934
g61
(dp1935
g88
g89
ssg70
g1925
sg63
(lp1936
S':'
asbag56
(g77
g58
NtRp1937
(dp1938
g61
(dp1939
sg70
g1925
sg63
(lp1940
g56
(g57
g58
NtRp1941
(dp1942
g61
(dp1943
g69
I4
ssg70
g1937
sg63
(lp1944
g1310
asbasbasbag56
(g72
g58
NtRp1945
(dp1946
g61
(dp1947
sg70
g1754
sg63
(lp1948
g56
(g77
g58
NtRp1949
(dp1950
g61
(dp1951
g81
g82
ssg70
g1945
sg63
(lp1952
g1361
asbag56
(g77
g58
NtRp1953
(dp1954
g61
(dp1955
g88
g89
ssg70
g1945
sg63
(lp1956
S':'
asbag56
(g77
g58
NtRp1957
(dp1958
g61
(dp1959
sg70
g1945
sg63
(lp1960
g56
(g57
g58
NtRp1961
(dp1962
g61
(dp1963
g69
I4
ssg70
g1957
sg63
(lp1964
g56
(g65
g58
NtRp1965
(dp1966
g61
(dp1967
g69
I3
ssg70
Nsg63
(lp1968
g56
(g72
g58
NtRp1969
(dp1970
g61
(dp1971
sg70
g1965
sg63
(lp1972
g56
(g77
g58
NtRp1973
(dp1974
g61
(dp1975
sg70
g1969
sg63
(lp1976
g56
(g57
g58
NtRp1977
(dp1978
g61
(dp1979
g69
I3
ssg70
g1973
sg63
(lp1980
S'1'
asbasbasbag56
(g72
g58
NtRp1981
(dp1982
g61
(dp1983
sg70
g1965
sg63
(lp1984
g56
(g77
g58
NtRp1985
(dp1986
g61
(dp1987
sg70
g1981
sg63
(lp1988
g56
(g57
g58
NtRp1989
(dp1990
g61
(dp1991
g69
I3
ssg70
g1985
sg63
(lp1992
S'99'
p1993
asbasbasbag56
(g72
g58
NtRp1994
(dp1995
g61
(dp1996
sg70
g1965
sg63
(lp1997
g56
(g77
g58
NtRp1998
(dp1999
g61
(dp2000
sg70
g1994
sg63
(lp2001
g56
(g57
g58
NtRp2002
(dp2003
g61
(dp2004
g69
I3
ssg70
g1998
sg63
(lp2005
S'2'
asbasbasbag56
(g72
g58
NtRp2006
(dp2007
g61
(dp2008
sg70
g1965
sg63
(lp2009
g56
(g77
g58
NtRp2010
(dp2011
g61
(dp2012
sg70
g2006
sg63
(lp2013
g56
(g57
g58
NtRp2014
(dp2015
g61
(dp2016
g69
I3
ssg70
g2010
sg63
(lp2017
S'datetime.datetime(2011, 9, 26, 6, 55, 33)'
p2018
asbasbasbag56
(g72
g58
NtRp2019
(dp2020
g61
(dp2021
sg70
g1965
sg63
(lp2022
g56
(g77
g58
NtRp2023
(dp2024
g61
(dp2025
sg70
g2019
sg63
(lp2026
g56
(g57
g58
NtRp2027
(dp2028
g61
(dp2029
g69
I3
ssg70
g2023
sg63
(lp2030
g1440
asbasbasbasbasbasbasbasbasbasbasbag56
(g72
g58
NtRp2031
(dp2032
g61
(dp2033
sg70
g66
sg63
(lp2034
g56
(g77
g58
NtRp2035
(dp2036
g61
(dp2037
g81
g82
ssg70
g2031
sg63
(lp2038
S'is_https'
p2039
asbag56
(g77
g58
NtRp2040
(dp2041
g61
(dp2042
g88
g89
ssg70
g2031
sg63
(lp2043
S':'
asbag56
(g77
g58
NtRp2044
(dp2045
g61
(dp2046
sg70
g2031
sg63
(lp2047
g56
(g57
g58
NtRp2048
(dp2049
g61
(dp2050
g69
I5
ssg70
g2044
sg63
(lp2051
g99
asbasbasbag56
(g72
g58
NtRp2052
(dp2053
g61
(dp2054
sg70
g66
sg63
(lp2055
g56
(g77
g58
NtRp2056
(dp2057
g61
(dp2058
g81
g82
ssg70
g2052
sg63
(lp2059
S'is_local'
p2060
asbag56
(g77
g58
NtRp2061
(dp2062
g61
(dp2063
g88
g89
ssg70
g2052
sg63
(lp2064
S':'
asbag56
(g77
g58
NtRp2065
(dp2066
g61
(dp2067
sg70
g2052
sg63
(lp2068
g56
(g57
g58
NtRp2069
(dp2070
g61
(dp2071
g69
I5
ssg70
g2065
sg63
(lp2072
g1549
asbasbasbag56
(g72
g58
NtRp2073
(dp2074
g61
(dp2075
sg70
g66
sg63
(lp2076
g56
(g77
g58
NtRp2077
(dp2078
g61
(dp2079
g81
g82
ssg70
g2073
sg63
(lp2080
S'is_restful'
p2081
asbag56
(g77
g58
NtRp2082
(dp2083
g61
(dp2084
g88
g89
ssg70
g2073
sg63
(lp2085
S':'
asbag56
(g77
g58
NtRp2086
(dp2087
g61
(dp2088
sg70
g2073
sg63
(lp2089
g56
(g57
g58
NtRp2090
(dp2091
g61
(dp2092
g69
I5
ssg70
g2086
sg63
(lp2093
g99
asbasbasbag56
(g72
g58
NtRp2094
(dp2095
g61
(dp2096
sg70
g66
sg63
(lp2097
g56
(g77
g58
NtRp2098
(dp2099
g61
(dp2100
g81
g82
ssg70
g2094
sg63
(lp2101
S'now'
p2102
asbag56
(g77
g58
NtRp2103
(dp2104
g61
(dp2105
g88
g89
ssg70
g2094
sg63
(lp2106
S':'
asbag56
(g77
g58
NtRp2107
(dp2108
g61
(dp2109
sg70
g2094
sg63
(lp2110
g56
(g57
g58
NtRp2111
(dp2112
g61
(dp2113
g69
I5
ssg70
g2107
sg63
(lp2114
S'datetime.datetime(2011, 9, 29, 8, 40, 12, 255313)'
p2115
asbasbasbag56
(g72
g58
NtRp2116
(dp2117
g61
(dp2118
sg70
g66
sg63
(lp2119
g56
(g77
g58
NtRp2120
(dp2121
g61
(dp2122
g81
g82
ssg70
g2116
sg63
(lp2123
S'post_vars'
p2124
asbag56
(g77
g58
NtRp2125
(dp2126
g61
(dp2127
g88
g89
ssg70
g2116
sg63
(lp2128
S':'
asbag56
(g77
g58
NtRp2129
(dp2130
g61
(dp2131
sg70
g2116
sg63
(lp2132
g56
(g57
g58
NtRp2133
(dp2134
g61
(dp2135
g69
I5
ssg70
g2129
sg63
(lp2136
g56
(g65
g58
NtRp2137
(dp2138
g61
(dp2139
g69
I4
ssg70
Nsg63
(lp2140
sbasbasbasbag56
(g72
g58
NtRp2141
(dp2142
g61
(dp2143
sg70
g66
sg63
(lp2144
g56
(g77
g58
NtRp2145
(dp2146
g61
(dp2147
g81
g82
ssg70
g2141
sg63
(lp2148
S'url'
p2149
asbag56
(g77
g58
NtRp2150
(dp2151
g61
(dp2152
g88
g89
ssg70
g2141
sg63
(lp2153
S':'
asbag56
(g77
g58
NtRp2154
(dp2155
g61
(dp2156
sg70
g2141
sg63
(lp2157
g56
(g57
g58
NtRp2158
(dp2159
g61
(dp2160
g69
I5
ssg70
g2154
sg63
(lp2161
S'/user/register'
p2162
asbasbasbag56
(g72
g58
NtRp2163
(dp2164
g61
(dp2165
sg70
g66
sg63
(lp2166
g56
(g77
g58
NtRp2167
(dp2168
g61
(dp2169
g81
g82
ssg70
g2163
sg63
(lp2170
S'utcnow'
p2171
asbag56
(g77
g58
NtRp2172
(dp2173
g61
(dp2174
g88
g89
ssg70
g2163
sg63
(lp2175
S':'
asbag56
(g77
g58
NtRp2176
(dp2177
g61
(dp2178
sg70
g2163
sg63
(lp2179
g56
(g57
g58
NtRp2180
(dp2181
g61
(dp2182
g69
I5
ssg70
g2176
sg63
(lp2183
S'datetime.datetime(2011, 9, 29, 15, 40, 12, 255326)'
p2184
asbasbasbag56
(g72
g58
NtRp2185
(dp2186
g61
(dp2187
sg70
g66
sg63
(lp2188
g56
(g77
g58
NtRp2189
(dp2190
g61
(dp2191
g81
g82
ssg70
g2185
sg63
(lp2192
S'uuid'
p2193
asbag56
(g77
g58
NtRp2194
(dp2195
g61
(dp2196
g88
g89
ssg70
g2185
sg63
(lp2197
S':'
asbag56
(g77
g58
NtRp2198
(dp2199
g61
(dp2200
sg70
g2185
sg63
(lp2201
g56
(g57
g58
NtRp2202
(dp2203
g61
(dp2204
g69
I5
ssg70
g2198
sg63
(lp2205
S'welcome/127.0.0.1.2011-09-29.08-40-12.d528991e-a407-4fc5-823c-9cb2e11892dc'
p2206
asbasbasbag56
(g72
g58
NtRp2207
(dp2208
g61
(dp2209
sg70
g66
sg63
(lp2210
g56
(g77
g58
NtRp2211
(dp2212
g61
(dp2213
g81
g82
ssg70
g2207
sg63
(lp2214
S'vars'
p2215
asbag56
(g77
g58
NtRp2216
(dp2217
g61
(dp2218
g88
g89
ssg70
g2207
sg63
(lp2219
S':'
asbag56
(g77
g58
NtRp2220
(dp2221
g61
(dp2222
sg70
g2207
sg63
(lp2223
g56
(g57
g58
NtRp2224
(dp2225
g61
(dp2226
g69
I5
ssg70
g2220
sg63
(lp2227
g56
(g65
g58
NtRp2228
(dp2229
g61
(dp2230
g69
I4
ssg70
Nsg63
(lp2231
sbasbasbasbag56
(g72
g58
NtRp2232
(dp2233
g61
(dp2234
sg70
g66
sg63
(lp2235
g56
(g77
g58
NtRp2236
(dp2237
g61
(dp2238
g81
g82
ssg70
g2232
sg63
(lp2239
S'wsgi'
p2240
asbag56
(g77
g58
NtRp2241
(dp2242
g61
(dp2243
g88
g89
ssg70
g2232
sg63
(lp2244
S':'
asbag56
(g77
g58
NtRp2245
(dp2246
g61
(dp2247
sg70
g2232
sg63
(lp2248
g56
(g57
g58
NtRp2249
(dp2250
g61
(dp2251
g69
I5
ssg70
g2245
sg63
(lp2252
g56
(g65
g58
NtRp2253
(dp2254
g61
(dp2255
g69
I4
ssg70
Nsg63
(lp2256
g56
(g72
g58
NtRp2257
(dp2258
g61
(dp2259
sg70
g2253
sg63
(lp2260
g56
(g77
g58
NtRp2261
(dp2262
g61
(dp2263
g81
g82
ssg70
g2257
sg63
(lp2264
S'environ'
p2265
asbag56
(g77
g58
NtRp2266
(dp2267
g61
(dp2268
g88
g89
ssg70
g2257
sg63
(lp2269
S':'
asbag56
(g77
g58
NtRp2270
(dp2271
g61
(dp2272
sg70
g2257
sg63
(lp2273
g56
(g57
g58
NtRp2274
(dp2275
g61
(dp2276
g69
I4
ssg70
g2270
sg63
(lp2277
g56
(g65
g58
NtRp2278
(dp2279
g61
(dp2280
g69
I3
ssg70
Nsg63
(lp2281
g56
(g72
g58
NtRp2282
(dp2283
g61
(dp2284
sg70
g2278
sg63
(lp2285
g56
(g77
g58
NtRp2286
(dp2287
g61
(dp2288
g81
g82
ssg70
g2282
sg63
(lp2289
S'HTTP_ACCEPT'
p2290
asbag56
(g77
g58
NtRp2291
(dp2292
g61
(dp2293
g88
g89
ssg70
g2282
sg63
(lp2294
S':'
asbag56
(g77
g58
NtRp2295
(dp2296
g61
(dp2297
sg70
g2282
sg63
(lp2298
g56
(g57
g58
NtRp2299
(dp2300
g61
(dp2301
g69
I3
ssg70
g2295
sg63
(lp2302
g830
asbasbasbag56
(g72
g58
NtRp2303
(dp2304
g61
(dp2305
sg70
g2278
sg63
(lp2306
g56
(g77
g58
NtRp2307
(dp2308
g61
(dp2309
g81
g82
ssg70
g2303
sg63
(lp2310
S'HTTP_ACCEPT_CHARSET'
p2311
asbag56
(g77
g58
NtRp2312
(dp2313
g61
(dp2314
g88
g89
ssg70
g2303
sg63
(lp2315
S':'
asbag56
(g77
g58
NtRp2316
(dp2317
g61
(dp2318
sg70
g2303
sg63
(lp2319
g56
(g57
g58
NtRp2320
(dp2321
g61
(dp2322
g69
I3
ssg70
g2316
sg63
(lp2323
g852
asbasbasbag56
(g72
g58
NtRp2324
(dp2325
g61
(dp2326
sg70
g2278
sg63
(lp2327
g56
(g77
g58
NtRp2328
(dp2329
g61
(dp2330
g81
g82
ssg70
g2324
sg63
(lp2331
S'HTTP_ACCEPT_ENCODING'
p2332
asbag56
(g77
g58
NtRp2333
(dp2334
g61
(dp2335
g88
g89
ssg70
g2324
sg63
(lp2336
S':'
asbag56
(g77
g58
NtRp2337
(dp2338
g61
(dp2339
sg70
g2324
sg63
(lp2340
g56
(g57
g58
NtRp2341
(dp2342
g61
(dp2343
g69
I3
ssg70
g2337
sg63
(lp2344
g874
asbasbasbag56
(g72
g58
NtRp2345
(dp2346
g61
(dp2347
sg70
g2278
sg63
(lp2348
g56
(g77
g58
NtRp2349
(dp2350
g61
(dp2351
g81
g82
ssg70
g2345
sg63
(lp2352
S'HTTP_ACCEPT_LANGUAGE'
p2353
asbag56
(g77
g58
NtRp2354
(dp2355
g61
(dp2356
g88
g89
ssg70
g2345
sg63
(lp2357
S':'
asbag56
(g77
g58
NtRp2358
(dp2359
g61
(dp2360
sg70
g2345
sg63
(lp2361
g56
(g57
g58
NtRp2362
(dp2363
g61
(dp2364
g69
I3
ssg70
g2358
sg63
(lp2365
g896
asbasbasbag56
(g72
g58
NtRp2366
(dp2367
g61
(dp2368
sg70
g2278
sg63
(lp2369
g56
(g77
g58
NtRp2370
(dp2371
g61
(dp2372
g81
g82
ssg70
g2366
sg63
(lp2373
S'HTTP_CACHE_CONTROL'
p2374
asbag56
(g77
g58
NtRp2375
(dp2376
g61
(dp2377
g88
g89
ssg70
g2366
sg63
(lp2378
S':'
asbag56
(g77
g58
NtRp2379
(dp2380
g61
(dp2381
sg70
g2366
sg63
(lp2382
g56
(g57
g58
NtRp2383
(dp2384
g61
(dp2385
g69
I3
ssg70
g2379
sg63
(lp2386
g918
asbasbasbag56
(g72
g58
NtRp2387
(dp2388
g61
(dp2389
sg70
g2278
sg63
(lp2390
g56
(g77
g58
NtRp2391
(dp2392
g61
(dp2393
g81
g82
ssg70
g2387
sg63
(lp2394
S'HTTP_CONNECTION'
p2395
asbag56
(g77
g58
NtRp2396
(dp2397
g61
(dp2398
g88
g89
ssg70
g2387
sg63
(lp2399
S':'
asbag56
(g77
g58
NtRp2400
(dp2401
g61
(dp2402
sg70
g2387
sg63
(lp2403
g56
(g57
g58
NtRp2404
(dp2405
g61
(dp2406
g69
I3
ssg70
g2400
sg63
(lp2407
g940
asbasbasbag56
(g72
g58
NtRp2408
(dp2409
g61
(dp2410
sg70
g2278
sg63
(lp2411
g56
(g77
g58
NtRp2412
(dp2413
g61
(dp2414
g81
g82
ssg70
g2408
sg63
(lp2415
S'HTTP_COOKIE'
p2416
asbag56
(g77
g58
NtRp2417
(dp2418
g61
(dp2419
g88
g89
ssg70
g2408
sg63
(lp2420
S':'
asbag56
(g77
g58
NtRp2421
(dp2422
g61
(dp2423
sg70
g2408
sg63
(lp2424
g56
(g57
g58
NtRp2425
(dp2426
g61
(dp2427
g69
I3
ssg70
g2421
sg63
(lp2428
g962
asbasbasbag56
(g72
g58
NtRp2429
(dp2430
g61
(dp2431
sg70
g2278
sg63
(lp2432
g56
(g77
g58
NtRp2433
(dp2434
g61
(dp2435
g81
g82
ssg70
g2429
sg63
(lp2436
S'HTTP_HOST'
p2437
asbag56
(g77
g58
NtRp2438
(dp2439
g61
(dp2440
g88
g89
ssg70
g2429
sg63
(lp2441
S':'
asbag56
(g77
g58
NtRp2442
(dp2443
g61
(dp2444
sg70
g2429
sg63
(lp2445
g56
(g57
g58
NtRp2446
(dp2447
g61
(dp2448
g69
I3
ssg70
g2442
sg63
(lp2449
g984
asbasbasbag56
(g72
g58
NtRp2450
(dp2451
g61
(dp2452
sg70
g2278
sg63
(lp2453
g56
(g77
g58
NtRp2454
(dp2455
g61
(dp2456
g81
g82
ssg70
g2450
sg63
(lp2457
S'HTTP_REFERER'
p2458
asbag56
(g77
g58
NtRp2459
(dp2460
g61
(dp2461
g88
g89
ssg70
g2450
sg63
(lp2462
S':'
asbag56
(g77
g58
NtRp2463
(dp2464
g61
(dp2465
sg70
g2450
sg63
(lp2466
g56
(g57
g58
NtRp2467
(dp2468
g61
(dp2469
g69
I3
ssg70
g2463
sg63
(lp2470
g1006
asbasbasbag56
(g72
g58
NtRp2471
(dp2472
g61
(dp2473
sg70
g2278
sg63
(lp2474
g56
(g77
g58
NtRp2475
(dp2476
g61
(dp2477
g81
g82
ssg70
g2471
sg63
(lp2478
S'HTTP_USER_AGENT'
p2479
asbag56
(g77
g58
NtRp2480
(dp2481
g61
(dp2482
g88
g89
ssg70
g2471
sg63
(lp2483
S':'
asbag56
(g77
g58
NtRp2484
(dp2485
g61
(dp2486
sg70
g2471
sg63
(lp2487
g56
(g57
g58
NtRp2488
(dp2489
g61
(dp2490
g69
I3
ssg70
g2484
sg63
(lp2491
g1028
asbasbasbag56
(g72
g58
NtRp2492
(dp2493
g61
(dp2494
sg70
g2278
sg63
(lp2495
g56
(g77
g58
NtRp2496
(dp2497
g61
(dp2498
g81
g82
ssg70
g2492
sg63
(lp2499
S'PATH_INFO'
p2500
asbag56
(g77
g58
NtRp2501
(dp2502
g61
(dp2503
g88
g89
ssg70
g2492
sg63
(lp2504
S':'
asbag56
(g77
g58
NtRp2505
(dp2506
g61
(dp2507
sg70
g2492
sg63
(lp2508
g56
(g57
g58
NtRp2509
(dp2510
g61
(dp2511
g69
I3
ssg70
g2505
sg63
(lp2512
g1071
asbasbasbag56
(g72
g58
NtRp2513
(dp2514
g61
(dp2515
sg70
g2278
sg63
(lp2516
g56
(g77
g58
NtRp2517
(dp2518
g61
(dp2519
g81
g82
ssg70
g2513
sg63
(lp2520
S'QUERY_STRING'
p2521
asbag56
(g77
g58
NtRp2522
(dp2523
g61
(dp2524
g88
g89
ssg70
g2513
sg63
(lp2525
S':'
asbag56
(g77
g58
NtRp2526
(dp2527
g61
(dp2528
sg70
g2513
sg63
(lp2529
g56
(g57
g58
NtRp2530
(dp2531
g61
(dp2532
g69
I3
ssg70
g2526
sg63
(lp2533
S''
asbasbasbag56
(g72
g58
NtRp2534
(dp2535
g61
(dp2536
sg70
g2278
sg63
(lp2537
g56
(g77
g58
NtRp2538
(dp2539
g61
(dp2540
g81
g82
ssg70
g2534
sg63
(lp2541
S'REMOTE_ADDR'
p2542
asbag56
(g77
g58
NtRp2543
(dp2544
g61
(dp2545
g88
g89
ssg70
g2534
sg63
(lp2546
S':'
asbag56
(g77
g58
NtRp2547
(dp2548
g61
(dp2549
sg70
g2534
sg63
(lp2550
g56
(g57
g58
NtRp2551
(dp2552
g61
(dp2553
g69
I3
ssg70
g2547
sg63
(lp2554
g202
asbasbasbag56
(g72
g58
NtRp2555
(dp2556
g61
(dp2557
sg70
g2278
sg63
(lp2558
g56
(g77
g58
NtRp2559
(dp2560
g61
(dp2561
g81
g82
ssg70
g2555
sg63
(lp2562
S'REMOTE_PORT'
p2563
asbag56
(g77
g58
NtRp2564
(dp2565
g61
(dp2566
g88
g89
ssg70
g2555
sg63
(lp2567
S':'
asbag56
(g77
g58
NtRp2568
(dp2569
g61
(dp2570
sg70
g2555
sg63
(lp2571
g56
(g57
g58
NtRp2572
(dp2573
g61
(dp2574
g69
I3
ssg70
g2568
sg63
(lp2575
g1135
asbasbasbag56
(g72
g58
NtRp2576
(dp2577
g61
(dp2578
sg70
g2278
sg63
(lp2579
g56
(g77
g58
NtRp2580
(dp2581
g61
(dp2582
g81
g82
ssg70
g2576
sg63
(lp2583
S'REQUEST_METHOD'
p2584
asbag56
(g77
g58
NtRp2585
(dp2586
g61
(dp2587
g88
g89
ssg70
g2576
sg63
(lp2588
S':'
asbag56
(g77
g58
NtRp2589
(dp2590
g61
(dp2591
sg70
g2576
sg63
(lp2592
g56
(g57
g58
NtRp2593
(dp2594
g61
(dp2595
g69
I3
ssg70
g2589
sg63
(lp2596
g1157
asbasbasbag56
(g72
g58
NtRp2597
(dp2598
g61
(dp2599
sg70
g2278
sg63
(lp2600
g56
(g77
g58
NtRp2601
(dp2602
g61
(dp2603
g81
g82
ssg70
g2597
sg63
(lp2604
S'REQUEST_URI'
p2605
asbag56
(g77
g58
NtRp2606
(dp2607
g61
(dp2608
g88
g89
ssg70
g2597
sg63
(lp2609
S':'
asbag56
(g77
g58
NtRp2610
(dp2611
g61
(dp2612
sg70
g2597
sg63
(lp2613
g56
(g57
g58
NtRp2614
(dp2615
g61
(dp2616
g69
I3
ssg70
g2610
sg63
(lp2617
g1179
asbasbasbag56
(g72
g58
NtRp2618
(dp2619
g61
(dp2620
sg70
g2278
sg63
(lp2621
g56
(g77
g58
NtRp2622
(dp2623
g61
(dp2624
g81
g82
ssg70
g2618
sg63
(lp2625
S'SCRIPT_NAME'
p2626
asbag56
(g77
g58
NtRp2627
(dp2628
g61
(dp2629
g88
g89
ssg70
g2618
sg63
(lp2630
S':'
asbag56
(g77
g58
NtRp2631
(dp2632
g61
(dp2633
sg70
g2618
sg63
(lp2634
g56
(g57
g58
NtRp2635
(dp2636
g61
(dp2637
g69
I3
ssg70
g2631
sg63
(lp2638
S''
asbasbasbag56
(g72
g58
NtRp2639
(dp2640
g61
(dp2641
sg70
g2278
sg63
(lp2642
g56
(g77
g58
NtRp2643
(dp2644
g61
(dp2645
g81
g82
ssg70
g2639
sg63
(lp2646
S'SERVER_NAME'
p2647
asbag56
(g77
g58
NtRp2648
(dp2649
g61
(dp2650
g88
g89
ssg70
g2639
sg63
(lp2651
S':'
asbag56
(g77
g58
NtRp2652
(dp2653
g61
(dp2654
sg70
g2639
sg63
(lp2655
g56
(g57
g58
NtRp2656
(dp2657
g61
(dp2658
g69
I3
ssg70
g2652
sg63
(lp2659
g1222
asbasbasbag56
(g72
g58
NtRp2660
(dp2661
g61
(dp2662
sg70
g2278
sg63
(lp2663
g56
(g77
g58
NtRp2664
(dp2665
g61
(dp2666
g81
g82
ssg70
g2660
sg63
(lp2667
S'SERVER_PORT'
p2668
asbag56
(g77
g58
NtRp2669
(dp2670
g61
(dp2671
g88
g89
ssg70
g2660
sg63
(lp2672
S':'
asbag56
(g77
g58
NtRp2673
(dp2674
g61
(dp2675
sg70
g2660
sg63
(lp2676
g56
(g57
g58
NtRp2677
(dp2678
g61
(dp2679
g69
I3
ssg70
g2673
sg63
(lp2680
g1244
asbasbasbag56
(g72
g58
NtRp2681
(dp2682
g61
(dp2683
sg70
g2278
sg63
(lp2684
g56
(g77
g58
NtRp2685
(dp2686
g61
(dp2687
g81
g82
ssg70
g2681
sg63
(lp2688
S'SERVER_PROTOCOL'
p2689
asbag56
(g77
g58
NtRp2690
(dp2691
g61
(dp2692
g88
g89
ssg70
g2681
sg63
(lp2693
S':'
asbag56
(g77
g58
NtRp2694
(dp2695
g61
(dp2696
sg70
g2681
sg63
(lp2697
g56
(g57
g58
NtRp2698
(dp2699
g61
(dp2700
g69
I3
ssg70
g2694
sg63
(lp2701
g1266
asbasbasbag56
(g72
g58
NtRp2702
(dp2703
g61
(dp2704
sg70
g2278
sg63
(lp2705
g56
(g77
g58
NtRp2706
(dp2707
g61
(dp2708
g81
g82
ssg70
g2702
sg63
(lp2709
S'SERVER_SOFTWARE'
p2710
asbag56
(g77
g58
NtRp2711
(dp2712
g61
(dp2713
g88
g89
ssg70
g2702
sg63
(lp2714
S':'
asbag56
(g77
g58
NtRp2715
(dp2716
g61
(dp2717
sg70
g2702
sg63
(lp2718
g56
(g57
g58
NtRp2719
(dp2720
g61
(dp2721
g69
I3
ssg70
g2715
sg63
(lp2722
g1288
asbasbasbag56
(g72
g58
NtRp2723
(dp2724
g61
(dp2725
sg70
g2278
sg63
(lp2726
g56
(g77
g58
NtRp2727
(dp2728
g61
(dp2729
g81
g82
ssg70
g2723
sg63
(lp2730
S'WEB2PY_ORIGINAL_URI'
p2731
asbag56
(g77
g58
NtRp2732
(dp2733
g61
(dp2734
g88
g89
ssg70
g2723
sg63
(lp2735
S':'
asbag56
(g77
g58
NtRp2736
(dp2737
g61
(dp2738
sg70
g2723
sg63
(lp2739
g56
(g57
g58
NtRp2740
(dp2741
g61
(dp2742
g69
I3
ssg70
g2736
sg63
(lp2743
g1071
asbasbasbag56
(g72
g58
NtRp2744
(dp2745
g61
(dp2746
sg70
g2278
sg63
(lp2747
g56
(g77
g58
NtRp2748
(dp2749
g61
(dp2750
g81
g82
ssg70
g2744
sg63
(lp2751
S'wsgi.errors'
p2752
asbag56
(g77
g58
NtRp2753
(dp2754
g61
(dp2755
g88
g89
ssg70
g2744
sg63
(lp2756
S':'
asbag56
(g77
g58
NtRp2757
(dp2758
g61
(dp2759
sg70
g2744
sg63
(lp2760
g56
(g57
g58
NtRp2761
(dp2762
g61
(dp2763
g69
I3
ssg70
g2757
sg63
(lp2764
S"<open file '<stderr>', mode 'w' at 0x100416140>"
p2765
asbasbasbag56
(g72
g58
NtRp2766
(dp2767
g61
(dp2768
sg70
g2278
sg63
(lp2769
g56
(g77
g58
NtRp2770
(dp2771
g61
(dp2772
g81
g82
ssg70
g2766
sg63
(lp2773
S'wsgi.file_wrapper'
p2774
asbag56
(g77
g58
NtRp2775
(dp2776
g61
(dp2777
g88
g89
ssg70
g2766
sg63
(lp2778
S':'
asbag56
(g77
g58
NtRp2779
(dp2780
g61
(dp2781
sg70
g2766
sg63
(lp2782
g56
(g57
g58
NtRp2783
(dp2784
g61
(dp2785
g69
I3
ssg70
g2779
sg63
(lp2786
S'<class wsgiref.util.FileWrapper at 0x1014a2bf0>'
p2787
asbasbasbag56
(g72
g58
NtRp2788
(dp2789
g61
(dp2790
sg70
g2278
sg63
(lp2791
g56
(g77
g58
NtRp2792
(dp2793
g61
(dp2794
g81
g82
ssg70
g2788
sg63
(lp2795
S'wsgi.input'
p2796
asbag56
(g77
g58
NtRp2797
(dp2798
g61
(dp2799
g88
g89
ssg70
g2788
sg63
(lp2800
S':'
asbag56
(g77
g58
NtRp2801
(dp2802
g61
(dp2803
sg70
g2788
sg63
(lp2804
g56
(g57
g58
NtRp2805
(dp2806
g61
(dp2807
g69
I3
ssg70
g2801
sg63
(lp2808
S'<cStringIO.StringO object at 0x101acaea0>'
p2809
asbasbasbag56
(g72
g58
NtRp2810
(dp2811
g61
(dp2812
sg70
g2278
sg63
(lp2813
g56
(g77
g58
NtRp2814
(dp2815
g61
(dp2816
g81
g82
ssg70
g2810
sg63
(lp2817
S'wsgi.multiprocess'
p2818
asbag56
(g77
g58
NtRp2819
(dp2820
g61
(dp2821
g88
g89
ssg70
g2810
sg63
(lp2822
S':'
asbag56
(g77
g58
NtRp2823
(dp2824
g61
(dp2825
sg70
g2810
sg63
(lp2826
g56
(g57
g58
NtRp2827
(dp2828
g61
(dp2829
g69
I3
ssg70
g2823
sg63
(lp2830
g99
asbasbasbag56
(g72
g58
NtRp2831
(dp2832
g61
(dp2833
sg70
g2278
sg63
(lp2834
g56
(g77
g58
NtRp2835
(dp2836
g61
(dp2837
g81
g82
ssg70
g2831
sg63
(lp2838
S'wsgi.multithread'
p2839
asbag56
(g77
g58
NtRp2840
(dp2841
g61
(dp2842
g88
g89
ssg70
g2831
sg63
(lp2843
S':'
asbag56
(g77
g58
NtRp2844
(dp2845
g61
(dp2846
sg70
g2831
sg63
(lp2847
g56
(g57
g58
NtRp2848
(dp2849
g61
(dp2850
g69
I3
ssg70
g2844
sg63
(lp2851
g1549
asbasbasbag56
(g72
g58
NtRp2852
(dp2853
g61
(dp2854
sg70
g2278
sg63
(lp2855
g56
(g77
g58
NtRp2856
(dp2857
g61
(dp2858
g81
g82
ssg70
g2852
sg63
(lp2859
S'wsgi.run_once'
p2860
asbag56
(g77
g58
NtRp2861
(dp2862
g61
(dp2863
g88
g89
ssg70
g2852
sg63
(lp2864
S':'
asbag56
(g77
g58
NtRp2865
(dp2866
g61
(dp2867
sg70
g2852
sg63
(lp2868
g56
(g57
g58
NtRp2869
(dp2870
g61
(dp2871
g69
I3
ssg70
g2865
sg63
(lp2872
g99
asbasbasbag56
(g72
g58
NtRp2873
(dp2874
g61
(dp2875
sg70
g2278
sg63
(lp2876
g56
(g77
g58
NtRp2877
(dp2878
g61
(dp2879
g81
g82
ssg70
g2873
sg63
(lp2880
S'wsgi.url_scheme'
p2881
asbag56
(g77
g58
NtRp2882
(dp2883
g61
(dp2884
g88
g89
ssg70
g2873
sg63
(lp2885
S':'
asbag56
(g77
g58
NtRp2886
(dp2887
g61
(dp2888
sg70
g2873
sg63
(lp2889
g56
(g57
g58
NtRp2890
(dp2891
g61
(dp2892
g69
I3
ssg70
g2886
sg63
(lp2893
g1592
asbasbasbag56
(g72
g58
NtRp2894
(dp2895
g61
(dp2896
sg70
g2278
sg63
(lp2897
g56
(g77
g58
NtRp2898
(dp2899
g61
(dp2900
g81
g82
ssg70
g2894
sg63
(lp2901
S'wsgi.version'
p2902
asbag56
(g77
g58
NtRp2903
(dp2904
g61
(dp2905
g88
g89
ssg70
g2894
sg63
(lp2906
S':'
asbag56
(g77
g58
NtRp2907
(dp2908
g61
(dp2909
sg70
g2894
sg63
(lp2910
g56
(g57
g58
NtRp2911
(dp2912
g61
(dp2913
g69
I3
ssg70
g2907
sg63
(lp2914
S'1'
asbasbasbasbasbasbasbasbasbasbasbasbasbsS'frames'
p2915
(lp2916
(dp2917
S'file'
p2918
S'/Users/excon/Sites/dreamscape/gluon/restricted.py'
p2919
sS'dump'
p2920
(dp2921
S'environment'
p2922
S"{'A': <class 'gluon.html.A'>, 'Auth': <class 'gluon.tools.Auth'>, 'B': <class 'gluon.html.B'>, 'BEAUTIFY': <class 'gluon.html.BEAUTIFY'>, 'BODY': <class 'gluon.html.BODY'>, 'BR': <class 'gluon.html.BR'>, 'BUTTON': <class 'gluon.html.BUTTON'>, 'CAT': <class 'gluon.html.CAT'>, 'CENTER': <class 'gluon.html.CENTER'>, 'CLEANUP': <class 'gluon.validators.CLEANUP'>, ...}"
p2923
sS'ccode'
p2924
S'<code object <module> at 0x101a4e738, file "/Use...cations/welcome/controllers/default.py", line 12>'
p2925
ssS'lnum'
p2926
I194
sS'lines'
p2927
(dp2928
I192
S'        else:'
p2929
sI193
S'            ccode = compile2(code,layer)'
p2930
sI194
S'        exec ccode in environment'
p2931
sI195
S'    except HTTP:'
p2932
sI196
S'        raise'
p2933
sI197
S'    except Exception, error:'
p2934
sI198
S'        # XXX Show exception in Wing IDE if running in debugger'
p2935
sI189
S'    try:'
p2936
sI190
S'        if type(code) == types.CodeType:'
p2937
sI191
S'            ccode = code'
p2938
ssS'call'
p2939
S"(code='# -*- coding: utf-8 -*-\\n# this file is released ...m=crud())\\n\\nresponse._vars=response._caller(user)\\n', environment={'A': <class 'gluon.html.A'>, 'Auth': <class 'gluon.tools.Auth'>, 'B': <class 'gluon.html.B'>, 'BEAUTIFY': <class 'gluon.html.BEAUTIFY'>, 'BODY': <class 'gluon.html.BODY'>, 'BR': <class 'gluon.html.BR'>, 'BUTTON': <class 'gluon.html.BUTTON'>, 'CAT': <class 'gluon.html.CAT'>, 'CENTER': <class 'gluon.html.CENTER'>, 'CLEANUP': <class 'gluon.validators.CLEANUP'>, ...}, layer='/Users/excon/Sites/dreamscape/applications/welcome/controllers/default.py')"
p2940
sS'func'
p2941
S'restricted'
p2942
sa(dp2943
g2918
S'/Users/excon/Sites/dreamscape/applications/welcome/controllers/default.py'
p2944
sg2920
(dp2945
sg2926
I98
sg2927
(dp2946
I96
S'    return dict(form=crud())'
p2947
sI87
S'    http://..../[app]/default/data/select/[table]'
p2948
sI88
S'    http://..../[app]/default/data/search/[table]'
p2949
sI89
S'    but URLs bust be signed, i.e. linked with'
p2950
sI90
S"      A('table',_href=URL('data/tables',user_signature=True))"
p2951
sI91
S'    or with the signed load operator'
p2952
sI92
S"      LOAD('default','data.load',args='tables',ajax=True,user_signature=True)"
p2953
sI93
S'    """'
p2954
sI94
S'    if COMING_SOON:'
p2955
sI95
S"        redirect(URL(r=request, f='coming_soon'))"
p2956
ssg2939
S'()'
p2957
sg2941
S'<module>'
p2958
sa(dp2959
g2918
S'/Users/excon/Sites/dreamscape/gluon/globals.py'
p2960
sg2920
(dp2961
S'self'
p2962
S'undefined'
p2963
sS'f'
S'<function user at 0x101a4e8c0>'
p2964
ssg2926
I149
sg2927
(dp2965
I144
S'        self.meta = Storage()      # used by web2py_ajax.html'
p2966
sI145
S'        self.menu = []             # used by the default view layout'
p2967
sI146
S'        self.files = []            # used by web2py_ajax.html'
p2968
sI147
S'        self.generic_patterns = [] # patterns to allow generic views'
p2969
sI148
S'        self._vars = None'
p2970
sI149
S'        self._caller = lambda f: f()'
p2971
sI150
S'        self._view_environment = None'
p2972
sI151
S'        self._custom_commit = None'
p2973
sI152
S'        self._custom_rollback = None'
p2974
sI153
S''
ssg2939
S'(f=<function user at 0x101a4e8c0>)'
p2975
sg2941
S'<lambda>'
p2976
sa(dp2977
g2918
S'/Users/excon/Sites/dreamscape/applications/welcome/controllers/default.py'
p2978
sg2920
(dp2979
S'form'
p2980
g2963
sS'f'
g2963
sS'global request'
p2981
S"<Storage {'body': <cStringIO.StringO object at 0..._vars': <Storage {}>, 'post_vars': <Storage {}>}>"
p2982
sS'global auth'
p2983
S'<gluon.tools.Auth object at 0x101a4cc90>'
p2984
sS'global URL'
p2985
S'<function URL at 0x100554de8>'
p2986
sS'builtinnext'
p2987
S'<built-in function next>'
p2988
sS'r'
g2963
sS'builtindict'
p2989
S"<type 'dict'>"
p2990
ssg2926
I54
sg2927
(dp2991
I49
S'    to decorate functions that need access control'
p2992
sI50
S'    """'
p2993
sI51
S'    if COMING_SOON:'
p2994
sI52
S"        redirect(URL(r=request, f='coming_soon'))"
p2995
sI53
S''
sI54
S"    return dict(form=auth(next=URL(r=request, f='comint_soon')))"
p2996
sI55
S''
sI56
S''
sI57
S'def download():'
p2997
sI58
S'    """'
p2998
ssg2939
S'()'
p2999
sg2941
S'user'
p3000
sasS'pyver'
p3001
S'Python 2.6.1: /usr/bin/python'
p3002
sS'session'
p3003
g56
(g57
g58
NtRp3004
(dp3005
g61
(dp3006
sg63
(lp3007
g56
(g65
g58
NtRp3008
(dp3009
g61
(dp3010
g69
I5
ssg70
Nsg63
(lp3011
sbasbsS'etype'
p3012
S"<type 'exceptions.TypeError'>"
p3013
sS'date'
p3014
S'Thu Sep 29 08:40:12 2011'
p3015
sS'response'
p3016
g56
(g57
g58
NtRp3017
(dp3018
g61
(dp3019
sg63
(lp3020
g56
(g65
g58
NtRp3021
(dp3022
g61
(dp3023
g69
I5
ssg70
Nsg63
(lp3024
g56
(g72
g58
NtRp3025
(dp3026
g61
(dp3027
sg70
g3021
sg63
(lp3028
g56
(g77
g58
NtRp3029
(dp3030
g61
(dp3031
g81
g82
ssg70
g3025
sg63
(lp3032
g167
asbag56
(g77
g58
NtRp3033
(dp3034
g61
(dp3035
g88
g89
ssg70
g3025
sg63
(lp3036
S':'
asbag56
(g77
g58
NtRp3037
(dp3038
g61
(dp3039
sg70
g3025
sg63
(lp3040
g56
(g57
g58
NtRp3041
(dp3042
g61
(dp3043
g69
I5
ssg70
g3037
sg63
(lp3044
S'<cStringIO.StringO object at 0x101a08260>'
p3045
asbasbasbag56
(g72
g58
NtRp3046
(dp3047
g61
(dp3048
sg70
g3021
sg63
(lp3049
g56
(g77
g58
NtRp3050
(dp3051
g61
(dp3052
g81
g82
ssg70
g3046
sg63
(lp3053
g233
asbag56
(g77
g58
NtRp3054
(dp3055
g61
(dp3056
g88
g89
ssg70
g3046
sg63
(lp3057
S':'
asbag56
(g77
g58
NtRp3058
(dp3059
g61
(dp3060
sg70
g3046
sg63
(lp3061
g56
(g57
g58
NtRp3062
(dp3063
g61
(dp3064
g69
I5
ssg70
g3058
sg63
(lp3065
g56
(g65
g58
NtRp3066
(dp3067
g61
(dp3068
g69
I4
ssg70
Nsg63
(lp3069
g56
(g72
g58
NtRp3070
(dp3071
g61
(dp3072
sg70
g3066
sg63
(lp3073
g56
(g77
g58
NtRp3074
(dp3075
g61
(dp3076
g81
g82
ssg70
g3070
sg63
(lp3077
S'session_id_welcome'
p3078
asbag56
(g77
g58
NtRp3079
(dp3080
g61
(dp3081
g88
g89
ssg70
g3070
sg63
(lp3082
S':'
asbag56
(g77
g58
NtRp3083
(dp3084
g61
(dp3085
sg70
g3070
sg63
(lp3086
g56
(g57
g58
NtRp3087
(dp3088
g61
(dp3089
g69
I4
ssg70
g3083
sg63
(lp3090
g56
(g65
g58
NtRp3091
(dp3092
g61
(dp3093
g69
I3
ssg70
Nsg63
(lp3094
g56
(g72
g58
NtRp3095
(dp3096
g61
(dp3097
sg70
g3091
sg63
(lp3098
g56
(g77
g58
NtRp3099
(dp3100
g61
(dp3101
g81
g82
ssg70
g3095
sg63
(lp3102
g283
asbag56
(g77
g58
NtRp3103
(dp3104
g61
(dp3105
g88
g89
ssg70
g3095
sg63
(lp3106
S':'
asbag56
(g77
g58
NtRp3107
(dp3108
g61
(dp3109
sg70
g3095
sg63
(lp3110
g56
(g57
g58
NtRp3111
(dp3112
g61
(dp3113
g69
I3
ssg70
g3107
sg63
(lp3114
S''
asbasbasbag56
(g72
g58
NtRp3115
(dp3116
g61
(dp3117
sg70
g3091
sg63
(lp3118
g56
(g77
g58
NtRp3119
(dp3120
g61
(dp3121
g81
g82
ssg70
g3115
sg63
(lp3122
g304
asbag56
(g77
g58
NtRp3123
(dp3124
g61
(dp3125
g88
g89
ssg70
g3115
sg63
(lp3126
S':'
asbag56
(g77
g58
NtRp3127
(dp3128
g61
(dp3129
sg70
g3115
sg63
(lp3130
g56
(g57
g58
NtRp3131
(dp3132
g61
(dp3133
g69
I3
ssg70
g3127
sg63
(lp3134
S''
asbasbasbag56
(g72
g58
NtRp3135
(dp3136
g61
(dp3137
sg70
g3091
sg63
(lp3138
g56
(g77
g58
NtRp3139
(dp3140
g61
(dp3141
g81
g82
ssg70
g3135
sg63
(lp3142
g325
asbag56
(g77
g58
NtRp3143
(dp3144
g61
(dp3145
g88
g89
ssg70
g3135
sg63
(lp3146
S':'
asbag56
(g77
g58
NtRp3147
(dp3148
g61
(dp3149
sg70
g3135
sg63
(lp3150
g56
(g57
g58
NtRp3151
(dp3152
g61
(dp3153
g69
I3
ssg70
g3147
sg63
(lp3154
S''
asbasbasbag56
(g72
g58
NtRp3155
(dp3156
g61
(dp3157
sg70
g3091
sg63
(lp3158
g56
(g77
g58
NtRp3159
(dp3160
g61
(dp3161
g81
g82
ssg70
g3155
sg63
(lp3162
g346
asbag56
(g77
g58
NtRp3163
(dp3164
g61
(dp3165
g88
g89
ssg70
g3155
sg63
(lp3166
S':'
asbag56
(g77
g58
NtRp3167
(dp3168
g61
(dp3169
sg70
g3155
sg63
(lp3170
g56
(g57
g58
NtRp3171
(dp3172
g61
(dp3173
g69
I3
ssg70
g3167
sg63
(lp3174
S''
asbasbasbag56
(g72
g58
NtRp3175
(dp3176
g61
(dp3177
sg70
g3091
sg63
(lp3178
g56
(g77
g58
NtRp3179
(dp3180
g61
(dp3181
g81
g82
ssg70
g3175
sg63
(lp3182
g367
asbag56
(g77
g58
NtRp3183
(dp3184
g61
(dp3185
g88
g89
ssg70
g3175
sg63
(lp3186
S':'
asbag56
(g77
g58
NtRp3187
(dp3188
g61
(dp3189
sg70
g3175
sg63
(lp3190
g56
(g57
g58
NtRp3191
(dp3192
g61
(dp3193
g69
I3
ssg70
g3187
sg63
(lp3194
S''
asbasbasbag56
(g72
g58
NtRp3195
(dp3196
g61
(dp3197
sg70
g3091
sg63
(lp3198
g56
(g77
g58
NtRp3199
(dp3200
g61
(dp3201
g81
g82
ssg70
g3195
sg63
(lp3202
g388
asbag56
(g77
g58
NtRp3203
(dp3204
g61
(dp3205
g88
g89
ssg70
g3195
sg63
(lp3206
S':'
asbag56
(g77
g58
NtRp3207
(dp3208
g61
(dp3209
sg70
g3195
sg63
(lp3210
g56
(g57
g58
NtRp3211
(dp3212
g61
(dp3213
g69
I3
ssg70
g3207
sg63
(lp3214
S'/'
asbasbasbag56
(g72
g58
NtRp3215
(dp3216
g61
(dp3217
sg70
g3091
sg63
(lp3218
g56
(g77
g58
NtRp3219
(dp3220
g61
(dp3221
g81
g82
ssg70
g3215
sg63
(lp3222
g409
asbag56
(g77
g58
NtRp3223
(dp3224
g61
(dp3225
g88
g89
ssg70
g3215
sg63
(lp3226
S':'
asbag56
(g77
g58
NtRp3227
(dp3228
g61
(dp3229
sg70
g3215
sg63
(lp3230
g56
(g57
g58
NtRp3231
(dp3232
g61
(dp3233
g69
I3
ssg70
g3227
sg63
(lp3234
S''
asbasbasbag56
(g72
g58
NtRp3235
(dp3236
g61
(dp3237
sg70
g3091
sg63
(lp3238
g56
(g77
g58
NtRp3239
(dp3240
g61
(dp3241
g81
g82
ssg70
g3235
sg63
(lp3242
g430
asbag56
(g77
g58
NtRp3243
(dp3244
g61
(dp3245
g88
g89
ssg70
g3235
sg63
(lp3246
S':'
asbag56
(g77
g58
NtRp3247
(dp3248
g61
(dp3249
sg70
g3235
sg63
(lp3250
g56
(g57
g58
NtRp3251
(dp3252
g61
(dp3253
g69
I3
ssg70
g3247
sg63
(lp3254
S''
asbasbasbasbasbasbasbasbasbasbasbag56
(g72
g58
NtRp3255
(dp3256
g61
(dp3257
sg70
g3021
sg63
(lp3258
g56
(g77
g58
NtRp3259
(dp3260
g61
(dp3261
g81
g82
ssg70
g3255
sg63
(lp3262
S'files'
p3263
asbag56
(g77
g58
NtRp3264
(dp3265
g61
(dp3266
g88
g89
ssg70
g3255
sg63
(lp3267
S':'
asbag56
(g77
g58
NtRp3268
(dp3269
g61
(dp3270
sg70
g3255
sg63
(lp3271
g56
(g57
g58
NtRp3272
(dp3273
g61
(dp3274
g69
I5
ssg70
g3268
sg63
(lp3275
g56
(g65
g58
NtRp3276
(dp3277
g61
(dp3278
g69
I4
ssg70
Nsg63
(lp3279
sbasbasbasbag56
(g72
g58
NtRp3280
(dp3281
g61
(dp3282
sg70
g3021
sg63
(lp3283
g56
(g77
g58
NtRp3284
(dp3285
g61
(dp3286
g81
g82
ssg70
g3280
sg63
(lp3287
S'flash'
p3288
asbag56
(g77
g58
NtRp3289
(dp3290
g61
(dp3291
g88
g89
ssg70
g3280
sg63
(lp3292
S':'
asbag56
(g77
g58
NtRp3293
(dp3294
g61
(dp3295
sg70
g3280
sg63
(lp3296
g56
(g57
g58
NtRp3297
(dp3298
g61
(dp3299
g69
I5
ssg70
g3293
sg63
(lp3300
S''
asbasbasbag56
(g72
g58
NtRp3301
(dp3302
g61
(dp3303
sg70
g3021
sg63
(lp3304
g56
(g77
g58
NtRp3305
(dp3306
g61
(dp3307
g81
g82
ssg70
g3301
sg63
(lp3308
S'generic_patterns'
p3309
asbag56
(g77
g58
NtRp3310
(dp3311
g61
(dp3312
g88
g89
ssg70
g3301
sg63
(lp3313
S':'
asbag56
(g77
g58
NtRp3314
(dp3315
g61
(dp3316
sg70
g3301
sg63
(lp3317
g56
(g57
g58
NtRp3318
(dp3319
g61
(dp3320
g69
I5
ssg70
g3314
sg63
(lp3321
g56
(g65
g58
NtRp3322
(dp3323
g61
(dp3324
g69
I4
ssg70
Nsg63
(lp3325
g56
(g72
g58
NtRp3326
(dp3327
g61
(dp3328
sg70
g3322
sg63
(lp3329
g56
(g77
g58
NtRp3330
(dp3331
g61
(dp3332
sg70
g3326
sg63
(lp3333
g56
(g57
g58
NtRp3334
(dp3335
g61
(dp3336
g69
I4
ssg70
g3330
sg63
(lp3337
S'*'
asbasbasbasbasbasbasbag56
(g72
g58
NtRp3338
(dp3339
g61
(dp3340
sg70
g3021
sg63
(lp3341
g56
(g77
g58
NtRp3342
(dp3343
g61
(dp3344
g81
g82
ssg70
g3338
sg63
(lp3345
S'headers'
p3346
asbag56
(g77
g58
NtRp3347
(dp3348
g61
(dp3349
g88
g89
ssg70
g3338
sg63
(lp3350
S':'
asbag56
(g77
g58
NtRp3351
(dp3352
g61
(dp3353
sg70
g3338
sg63
(lp3354
g56
(g57
g58
NtRp3355
(dp3356
g61
(dp3357
g69
I5
ssg70
g3351
sg63
(lp3358
g56
(g65
g58
NtRp3359
(dp3360
g61
(dp3361
g69
I4
ssg70
Nsg63
(lp3362
g56
(g72
g58
NtRp3363
(dp3364
g61
(dp3365
sg70
g3359
sg63
(lp3366
g56
(g77
g58
NtRp3367
(dp3368
g61
(dp3369
g81
g82
ssg70
g3363
sg63
(lp3370
S'Cache-Control'
p3371
asbag56
(g77
g58
NtRp3372
(dp3373
g61
(dp3374
g88
g89
ssg70
g3363
sg63
(lp3375
S':'
asbag56
(g77
g58
NtRp3376
(dp3377
g61
(dp3378
sg70
g3363
sg63
(lp3379
g56
(g57
g58
NtRp3380
(dp3381
g61
(dp3382
g69
I4
ssg70
g3376
sg63
(lp3383
S'no-store, no-cache, must-revalidate, post-check=0, pre-check=0'
p3384
asbasbasbag56
(g72
g58
NtRp3385
(dp3386
g61
(dp3387
sg70
g3359
sg63
(lp3388
g56
(g77
g58
NtRp3389
(dp3390
g61
(dp3391
g81
g82
ssg70
g3385
sg63
(lp3392
S'Content-Type'
p3393
asbag56
(g77
g58
NtRp3394
(dp3395
g61
(dp3396
g88
g89
ssg70
g3385
sg63
(lp3397
S':'
asbag56
(g77
g58
NtRp3398
(dp3399
g61
(dp3400
sg70
g3385
sg63
(lp3401
g56
(g57
g58
NtRp3402
(dp3403
g61
(dp3404
g69
I4
ssg70
g3398
sg63
(lp3405
S'text/html; charset=utf-8'
p3406
asbasbasbag56
(g72
g58
NtRp3407
(dp3408
g61
(dp3409
sg70
g3359
sg63
(lp3410
g56
(g77
g58
NtRp3411
(dp3412
g61
(dp3413
g81
g82
ssg70
g3407
sg63
(lp3414
S'Expires'
p3415
asbag56
(g77
g58
NtRp3416
(dp3417
g61
(dp3418
g88
g89
ssg70
g3407
sg63
(lp3419
S':'
asbag56
(g77
g58
NtRp3420
(dp3421
g61
(dp3422
sg70
g3407
sg63
(lp3423
g56
(g57
g58
NtRp3424
(dp3425
g61
(dp3426
g69
I4
ssg70
g3420
sg63
(lp3427
S'Thu, 29 Sep 2011 15:40:12 GMT'
p3428
asbasbasbag56
(g72
g58
NtRp3429
(dp3430
g61
(dp3431
sg70
g3359
sg63
(lp3432
g56
(g77
g58
NtRp3433
(dp3434
g61
(dp3435
g81
g82
ssg70
g3429
sg63
(lp3436
S'Pragma'
p3437
asbag56
(g77
g58
NtRp3438
(dp3439
g61
(dp3440
g88
g89
ssg70
g3429
sg63
(lp3441
S':'
asbag56
(g77
g58
NtRp3442
(dp3443
g61
(dp3444
sg70
g3429
sg63
(lp3445
g56
(g57
g58
NtRp3446
(dp3447
g61
(dp3448
g69
I4
ssg70
g3442
sg63
(lp3449
S'no-cache'
p3450
asbasbasbag56
(g72
g58
NtRp3451
(dp3452
g61
(dp3453
sg70
g3359
sg63
(lp3454
g56
(g77
g58
NtRp3455
(dp3456
g61
(dp3457
g81
g82
ssg70
g3451
sg63
(lp3458
S'X-Powered-By'
p3459
asbag56
(g77
g58
NtRp3460
(dp3461
g61
(dp3462
g88
g89
ssg70
g3451
sg63
(lp3463
S':'
asbag56
(g77
g58
NtRp3464
(dp3465
g61
(dp3466
sg70
g3451
sg63
(lp3467
g56
(g57
g58
NtRp3468
(dp3469
g61
(dp3470
g69
I4
ssg70
g3464
sg63
(lp3471
S'web2py'
p3472
asbasbasbasbasbasbasbag56
(g72
g58
NtRp3473
(dp3474
g61
(dp3475
sg70
g3021
sg63
(lp3476
g56
(g77
g58
NtRp3477
(dp3478
g61
(dp3479
g81
g82
ssg70
g3473
sg63
(lp3480
S'menu'
p3481
asbag56
(g77
g58
NtRp3482
(dp3483
g61
(dp3484
g88
g89
ssg70
g3473
sg63
(lp3485
S':'
asbag56
(g77
g58
NtRp3486
(dp3487
g61
(dp3488
sg70
g3473
sg63
(lp3489
g56
(g57
g58
NtRp3490
(dp3491
g61
(dp3492
g69
I5
ssg70
g3486
sg63
(lp3493
g56
(g65
g58
NtRp3494
(dp3495
g61
(dp3496
g69
I4
ssg70
Nsg63
(lp3497
g56
(g72
g58
NtRp3498
(dp3499
g61
(dp3500
sg70
g3494
sg63
(lp3501
g56
(g77
g58
NtRp3502
(dp3503
g61
(dp3504
sg70
g3498
sg63
(lp3505
g56
(g57
g58
NtRp3506
(dp3507
g61
(dp3508
g69
I4
ssg70
g3502
sg63
(lp3509
g56
(g65
g58
NtRp3510
(dp3511
g61
(dp3512
g69
I3
ssg70
Nsg63
(lp3513
g56
(g72
g58
NtRp3514
(dp3515
g61
(dp3516
sg70
g3510
sg63
(lp3517
g56
(g77
g58
NtRp3518
(dp3519
g61
(dp3520
sg70
g3514
sg63
(lp3521
g56
(g57
g58
NtRp3522
(dp3523
g61
(dp3524
g69
I3
ssg70
g3518
sg63
(lp3525
cgluon.languages
lazyT_unpickle
p3526
(S's\x04\x00\x00\x00Home'
tRp3527
asbasbasbag56
(g72
g58
NtRp3528
(dp3529
g61
(dp3530
sg70
g3510
sg63
(lp3531
g56
(g77
g58
NtRp3532
(dp3533
g61
(dp3534
sg70
g3528
sg63
(lp3535
g56
(g57
g58
NtRp3536
(dp3537
g61
(dp3538
g69
I3
ssg70
g3532
sg63
(lp3539
g99
asbasbasbag56
(g72
g58
NtRp3540
(dp3541
g61
(dp3542
sg70
g3510
sg63
(lp3543
g56
(g77
g58
NtRp3544
(dp3545
g61
(dp3546
sg70
g3540
sg63
(lp3547
g56
(g57
g58
NtRp3548
(dp3549
g61
(dp3550
g69
I3
ssg70
g3544
sg63
(lp3551
S'/'
asbasbasbag56
(g72
g58
NtRp3552
(dp3553
g61
(dp3554
sg70
g3510
sg63
(lp3555
g56
(g77
g58
NtRp3556
(dp3557
g61
(dp3558
sg70
g3552
sg63
(lp3559
g56
(g57
g58
NtRp3560
(dp3561
g61
(dp3562
g69
I3
ssg70
g3556
sg63
(lp3563
g56
(g65
g58
NtRp3564
(dp3565
g61
(dp3566
g69
I2
ssg70
Nsg63
(lp3567
sbasbasbasbasbasbasbasbag56
(g72
g58
NtRp3568
(dp3569
g61
(dp3570
sg70
g3494
sg63
(lp3571
g56
(g77
g58
NtRp3572
(dp3573
g61
(dp3574
sg70
g3568
sg63
(lp3575
g56
(g57
g58
NtRp3576
(dp3577
g61
(dp3578
g69
I4
ssg70
g3572
sg63
(lp3579
g56
(g65
g58
NtRp3580
(dp3581
g61
(dp3582
g69
I3
ssg70
Nsg63
(lp3583
g56
(g72
g58
NtRp3584
(dp3585
g61
(dp3586
sg70
g3580
sg63
(lp3587
g56
(g77
g58
NtRp3588
(dp3589
g61
(dp3590
sg70
g3584
sg63
(lp3591
g56
(g57
g58
NtRp3592
(dp3593
g61
(dp3594
g69
I3
ssg70
g3588
sg63
(lp3595
g3526
(S's\x08\x00\x00\x00This App'
tRp3596
asbasbasbag56
(g72
g58
NtRp3597
(dp3598
g61
(dp3599
sg70
g3580
sg63
(lp3600
g56
(g77
g58
NtRp3601
(dp3602
g61
(dp3603
sg70
g3597
sg63
(lp3604
g56
(g57
g58
NtRp3605
(dp3606
g61
(dp3607
g69
I3
ssg70
g3601
sg63
(lp3608
g99
asbasbasbag56
(g72
g58
NtRp3609
(dp3610
g61
(dp3611
sg70
g3580
sg63
(lp3612
g56
(g77
g58
NtRp3613
(dp3614
g61
(dp3615
sg70
g3609
sg63
(lp3616
g56
(g57
g58
NtRp3617
(dp3618
g61
(dp3619
g69
I3
ssg70
g3613
sg63
(lp3620
S'/admin/design/welcome'
p3621
asbasbasbag56
(g72
g58
NtRp3622
(dp3623
g61
(dp3624
sg70
g3580
sg63
(lp3625
g56
(g77
g58
NtRp3626
(dp3627
g61
(dp3628
sg70
g3622
sg63
(lp3629
g56
(g57
g58
NtRp3630
(dp3631
g61
(dp3632
g69
I3
ssg70
g3626
sg63
(lp3633
g56
(g65
g58
NtRp3634
(dp3635
g61
(dp3636
g69
I2
ssg70
Nsg63
(lp3637
g56
(g72
g58
NtRp3638
(dp3639
g61
(dp3640
sg70
g3634
sg63
(lp3641
g56
(g77
g58
NtRp3642
(dp3643
g61
(dp3644
sg70
g3638
sg63
(lp3645
g56
(g57
g58
NtRp3646
(dp3647
g61
(dp3648
g69
I2
ssg70
g3642
sg63
(lp3649
g56
(g65
g58
NtRp3650
(dp3651
g61
(dp3652
g69
I1
ssg70
Nsg63
(lp3653
g56
(g72
g58
NtRp3654
(dp3655
g61
(dp3656
sg70
g3650
sg63
(lp3657
g56
(g77
g58
NtRp3658
(dp3659
g61
(dp3660
sg70
g3654
sg63
(lp3661
g56
(g57
g58
NtRp3662
(dp3663
g61
(dp3664
g69
I1
ssg70
g3658
sg63
(lp3665
g3526
(S's\n\x00\x00\x00Controller'
tRp3666
asbasbasbag56
(g72
g58
NtRp3667
(dp3668
g61
(dp3669
sg70
g3650
sg63
(lp3670
g56
(g77
g58
NtRp3671
(dp3672
g61
(dp3673
sg70
g3667
sg63
(lp3674
g56
(g57
g58
NtRp3675
(dp3676
g61
(dp3677
g69
I1
ssg70
g3671
sg63
(lp3678
I00
asbasbasbag56
(g72
g58
NtRp3679
(dp3680
g61
(dp3681
sg70
g3650
sg63
(lp3682
g56
(g77
g58
NtRp3683
(dp3684
g61
(dp3685
sg70
g3679
sg63
(lp3686
g56
(g57
g58
NtRp3687
(dp3688
g61
(dp3689
g69
I1
ssg70
g3683
sg63
(lp3690
S'/admin/edit/welcome/controllers/default.py'
p3691
asbasbasbasbasbasbasbag56
(g72
g58
NtRp3692
(dp3693
g61
(dp3694
sg70
g3634
sg63
(lp3695
g56
(g77
g58
NtRp3696
(dp3697
g61
(dp3698
sg70
g3692
sg63
(lp3699
g56
(g57
g58
NtRp3700
(dp3701
g61
(dp3702
g69
I2
ssg70
g3696
sg63
(lp3703
g56
(g65
g58
NtRp3704
(dp3705
g61
(dp3706
g69
I1
ssg70
Nsg63
(lp3707
g56
(g72
g58
NtRp3708
(dp3709
g61
(dp3710
sg70
g3704
sg63
(lp3711
g56
(g77
g58
NtRp3712
(dp3713
g61
(dp3714
sg70
g3708
sg63
(lp3715
g56
(g57
g58
NtRp3716
(dp3717
g61
(dp3718
g69
I1
ssg70
g3712
sg63
(lp3719
g3526
(S's\x04\x00\x00\x00View'
tRp3720
asbasbasbag56
(g72
g58
NtRp3721
(dp3722
g61
(dp3723
sg70
g3704
sg63
(lp3724
g56
(g77
g58
NtRp3725
(dp3726
g61
(dp3727
sg70
g3721
sg63
(lp3728
g56
(g57
g58
NtRp3729
(dp3730
g61
(dp3731
g69
I1
ssg70
g3725
sg63
(lp3732
I00
asbasbasbag56
(g72
g58
NtRp3733
(dp3734
g61
(dp3735
sg70
g3704
sg63
(lp3736
g56
(g77
g58
NtRp3737
(dp3738
g61
(dp3739
sg70
g3733
sg63
(lp3740
g56
(g57
g58
NtRp3741
(dp3742
g61
(dp3743
g69
I1
ssg70
g3737
sg63
(lp3744
S'/admin/edit/welcome/views/default/user.html'
p3745
asbasbasbasbasbasbasbag56
(g72
g58
NtRp3746
(dp3747
g61
(dp3748
sg70
g3634
sg63
(lp3749
g56
(g77
g58
NtRp3750
(dp3751
g61
(dp3752
sg70
g3746
sg63
(lp3753
g56
(g57
g58
NtRp3754
(dp3755
g61
(dp3756
g69
I2
ssg70
g3750
sg63
(lp3757
g56
(g65
g58
NtRp3758
(dp3759
g61
(dp3760
g69
I1
ssg70
Nsg63
(lp3761
g56
(g72
g58
NtRp3762
(dp3763
g61
(dp3764
sg70
g3758
sg63
(lp3765
g56
(g77
g58
NtRp3766
(dp3767
g61
(dp3768
sg70
g3762
sg63
(lp3769
g56
(g57
g58
NtRp3770
(dp3771
g61
(dp3772
g69
I1
ssg70
g3766
sg63
(lp3773
g3526
(S's\x06\x00\x00\x00Layout'
tRp3774
asbasbasbag56
(g72
g58
NtRp3775
(dp3776
g61
(dp3777
sg70
g3758
sg63
(lp3778
g56
(g77
g58
NtRp3779
(dp3780
g61
(dp3781
sg70
g3775
sg63
(lp3782
g56
(g57
g58
NtRp3783
(dp3784
g61
(dp3785
g69
I1
ssg70
g3779
sg63
(lp3786
I00
asbasbasbag56
(g72
g58
NtRp3787
(dp3788
g61
(dp3789
sg70
g3758
sg63
(lp3790
g56
(g77
g58
NtRp3791
(dp3792
g61
(dp3793
sg70
g3787
sg63
(lp3794
g56
(g57
g58
NtRp3795
(dp3796
g61
(dp3797
g69
I1
ssg70
g3791
sg63
(lp3798
S'/admin/edit/welcome/views/layout.html'
p3799
asbasbasbasbasbasbasbag56
(g72
g58
NtRp3800
(dp3801
g61
(dp3802
sg70
g3634
sg63
(lp3803
g56
(g77
g58
NtRp3804
(dp3805
g61
(dp3806
sg70
g3800
sg63
(lp3807
g56
(g57
g58
NtRp3808
(dp3809
g61
(dp3810
g69
I2
ssg70
g3804
sg63
(lp3811
g56
(g65
g58
NtRp3812
(dp3813
g61
(dp3814
g69
I1
ssg70
Nsg63
(lp3815
g56
(g72
g58
NtRp3816
(dp3817
g61
(dp3818
sg70
g3812
sg63
(lp3819
g56
(g77
g58
NtRp3820
(dp3821
g61
(dp3822
sg70
g3816
sg63
(lp3823
g56
(g57
g58
NtRp3824
(dp3825
g61
(dp3826
g69
I1
ssg70
g3820
sg63
(lp3827
g3526
(S's\n\x00\x00\x00Stylesheet'
tRp3828
asbasbasbag56
(g72
g58
NtRp3829
(dp3830
g61
(dp3831
sg70
g3812
sg63
(lp3832
g56
(g77
g58
NtRp3833
(dp3834
g61
(dp3835
sg70
g3829
sg63
(lp3836
g56
(g57
g58
NtRp3837
(dp3838
g61
(dp3839
g69
I1
ssg70
g3833
sg63
(lp3840
I00
asbasbasbag56
(g72
g58
NtRp3841
(dp3842
g61
(dp3843
sg70
g3812
sg63
(lp3844
g56
(g77
g58
NtRp3845
(dp3846
g61
(dp3847
sg70
g3841
sg63
(lp3848
g56
(g57
g58
NtRp3849
(dp3850
g61
(dp3851
g69
I1
ssg70
g3845
sg63
(lp3852
S'/admin/edit/welcome/static/base.css'
p3853
asbasbasbasbasbasbasbag56
(g72
g58
NtRp3854
(dp3855
g61
(dp3856
sg70
g3634
sg63
(lp3857
g56
(g77
g58
NtRp3858
(dp3859
g61
(dp3860
sg70
g3854
sg63
(lp3861
g56
(g57
g58
NtRp3862
(dp3863
g61
(dp3864
g69
I2
ssg70
g3858
sg63
(lp3865
g56
(g65
g58
NtRp3866
(dp3867
g61
(dp3868
g69
I1
ssg70
Nsg63
(lp3869
g56
(g72
g58
NtRp3870
(dp3871
g61
(dp3872
sg70
g3866
sg63
(lp3873
g56
(g77
g58
NtRp3874
(dp3875
g61
(dp3876
sg70
g3870
sg63
(lp3877
g56
(g57
g58
NtRp3878
(dp3879
g61
(dp3880
g69
I1
ssg70
g3874
sg63
(lp3881
g3526
(S's\x08\x00\x00\x00DB Model'
tRp3882
asbasbasbag56
(g72
g58
NtRp3883
(dp3884
g61
(dp3885
sg70
g3866
sg63
(lp3886
g56
(g77
g58
NtRp3887
(dp3888
g61
(dp3889
sg70
g3883
sg63
(lp3890
g56
(g57
g58
NtRp3891
(dp3892
g61
(dp3893
g69
I1
ssg70
g3887
sg63
(lp3894
I00
asbasbasbag56
(g72
g58
NtRp3895
(dp3896
g61
(dp3897
sg70
g3866
sg63
(lp3898
g56
(g77
g58
NtRp3899
(dp3900
g61
(dp3901
sg70
g3895
sg63
(lp3902
g56
(g57
g58
NtRp3903
(dp3904
g61
(dp3905
g69
I1
ssg70
g3899
sg63
(lp3906
S'/admin/edit/welcome/models/db.py'
p3907
asbasbasbasbasbasbasbag56
(g72
g58
NtRp3908
(dp3909
g61
(dp3910
sg70
g3634
sg63
(lp3911
g56
(g77
g58
NtRp3912
(dp3913
g61
(dp3914
sg70
g3908
sg63
(lp3915
g56
(g57
g58
NtRp3916
(dp3917
g61
(dp3918
g69
I2
ssg70
g3912
sg63
(lp3919
g56
(g65
g58
NtRp3920
(dp3921
g61
(dp3922
g69
I1
ssg70
Nsg63
(lp3923
g56
(g72
g58
NtRp3924
(dp3925
g61
(dp3926
sg70
g3920
sg63
(lp3927
g56
(g77
g58
NtRp3928
(dp3929
g61
(dp3930
sg70
g3924
sg63
(lp3931
g56
(g57
g58
NtRp3932
(dp3933
g61
(dp3934
g69
I1
ssg70
g3928
sg63
(lp3935
g3526
(S's\n\x00\x00\x00Menu Model'
tRp3936
asbasbasbag56
(g72
g58
NtRp3937
(dp3938
g61
(dp3939
sg70
g3920
sg63
(lp3940
g56
(g77
g58
NtRp3941
(dp3942
g61
(dp3943
sg70
g3937
sg63
(lp3944
g56
(g57
g58
NtRp3945
(dp3946
g61
(dp3947
g69
I1
ssg70
g3941
sg63
(lp3948
I00
asbasbasbag56
(g72
g58
NtRp3949
(dp3950
g61
(dp3951
sg70
g3920
sg63
(lp3952
g56
(g77
g58
NtRp3953
(dp3954
g61
(dp3955
sg70
g3949
sg63
(lp3956
g56
(g57
g58
NtRp3957
(dp3958
g61
(dp3959
g69
I1
ssg70
g3953
sg63
(lp3960
S'/admin/edit/welcome/models/menu.py'
p3961
asbasbasbasbasbasbasbag56
(g72
g58
NtRp3962
(dp3963
g61
(dp3964
sg70
g3634
sg63
(lp3965
g56
(g77
g58
NtRp3966
(dp3967
g61
(dp3968
sg70
g3962
sg63
(lp3969
g56
(g57
g58
NtRp3970
(dp3971
g61
(dp3972
g69
I2
ssg70
g3966
sg63
(lp3973
g56
(g65
g58
NtRp3974
(dp3975
g61
(dp3976
g69
I1
ssg70
Nsg63
(lp3977
g56
(g72
g58
NtRp3978
(dp3979
g61
(dp3980
sg70
g3974
sg63
(lp3981
g56
(g77
g58
NtRp3982
(dp3983
g61
(dp3984
sg70
g3978
sg63
(lp3985
g56
(g57
g58
NtRp3986
(dp3987
g61
(dp3988
g69
I1
ssg70
g3982
sg63
(lp3989
g3526
(S's\x08\x00\x00\x00Database'
tRp3990
asbasbasbag56
(g72
g58
NtRp3991
(dp3992
g61
(dp3993
sg70
g3974
sg63
(lp3994
g56
(g77
g58
NtRp3995
(dp3996
g61
(dp3997
sg70
g3991
sg63
(lp3998
g56
(g57
g58
NtRp3999
(dp4000
g61
(dp4001
g69
I1
ssg70
g3995
sg63
(lp4002
I00
asbasbasbag56
(g72
g58
NtRp4003
(dp4004
g61
(dp4005
sg70
g3974
sg63
(lp4006
g56
(g77
g58
NtRp4007
(dp4008
g61
(dp4009
sg70
g4003
sg63
(lp4010
g56
(g57
g58
NtRp4011
(dp4012
g61
(dp4013
g69
I1
ssg70
g4007
sg63
(lp4014
S'/appadmin'
p4015
asbasbasbasbasbasbasbag56
(g72
g58
NtRp4016
(dp4017
g61
(dp4018
sg70
g3634
sg63
(lp4019
g56
(g77
g58
NtRp4020
(dp4021
g61
(dp4022
sg70
g4016
sg63
(lp4023
g56
(g57
g58
NtRp4024
(dp4025
g61
(dp4026
g69
I2
ssg70
g4020
sg63
(lp4027
g56
(g65
g58
NtRp4028
(dp4029
g61
(dp4030
g69
I1
ssg70
Nsg63
(lp4031
g56
(g72
g58
NtRp4032
(dp4033
g61
(dp4034
sg70
g4028
sg63
(lp4035
g56
(g77
g58
NtRp4036
(dp4037
g61
(dp4038
sg70
g4032
sg63
(lp4039
g56
(g57
g58
NtRp4040
(dp4041
g61
(dp4042
g69
I1
ssg70
g4036
sg63
(lp4043
g3526
(S's\x06\x00\x00\x00Errors'
tRp4044
asbasbasbag56
(g72
g58
NtRp4045
(dp4046
g61
(dp4047
sg70
g4028
sg63
(lp4048
g56
(g77
g58
NtRp4049
(dp4050
g61
(dp4051
sg70
g4045
sg63
(lp4052
g56
(g57
g58
NtRp4053
(dp4054
g61
(dp4055
g69
I1
ssg70
g4049
sg63
(lp4056
I00
asbasbasbag56
(g72
g58
NtRp4057
(dp4058
g61
(dp4059
sg70
g4028
sg63
(lp4060
g56
(g77
g58
NtRp4061
(dp4062
g61
(dp4063
sg70
g4057
sg63
(lp4064
g56
(g57
g58
NtRp4065
(dp4066
g61
(dp4067
g69
I1
ssg70
g4061
sg63
(lp4068
S'/admin/errors/welcome'
p4069
asbasbasbasbasbasbasbag56
(g72
g58
NtRp4070
(dp4071
g61
(dp4072
sg70
g3634
sg63
(lp4073
g56
(g77
g58
NtRp4074
(dp4075
g61
(dp4076
sg70
g4070
sg63
(lp4077
g56
(g57
g58
NtRp4078
(dp4079
g61
(dp4080
g69
I2
ssg70
g4074
sg63
(lp4081
g56
(g65
g58
NtRp4082
(dp4083
g61
(dp4084
g69
I1
ssg70
Nsg63
(lp4085
g56
(g72
g58
NtRp4086
(dp4087
g61
(dp4088
sg70
g4082
sg63
(lp4089
g56
(g77
g58
NtRp4090
(dp4091
g61
(dp4092
sg70
g4086
sg63
(lp4093
g56
(g57
g58
NtRp4094
(dp4095
g61
(dp4096
g69
I1
ssg70
g4090
sg63
(lp4097
g3526
(S's\x05\x00\x00\x00About'
tRp4098
asbasbasbag56
(g72
g58
NtRp4099
(dp4100
g61
(dp4101
sg70
g4082
sg63
(lp4102
g56
(g77
g58
NtRp4103
(dp4104
g61
(dp4105
sg70
g4099
sg63
(lp4106
g56
(g57
g58
NtRp4107
(dp4108
g61
(dp4109
g69
I1
ssg70
g4103
sg63
(lp4110
I00
asbasbasbag56
(g72
g58
NtRp4111
(dp4112
g61
(dp4113
sg70
g4082
sg63
(lp4114
g56
(g77
g58
NtRp4115
(dp4116
g61
(dp4117
sg70
g4111
sg63
(lp4118
g56
(g57
g58
NtRp4119
(dp4120
g61
(dp4121
g69
I1
ssg70
g4115
sg63
(lp4122
S'/admin/about/welcome'
p4123
asbasbasbasbasbasbasbasbasbasbasbasbasbasbasbag56
(g72
g58
NtRp4124
(dp4125
g61
(dp4126
sg70
g3494
sg63
(lp4127
g56
(g77
g58
NtRp4128
(dp4129
g61
(dp4130
sg70
g4124
sg63
(lp4131
g56
(g57
g58
NtRp4132
(dp4133
g61
(dp4134
g69
I4
ssg70
g4128
sg63
(lp4135
g56
(g65
g58
NtRp4136
(dp4137
g61
(dp4138
g69
I3
ssg70
Nsg63
(lp4139
g56
(g72
g58
NtRp4140
(dp4141
g61
(dp4142
sg70
g4136
sg63
(lp4143
g56
(g77
g58
NtRp4144
(dp4145
g61
(dp4146
sg70
g4140
sg63
(lp4147
g56
(g57
g58
NtRp4148
(dp4149
g61
(dp4150
g69
I3
ssg70
g4144
sg63
(lp4151
g3526
(S's\t\x00\x00\x00Resources'
tRp4152
asbasbasbag56
(g72
g58
NtRp4153
(dp4154
g61
(dp4155
sg70
g4136
sg63
(lp4156
g56
(g77
g58
NtRp4157
(dp4158
g61
(dp4159
sg70
g4153
sg63
(lp4160
g56
(g57
g58
NtRp4161
(dp4162
g61
(dp4163
g69
I3
ssg70
g4157
sg63
(lp4164
g99
asbasbasbag56
(g72
g58
NtRp4165
(dp4166
g61
(dp4167
sg70
g4136
sg63
(lp4168
g56
(g77
g58
NtRp4169
(dp4170
g61
(dp4171
sg70
g4165
sg63
(lp4172
g56
(g57
g58
NtRp4173
(dp4174
g61
(dp4175
g69
I3
ssg70
g4169
sg63
(lp4176
S'None'
p4177
asbasbasbag56
(g72
g58
NtRp4178
(dp4179
g61
(dp4180
sg70
g4136
sg63
(lp4181
g56
(g77
g58
NtRp4182
(dp4183
g61
(dp4184
sg70
g4178
sg63
(lp4185
g56
(g57
g58
NtRp4186
(dp4187
g61
(dp4188
g69
I3
ssg70
g4182
sg63
(lp4189
g56
(g65
g58
NtRp4190
(dp4191
g61
(dp4192
g69
I2
ssg70
Nsg63
(lp4193
g56
(g72
g58
NtRp4194
(dp4195
g61
(dp4196
sg70
g4190
sg63
(lp4197
g56
(g77
g58
NtRp4198
(dp4199
g61
(dp4200
sg70
g4194
sg63
(lp4201
g56
(g57
g58
NtRp4202
(dp4203
g61
(dp4204
g69
I2
ssg70
g4198
sg63
(lp4205
g56
(g65
g58
NtRp4206
(dp4207
g61
(dp4208
g69
I1
ssg70
Nsg63
(lp4209
g56
(g72
g58
NtRp4210
(dp4211
g61
(dp4212
sg70
g4206
sg63
(lp4213
g56
(g77
g58
NtRp4214
(dp4215
g61
(dp4216
sg70
g4210
sg63
(lp4217
g56
(g57
g58
NtRp4218
(dp4219
g61
(dp4220
g69
I1
ssg70
g4214
sg63
(lp4221
g3526
(S's\r\x00\x00\x00Documentation'
tRp4222
asbasbasbag56
(g72
g58
NtRp4223
(dp4224
g61
(dp4225
sg70
g4206
sg63
(lp4226
g56
(g77
g58
NtRp4227
(dp4228
g61
(dp4229
sg70
g4223
sg63
(lp4230
g56
(g57
g58
NtRp4231
(dp4232
g61
(dp4233
g69
I1
ssg70
g4227
sg63
(lp4234
I00
asbasbasbag56
(g72
g58
NtRp4235
(dp4236
g61
(dp4237
sg70
g4206
sg63
(lp4238
g56
(g77
g58
NtRp4239
(dp4240
g61
(dp4241
sg70
g4235
sg63
(lp4242
g56
(g57
g58
NtRp4243
(dp4244
g61
(dp4245
g69
I1
ssg70
g4239
sg63
(lp4246
S'http://www.web2py.com/book'
p4247
asbasbasbag56
(g72
g58
NtRp4248
(dp4249
g61
(dp4250
sg70
g4206
sg63
(lp4251
g56
(g77
g58
NtRp4252
(dp4253
g61
(dp4254
sg70
g4248
sg63
(lp4255
g56
(g57
g58
NtRp4256
(dp4257
g61
(dp4258
g69
I1
ssg70
g4252
sg63
(lp4259
(lp4260
(g3526
(S's\x07\x00\x00\x00Preface'
tRp4261
I00
S'http://www.web2py.com/book/default/chapter/00'
p4262
tp4263
a(g3526
(S's\x0c\x00\x00\x00Introduction'
tRp4264
I00
S'http://www.web2py.com/book/default/chapter/01'
p4265
tp4266
a(g3526
(S's\x06\x00\x00\x00Python'
tRp4267
I00
S'http://www.web2py.com/book/default/chapter/02'
p4268
tp4269
a(g3526
(S's\x08\x00\x00\x00Overview'
tRp4270
I00
S'http://www.web2py.com/book/default/chapter/03'
p4271
tp4272
a(g3526
(S's\x08\x00\x00\x00The Core'
tRp4273
I00
S'http://www.web2py.com/book/default/chapter/04'
p4274
tp4275
a(g3526
(S's\t\x00\x00\x00The Views'
tRp4276
I00
S'http://www.web2py.com/book/default/chapter/05'
p4277
tp4278
a(g3526
(S's\x08\x00\x00\x00Database'
tRp4279
I00
S'http://www.web2py.com/book/default/chapter/06'
p4280
tp4281
a(g3526
(S's\x14\x00\x00\x00Forms and Validators'
tRp4282
I00
S'http://www.web2py.com/book/default/chapter/07'
p4283
tp4284
a(g3526
(S's\x0e\x00\x00\x00Access Control'
tRp4285
I00
S'http://www.web2py.com/book/default/chapter/08'
p4286
tp4287
a(g3526
(S's\x08\x00\x00\x00Services'
tRp4288
I00
S'http://www.web2py.com/book/default/chapter/09'
p4289
tp4290
a(g3526
(S's\x0c\x00\x00\x00Ajax Recipes'
tRp4291
I00
S'http://www.web2py.com/book/default/chapter/10'
p4292
tp4293
a(g3526
(S's\x12\x00\x00\x00Deployment Recipes'
tRp4294
I00
S'http://www.web2py.com/book/default/chapter/11'
p4295
tp4296
a(g3526
(S's\r\x00\x00\x00Other Recipes'
tRp4297
I00
S'http://www.web2py.com/book/default/chapter/12'
p4298
tp4299
a(g3526
(S's\r\x00\x00\x00Buy this book'
tRp4300
I00
S'http://stores.lulu.com/web2py'
p4301
tp4302
aasbasbasbasbasbasbasbag56
(g72
g58
NtRp4303
(dp4304
g61
(dp4305
sg70
g4190
sg63
(lp4306
g56
(g77
g58
NtRp4307
(dp4308
g61
(dp4309
sg70
g4303
sg63
(lp4310
g56
(g57
g58
NtRp4311
(dp4312
g61
(dp4313
g69
I2
ssg70
g4307
sg63
(lp4314
g56
(g65
g58
NtRp4315
(dp4316
g61
(dp4317
g69
I1
ssg70
Nsg63
(lp4318
g56
(g72
g58
NtRp4319
(dp4320
g61
(dp4321
sg70
g4315
sg63
(lp4322
g56
(g77
g58
NtRp4323
(dp4324
g61
(dp4325
sg70
g4319
sg63
(lp4326
g56
(g57
g58
NtRp4327
(dp4328
g61
(dp4329
g69
I1
ssg70
g4323
sg63
(lp4330
g3526
(S's\t\x00\x00\x00Community'
tRp4331
asbasbasbag56
(g72
g58
NtRp4332
(dp4333
g61
(dp4334
sg70
g4315
sg63
(lp4335
g56
(g77
g58
NtRp4336
(dp4337
g61
(dp4338
sg70
g4332
sg63
(lp4339
g56
(g57
g58
NtRp4340
(dp4341
g61
(dp4342
g69
I1
ssg70
g4336
sg63
(lp4343
I00
asbasbasbag56
(g72
g58
NtRp4344
(dp4345
g61
(dp4346
sg70
g4315
sg63
(lp4347
g56
(g77
g58
NtRp4348
(dp4349
g61
(dp4350
sg70
g4344
sg63
(lp4351
g56
(g57
g58
NtRp4352
(dp4353
g61
(dp4354
g69
I1
ssg70
g4348
sg63
(lp4355
Nasbasbasbag56
(g72
g58
NtRp4356
(dp4357
g61
(dp4358
sg70
g4315
sg63
(lp4359
g56
(g77
g58
NtRp4360
(dp4361
g61
(dp4362
sg70
g4356
sg63
(lp4363
g56
(g57
g58
NtRp4364
(dp4365
g61
(dp4366
g69
I1
ssg70
g4360
sg63
(lp4367
(lp4368
(g3526
(S's\x06\x00\x00\x00Groups'
tRp4369
I00
S'http://www.web2py.com/examples/default/usergroups'
p4370
tp4371
a(g3526
(S's\x07\x00\x00\x00Twitter'
tRp4372
I00
S'http://twitter.com/web2py'
p4373
tp4374
a(g3526
(S's\t\x00\x00\x00Live chat'
tRp4375
I00
S'http://mibbit.com/?channel=%23web2py&server=irc.mibbit.net'
p4376
tp4377
a(g3526
(S's\n\x00\x00\x00User Voice'
tRp4378
I00
S'http://web2py.uservoice.com/'
p4379
tp4380
aasbasbasbasbasbasbasbag56
(g72
g58
NtRp4381
(dp4382
g61
(dp4383
sg70
g4190
sg63
(lp4384
g56
(g77
g58
NtRp4385
(dp4386
g61
(dp4387
sg70
g4381
sg63
(lp4388
g56
(g57
g58
NtRp4389
(dp4390
g61
(dp4391
g69
I2
ssg70
g4385
sg63
(lp4392
g56
(g65
g58
NtRp4393
(dp4394
g61
(dp4395
g69
I1
ssg70
Nsg63
(lp4396
g56
(g72
g58
NtRp4397
(dp4398
g61
(dp4399
sg70
g4393
sg63
(lp4400
g56
(g77
g58
NtRp4401
(dp4402
g61
(dp4403
sg70
g4397
sg63
(lp4404
g56
(g57
g58
NtRp4405
(dp4406
g61
(dp4407
g69
I1
ssg70
g4401
sg63
(lp4408
g3526
(S's\x06\x00\x00\x00Web2py'
tRp4409
asbasbasbag56
(g72
g58
NtRp4410
(dp4411
g61
(dp4412
sg70
g4393
sg63
(lp4413
g56
(g77
g58
NtRp4414
(dp4415
g61
(dp4416
sg70
g4410
sg63
(lp4417
g56
(g57
g58
NtRp4418
(dp4419
g61
(dp4420
g69
I1
ssg70
g4414
sg63
(lp4421
I00
asbasbasbag56
(g72
g58
NtRp4422
(dp4423
g61
(dp4424
sg70
g4393
sg63
(lp4425
g56
(g77
g58
NtRp4426
(dp4427
g61
(dp4428
sg70
g4422
sg63
(lp4429
g56
(g57
g58
NtRp4430
(dp4431
g61
(dp4432
g69
I1
ssg70
g4426
sg63
(lp4433
S'http://www.web2py.com'
p4434
asbasbasbag56
(g72
g58
NtRp4435
(dp4436
g61
(dp4437
sg70
g4393
sg63
(lp4438
g56
(g77
g58
NtRp4439
(dp4440
g61
(dp4441
sg70
g4435
sg63
(lp4442
g56
(g57
g58
NtRp4443
(dp4444
g61
(dp4445
g69
I1
ssg70
g4439
sg63
(lp4446
(lp4447
(g3526
(S's\x08\x00\x00\x00Download'
tRp4448
I00
S'http://www.web2py.com/examples/default/download'
p4449
tp4450
a(g3526
(S's\x07\x00\x00\x00Support'
tRp4451
I00
S'http://www.web2py.com/examples/default/support'
p4452
tp4453
a(g3526
(S's\x0e\x00\x00\x00Quick Examples'
tRp4454
I00
S'http://web2py.com/examples/default/examples'
p4455
tp4456
a(g3526
(S's\x03\x00\x00\x00FAQ'
tRp4457
I00
S'http://web2py.com/AlterEgo'
p4458
tp4459
a(g3526
(S's\x11\x00\x00\x00Free Applications'
tRp4460
I00
S'http://web2py.com/appliances'
p4461
tp4462
a(g3526
(S's\x07\x00\x00\x00Plugins'
tRp4463
I00
S'http://web2py.com/plugins'
p4464
tp4465
a(g3526
(S's\x07\x00\x00\x00Recipes'
tRp4466
I00
S'http://web2pyslices.com/'
p4467
tp4468
a(g3526
(S's\x04\x00\x00\x00Demo'
tRp4469
I00
S'http://web2py.com/demo_admin'
p4470
tp4471
a(g3526
(S's\x08\x00\x00\x00Semantic'
tRp4472
I00
S'http://web2py.com/semantic'
p4473
tp4474
a(g3526
(S's\x07\x00\x00\x00Layouts'
tRp4475
I00
S'http://web2py.com/layouts'
p4476
tp4477
a(g3526
(S's\x06\x00\x00\x00Videos'
tRp4478
I00
S'http://www.web2py.com/examples/default/videos/'
p4479
tp4480
aasbasbasbasbasbasbasbasbasbasbasbasbasbasbasbasbasbasbasbag56
(g72
g58
NtRp4481
(dp4482
g61
(dp4483
sg70
g3021
sg63
(lp4484
g56
(g77
g58
NtRp4485
(dp4486
g61
(dp4487
g81
g82
ssg70
g4481
sg63
(lp4488
S'meta'
p4489
asbag56
(g77
g58
NtRp4490
(dp4491
g61
(dp4492
g88
g89
ssg70
g4481
sg63
(lp4493
S':'
asbag56
(g77
g58
NtRp4494
(dp4495
g61
(dp4496
sg70
g4481
sg63
(lp4497
g56
(g57
g58
NtRp4498
(dp4499
g61
(dp4500
g69
I5
ssg70
g4494
sg63
(lp4501
g56
(g65
g58
NtRp4502
(dp4503
g61
(dp4504
g69
I4
ssg70
Nsg63
(lp4505
g56
(g72
g58
NtRp4506
(dp4507
g61
(dp4508
sg70
g4502
sg63
(lp4509
g56
(g77
g58
NtRp4510
(dp4511
g61
(dp4512
g81
g82
ssg70
g4506
sg63
(lp4513
S'author'
p4514
asbag56
(g77
g58
NtRp4515
(dp4516
g61
(dp4517
g88
g89
ssg70
g4506
sg63
(lp4518
S':'
asbag56
(g77
g58
NtRp4519
(dp4520
g61
(dp4521
sg70
g4506
sg63
(lp4522
g56
(g57
g58
NtRp4523
(dp4524
g61
(dp4525
g69
I4
ssg70
g4519
sg63
(lp4526
S'Your Name <you@example.com>'
p4527
asbasbasbag56
(g72
g58
NtRp4528
(dp4529
g61
(dp4530
sg70
g4502
sg63
(lp4531
g56
(g77
g58
NtRp4532
(dp4533
g61
(dp4534
g81
g82
ssg70
g4528
sg63
(lp4535
S'copyright'
p4536
asbag56
(g77
g58
NtRp4537
(dp4538
g61
(dp4539
g88
g89
ssg70
g4528
sg63
(lp4540
S':'
asbag56
(g77
g58
NtRp4541
(dp4542
g61
(dp4543
sg70
g4528
sg63
(lp4544
g56
(g57
g58
NtRp4545
(dp4546
g61
(dp4547
g69
I4
ssg70
g4541
sg63
(lp4548
S'Copyright 2011'
p4549
asbasbasbag56
(g72
g58
NtRp4550
(dp4551
g61
(dp4552
sg70
g4502
sg63
(lp4553
g56
(g77
g58
NtRp4554
(dp4555
g61
(dp4556
g81
g82
ssg70
g4550
sg63
(lp4557
S'description'
p4558
asbag56
(g77
g58
NtRp4559
(dp4560
g61
(dp4561
g88
g89
ssg70
g4550
sg63
(lp4562
S':'
asbag56
(g77
g58
NtRp4563
(dp4564
g61
(dp4565
sg70
g4550
sg63
(lp4566
g56
(g57
g58
NtRp4567
(dp4568
g61
(dp4569
g69
I4
ssg70
g4563
sg63
(lp4570
S'a cool new app'
p4571
asbasbasbag56
(g72
g58
NtRp4572
(dp4573
g61
(dp4574
sg70
g4502
sg63
(lp4575
g56
(g77
g58
NtRp4576
(dp4577
g61
(dp4578
g81
g82
ssg70
g4572
sg63
(lp4579
S'generator'
p4580
asbag56
(g77
g58
NtRp4581
(dp4582
g61
(dp4583
g88
g89
ssg70
g4572
sg63
(lp4584
S':'
asbag56
(g77
g58
NtRp4585
(dp4586
g61
(dp4587
sg70
g4572
sg63
(lp4588
g56
(g57
g58
NtRp4589
(dp4590
g61
(dp4591
g69
I4
ssg70
g4585
sg63
(lp4592
S'Web2py Web Framework'
p4593
asbasbasbag56
(g72
g58
NtRp4594
(dp4595
g61
(dp4596
sg70
g4502
sg63
(lp4597
g56
(g77
g58
NtRp4598
(dp4599
g61
(dp4600
g81
g82
ssg70
g4594
sg63
(lp4601
S'keywords'
p4602
asbag56
(g77
g58
NtRp4603
(dp4604
g61
(dp4605
g88
g89
ssg70
g4594
sg63
(lp4606
S':'
asbag56
(g77
g58
NtRp4607
(dp4608
g61
(dp4609
sg70
g4594
sg63
(lp4610
g56
(g57
g58
NtRp4611
(dp4612
g61
(dp4613
g69
I4
ssg70
g4607
sg63
(lp4614
S'web2py, python, framework'
p4615
asbasbasbasbasbasbasbag56
(g72
g58
NtRp4616
(dp4617
g61
(dp4618
sg70
g3021
sg63
(lp4619
g56
(g77
g58
NtRp4620
(dp4621
g61
(dp4622
g81
g82
ssg70
g4616
sg63
(lp4623
S'postprocessing'
p4624
asbag56
(g77
g58
NtRp4625
(dp4626
g61
(dp4627
g88
g89
ssg70
g4616
sg63
(lp4628
S':'
asbag56
(g77
g58
NtRp4629
(dp4630
g61
(dp4631
sg70
g4616
sg63
(lp4632
g56
(g57
g58
NtRp4633
(dp4634
g61
(dp4635
g69
I5
ssg70
g4629
sg63
(lp4636
g56
(g65
g58
NtRp4637
(dp4638
g61
(dp4639
g69
I4
ssg70
Nsg63
(lp4640
sbasbasbasbag56
(g72
g58
NtRp4641
(dp4642
g61
(dp4643
sg70
g3021
sg63
(lp4644
g56
(g77
g58
NtRp4645
(dp4646
g61
(dp4647
g81
g82
ssg70
g4641
sg63
(lp4648
S'session_file'
p4649
asbag56
(g77
g58
NtRp4650
(dp4651
g61
(dp4652
g88
g89
ssg70
g4641
sg63
(lp4653
S':'
asbag56
(g77
g58
NtRp4654
(dp4655
g61
(dp4656
sg70
g4641
sg63
(lp4657
g56
(g57
g58
NtRp4658
(dp4659
g61
(dp4660
g69
I5
ssg70
g4654
sg63
(lp4661
S"<open file '/Users/excon/Sites/dreamscape/applications/welcome/sessions/127.0.0.1-8dfa8cd1-5b2c-419d-87ba-df200b08a648', mode 'rb+' at 0x116973e88>"
p4662
asbasbasbag56
(g72
g58
NtRp4663
(dp4664
g61
(dp4665
sg70
g3021
sg63
(lp4666
g56
(g77
g58
NtRp4667
(dp4668
g61
(dp4669
g81
g82
ssg70
g4663
sg63
(lp4670
S'session_filename'
p4671
asbag56
(g77
g58
NtRp4672
(dp4673
g61
(dp4674
g88
g89
ssg70
g4663
sg63
(lp4675
S':'
asbag56
(g77
g58
NtRp4676
(dp4677
g61
(dp4678
sg70
g4663
sg63
(lp4679
g56
(g57
g58
NtRp4680
(dp4681
g61
(dp4682
g69
I5
ssg70
g4676
sg63
(lp4683
S'/Users/excon/Sites/dreamscape/applications/welcome/sessions/127.0.0.1-8dfa8cd1-5b2c-419d-87ba-df200b08a648'
p4684
asbasbasbag56
(g72
g58
NtRp4685
(dp4686
g61
(dp4687
sg70
g3021
sg63
(lp4688
g56
(g77
g58
NtRp4689
(dp4690
g61
(dp4691
g81
g82
ssg70
g4685
sg63
(lp4692
S'session_id'
p4693
asbag56
(g77
g58
NtRp4694
(dp4695
g61
(dp4696
g88
g89
ssg70
g4685
sg63
(lp4697
S':'
asbag56
(g77
g58
NtRp4698
(dp4699
g61
(dp4700
sg70
g4685
sg63
(lp4701
g56
(g57
g58
NtRp4702
(dp4703
g61
(dp4704
g69
I5
ssg70
g4698
sg63
(lp4705
S'127.0.0.1-8dfa8cd1-5b2c-419d-87ba-df200b08a648'
p4706
asbasbasbag56
(g72
g58
NtRp4707
(dp4708
g61
(dp4709
sg70
g3021
sg63
(lp4710
g56
(g77
g58
NtRp4711
(dp4712
g61
(dp4713
g81
g82
ssg70
g4707
sg63
(lp4714
S'session_id_name'
p4715
asbag56
(g77
g58
NtRp4716
(dp4717
g61
(dp4718
g88
g89
ssg70
g4707
sg63
(lp4719
S':'
asbag56
(g77
g58
NtRp4720
(dp4721
g61
(dp4722
sg70
g4707
sg63
(lp4723
g56
(g57
g58
NtRp4724
(dp4725
g61
(dp4726
g69
I5
ssg70
g4720
sg63
(lp4727
g3078
asbasbasbag56
(g72
g58
NtRp4728
(dp4729
g61
(dp4730
sg70
g3021
sg63
(lp4731
g56
(g77
g58
NtRp4732
(dp4733
g61
(dp4734
g81
g82
ssg70
g4728
sg63
(lp4735
S'session_locked'
p4736
asbag56
(g77
g58
NtRp4737
(dp4738
g61
(dp4739
g88
g89
ssg70
g4728
sg63
(lp4740
S':'
asbag56
(g77
g58
NtRp4741
(dp4742
g61
(dp4743
sg70
g4728
sg63
(lp4744
g56
(g57
g58
NtRp4745
(dp4746
g61
(dp4747
g69
I5
ssg70
g4741
sg63
(lp4748
g1549
asbasbasbag56
(g72
g58
NtRp4749
(dp4750
g61
(dp4751
sg70
g3021
sg63
(lp4752
g56
(g77
g58
NtRp4753
(dp4754
g61
(dp4755
g81
g82
ssg70
g4749
sg63
(lp4756
S'session_new'
p4757
asbag56
(g77
g58
NtRp4758
(dp4759
g61
(dp4760
g88
g89
ssg70
g4749
sg63
(lp4761
S':'
asbag56
(g77
g58
NtRp4762
(dp4763
g61
(dp4764
sg70
g4749
sg63
(lp4765
g56
(g57
g58
NtRp4766
(dp4767
g61
(dp4768
g69
I5
ssg70
g4762
sg63
(lp4769
g99
asbasbasbag56
(g72
g58
NtRp4770
(dp4771
g61
(dp4772
sg70
g3021
sg63
(lp4773
g56
(g77
g58
NtRp4774
(dp4775
g61
(dp4776
g81
g82
ssg70
g4770
sg63
(lp4777
S'status'
p4778
asbag56
(g77
g58
NtRp4779
(dp4780
g61
(dp4781
g88
g89
ssg70
g4770
sg63
(lp4782
S':'
asbag56
(g77
g58
NtRp4783
(dp4784
g61
(dp4785
sg70
g4770
sg63
(lp4786
g56
(g57
g58
NtRp4787
(dp4788
g61
(dp4789
g69
I5
ssg70
g4783
sg63
(lp4790
S'200'
p4791
asbasbasbag56
(g72
g58
NtRp4792
(dp4793
g61
(dp4794
sg70
g3021
sg63
(lp4795
g56
(g77
g58
NtRp4796
(dp4797
g61
(dp4798
g81
g82
ssg70
g4792
sg63
(lp4799
S'subtitle'
p4800
asbag56
(g77
g58
NtRp4801
(dp4802
g61
(dp4803
g88
g89
ssg70
g4792
sg63
(lp4804
S':'
asbag56
(g77
g58
NtRp4805
(dp4806
g61
(dp4807
sg70
g4792
sg63
(lp4808
g56
(g57
g58
NtRp4809
(dp4810
g61
(dp4811
g69
I5
ssg70
g4805
sg63
(lp4812
g3526
(S's\r\x00\x00\x00customize me!'
tRp4813
asbasbasbag56
(g72
g58
NtRp4814
(dp4815
g61
(dp4816
sg70
g3021
sg63
(lp4817
g56
(g77
g58
NtRp4818
(dp4819
g61
(dp4820
g81
g82
ssg70
g4814
sg63
(lp4821
S'title'
p4822
asbag56
(g77
g58
NtRp4823
(dp4824
g61
(dp4825
g88
g89
ssg70
g4814
sg63
(lp4826
S':'
asbag56
(g77
g58
NtRp4827
(dp4828
g61
(dp4829
sg70
g4814
sg63
(lp4830
g56
(g57
g58
NtRp4831
(dp4832
g61
(dp4833
g69
I5
ssg70
g4827
sg63
(lp4834
g121
asbasbasbag56
(g72
g58
NtRp4835
(dp4836
g61
(dp4837
sg70
g3021
sg63
(lp4838
g56
(g77
g58
NtRp4839
(dp4840
g61
(dp4841
g81
g82
ssg70
g4835
sg63
(lp4842
g2193
asbag56
(g77
g58
NtRp4843
(dp4844
g61
(dp4845
g88
g89
ssg70
g4835
sg63
(lp4846
S':'
asbag56
(g77
g58
NtRp4847
(dp4848
g61
(dp4849
sg70
g4835
sg63
(lp4850
g56
(g57
g58
NtRp4851
(dp4852
g61
(dp4853
g69
I5
ssg70
g4847
sg63
(lp4854
g2206
asbasbasbag56
(g72
g58
NtRp4855
(dp4856
g61
(dp4857
sg70
g3021
sg63
(lp4858
g56
(g77
g58
NtRp4859
(dp4860
g61
(dp4861
g81
g82
ssg70
g4855
sg63
(lp4862
S'view'
p4863
asbag56
(g77
g58
NtRp4864
(dp4865
g61
(dp4866
g88
g89
ssg70
g4855
sg63
(lp4867
S':'
asbag56
(g77
g58
NtRp4868
(dp4869
g61
(dp4870
sg70
g4855
sg63
(lp4871
g56
(g57
g58
NtRp4872
(dp4873
g61
(dp4874
g69
I5
ssg70
g4868
sg63
(lp4875
S'default/user.html'
p4876
asbasbasbasbasbsS'locals'
p4877
(dp4878
ssS'traceback'
p4879
S'Traceback (most recent call last):\n  File "/Users/excon/Sites/dreamscape/gluon/restricted.py", line 194, in restricted\n    exec ccode in environment\n  File "/Users/excon/Sites/dreamscape/applications/welcome/controllers/default.py", line 98, in <module>\n  File "/Users/excon/Sites/dreamscape/gluon/globals.py", line 149, in <lambda>\n    self._caller = lambda f: f()\n  File "/Users/excon/Sites/dreamscape/applications/welcome/controllers/default.py", line 54, in user\n    return dict(form=auth(next=URL(r=request, f=\'comint_soon\')))\nTypeError: __call__() got an unexpected keyword argument \'next\'\n'
p4880
s.