(dp1
S'output'
p2
S''
sS'layer'
p3
S'/Users/excon/Sites/dreamscape/applications/welcome/views/default/index.html'
p4
sS'code'
p5
S'response.write(\'<!DOCTYPE html>\\n<html lang="\', escape=False)\nresponse.write(T.accepted_language or \'en\')\nresponse.write(\'" class="no-js"><!-- no-js need it for modernzr -->\\n  <head>\\n    \\n    <meta charset="utf-8" />        \\n    <!-- www.phpied.com/conditional-comments-block-downloads/ -->\\n    <!--[if IE]>\\n      <!-- Always force latest IE rendering engine \\n       (even in intranet) & Chrome Frame \\n       Remove this if you use the .htaccess -->\\n      <meta http-equiv="X-UA-Compatible" content="IE=edge,chrome=1">\\n    <![endif]-->    \\n\\n    <title>\', escape=False)\nresponse.write(response.title or request.application)\nresponse.write(\'</title>\\n    \\n    <!-- http://dev.w3.org/html5/markup/meta.name.html -->\\n    <meta name="application-name" content="\', escape=False)\nresponse.write(request.application)\nresponse.write(\'" /> \\n    \\n    <!-- Speaking of Google, don\\\'t forget to set your site up: \\n     http://google.com/webmasters -->\\n    <meta name="google-site-verification" content="" />\\n    \\n    <!--  Mobile Viewport Fix\\n      j.mp/mobileviewport & davidbcalhoun.com/2010/viewport-metatag \\n      device-width: Occupy full width of the screen in its current orientation\\n      initial-scale = 1.0 retains dimensions instead of zooming out if page height > device height\\n      maximum-scale = 1.0 retains dimensions instead of zooming in if page width < device width\\n      -->\\n    <meta name="viewport" content="width=device-width, initial-scale=1.0, maximum-scale=1.0">\\n    \\n    <!-- Place favicon.ico and apple-touch-icon.png in the root of your domain and delete these references -->\\n    <link rel="shortcut icon" href="\', escape=False)\nresponse.write(URL(\'static\',\'favicon.ico\'))\nresponse.write(\'" type="image/x-icon">\\n    <link rel="apple-touch-icon" href="\', escape=False)\nresponse.write(URL(\'static\',\'favicon.png\'))\nresponse.write(\'">\\n\\n    <!-- For the less-enabled mobile browsers like Opera Mini -->\\n    <link rel="stylesheet" media="handheld" href="\', escape=False)\nresponse.write(URL(\'static\',\'css/handheld.css\'))\nresponse.write(\'">\\n    \\n    <!-- All JavaScript at the bottom, except for Modernizr which enables HTML5 elements & feature detects -->\\n    <script src="\', escape=False)\nresponse.write(URL(\'static\',\'js/modernizr-1.7.min.js\'))\nresponse.write(\'"></script>\\n    \\n    \', escape=False)\n#------  require CSS and JS files for this page (read info in base.css) ------\nresponse.write(\'\\n    \', escape=False)\nresponse.files.append(URL(\'static\',\'css/base.css\'))\nresponse.write(\'\\n    \', escape=False)\nresponse.files.append(URL(\'static\',\'css/superfish.css\'))\nresponse.write(\'\\n    \', escape=False)\nresponse.files.append(URL(\'static\',\'js/superfish.js\'))\nresponse.write(\'\\n    \', escape=False)\n#------ include web2py specific js code (jquery, calendar, form stuff) ------\nresponse.write(\'\\n    \', escape=False)\nresponse.files.insert(0,URL(\'static\',\'js/jquery.js\'))\nresponse.files.insert(1,URL(\'static\',\'css/anytime.css\'))\nresponse.files.insert(2,URL(\'static\',\'js/anytime.js\'))\nresponse.include_meta()\nresponse.include_files()\nresponse.write(\'\\n<script type="text/javascript"><!--\\n    // These variables are used by the web2py_ajax_init function in web2py_ajax.js (which is loaded below).\\n    var w2p_ajax_confirm_message = "\', escape=False)\nresponse.write(T(\'Are you sure you want to delete this object?\'))\nresponse.write(\'";\\n    var w2p_ajax_date_format = "\', escape=False)\nresponse.write(T(\'%Y-%m-%d\'))\nresponse.write(\'";\\n    var w2p_ajax_datetime_format = "\', escape=False)\nresponse.write(T(\'%Y-%m-%d %H:%M:%S\'))\nresponse.write(\'";\\n    //--></script>\\n    <script src="\', escape=False)\nresponse.write(URL(\'static\',\'js/web2py_ajax.js\'))\nresponse.write(\'" type="text/javascript"></script>\\n\', escape=False)\nresponse.write(\'\\n\\n    \', escape=False)\n#using sidebars need to know what sidebar you want to use\n#prior of using it, because of static width size of content, you can use\n#left_sidebar, right_sidebar, both or none (False left and right)\nleft_sidebar_enabled = globals().get(\'left_sidebar_enabled\',False)\nright_sidebar_enabled = globals().get(\'right_sidebar_enabled\',False)\nif left_sidebar_enabled and right_sidebar_enabled: width_content=\'63%\'\nelif left_sidebar_enabled != right_sidebar_enabled: width_content=\'740px\'\nelse: width_content=\'100%\'\nif left_sidebar_enabled: left_sidebar_style = \'style="display: block;"\'\nelse: left_sidebar_style = \'style="display: none;"\'\nif right_sidebar_enabled: right_sidebar_style = \'style="display: block;"\'\nelse: right_sidebar_style = \'style="display: none;"\'\nstyle_content = \'style="width: %s"\' % width_content\nresponse.write(\'\\n    \\n    <!-- uncomment here to load jquery-ui -->\\n    \\n    <link rel="stylesheet" href="http://ajax.googleapis.com/ajax/libs/jqueryui/1.8.16/themes/base/jquery-ui.css" type="text/css" media="all" />\\n    <script src="http://ajax.googleapis.com/ajax/libs/jqueryui/1.8.16/jquery-ui.min.js" type="text/javascript"></script>\\n    \\n   <!-- uncomment to load jquery-ui -->\\n    \\n    \\n  </head>\\n  \\n  <!-- paulirish.com/2008/conditional-stylesheets-vs-css-hacks-answer-neither/ -->  \\n  <!--[if lt IE 7 ]> <body class="ie6"> <![endif]-->\\n  <!--[if IE 7 ]>    <body class="ie7"> <![endif]-->\\n  <!--[if IE 8 ]>    <body class="ie8"> <![endif]-->\\n  <!--[if IE 9 ]>    <body class="ie9"> <![endif]-->\\n  <!--[if (gt IE 9)|!(IE)]><!--> <body> <!--<![endif]-->\\n    \\n    <div class="flash">\', escape=False)\nresponse.write(response.flash or \'\')\nresponse.write(\'</div> <!-- notification div -->\\n\\n        \\n\\n    <div id="container">                        \\n      \\n      <div id="wrapper">        \\n      \', escape=False)\ntry:\n    response.write(auth.navbar(action=URL(\'default\',\'user\')))\nexcept:pass\nresponse.write(\'\\n    \\n    <div id="header"> <!-- header and login nav -->\\n      \', escape=False)\nresponse.write(\' <!-- this is default header -->\\n      \\n      <h1>\\n        <span id="appname">\', escape=False)\nresponse.write(request.application.capitalize())\nresponse.write(\'</span>App\\n      </h1>\\n      <div style="clear: both;"></div><!-- Clear the divs -->\\n      \', escape=False)\nresponse.write(\'\\n    </div><!-- header  -->\\n    \\n    <div id="statusbar"><!-- statusbar is menu zone -->\\n      \', escape=False)\nresponse.write(\' <!-- this is default statusbar -->\\n      \', escape=False)\n#------ superfish menu ------\nresponse.write(\'\\n      \', escape=False)\nresponse.write(MENU(response.menu,_class=\'sf-menu\'))\nresponse.write(\'\\n      <script type="text/javascript">\\n        jQuery(document).ready(function(){\\n        jQuery(\\\'ul.sf-menu\\\').superfish();});\\n      </script>\\n\\n      <!-- AddToAny BEGIN -->\\n      <div style="padding: 7px; float:right;" class="a2a_kit a2a_default_style"><a class="a2a_dd" href="http://www.addtoany.com/share_save">Share</a></div><script type="text/javascript" src="http://static.addtoany.com/menu/page.js"></script>\\n      <!-- AddToAny END -->\\n\\n      <div style="clear: both;"></div><!-- Clear the divs -->   \\n      \', escape=False)\nresponse.write(\'               \\n    </div><!-- statusbar -->\\n    \\n    <div id="page"> <!-- Here my central body -->     \\n\\n      \', escape=False)\nif left_sidebar_enabled:\n    response.write(\'\\n          <div id="left_sidebar" \', escape=False)\n    response.write(XML(left_sidebar_style))\n    response.write(\' >\\n            <div style="padding: 4px;">\\n          \', escape=False)\n    response.write(\'Content Left Sidebar\', escape=False)\n    response.write(\'       \\n            </div>\\n          </div><!-- left_sidebar -->\\n      \', escape=False)\n    pass\nresponse.write(\'\\n\\n      <!-- content -->\\n      <div id="content" \', escape=False)\nresponse.write(XML(style_content))\nresponse.write(\' >\\n        \', escape=False)\nresponse.write(\'\\n\', escape=False)\nfor char in chars:\n    response.write(\'\\n\', escape=False)\n    response.write(P("a" + char))\n    response.write(\'\\n\', escape=False)\n    pass\nresponse.write(\'\\n<h1>Dreamscape</h1>\\n<p>Share your dreams with other dreamers to turn passions to realities.</p>\\n<p>We are really intent on everyone achieving their dreams.</p>\\n\', escape=False)\npass\nresponse.write(\'\\n      </div>\\n      <!-- content -->\\n\\n      \', escape=False)\nif right_sidebar_enabled:\n    response.write(\'\\n          <div id="right_sidebar" \', escape=False)\n    response.write(XML(right_sidebar_style))\n    response.write(\' >\\n            <div style="padding: 4px;">\\n              \', escape=False)\n    response.write(\'Content Right Sidebar\', escape=False)\n    response.write(\'\\n            </div>\\n      </div><!-- right_sidebar -->\\n          \', escape=False)\n    pass\nresponse.write(\'\\n\\n\\n      <div style="clear: both;"></div><!-- Clear the divs -->\\n      \\n    </div><!-- page -->                         \\n    \\n    <div id="footer">\\n      \', escape=False)\nresponse.write(\' <!-- this is default footer -->\\n      <a href="http://www.web2py.com/" style="float: left; padding-right: 6px;">\\n        <img src="\', escape=False)\nresponse.write(URL(\'static\',\'images/poweredby.png\'))\nresponse.write(\'"/>\\n      </a>\\n      \', escape=False)\nresponse.write(T(\'Copyright\'))\nresponse.write(\' &#169; 2011               \\n      <div style="clear: both;"></div><!-- Clear the divs -->\\n      \', escape=False)\nresponse.write(\'\\n\\n    </div><!-- footer -->           \\n      </div><!-- wrapper -->\\n    </div><!-- container -->        \\n    \\n    <!--[if lt IE 7 ]>\\n    <script src="\', escape=False)\nresponse.write(URL(\'static\',\'js/dd_belatedpng.js\'))\nresponse.write(\'"></script>\\n    <script> DD_belatedPNG.fix(\\\'img, .png_bg\\\'); //fix any <img> or .png_bg background-images </script>\\n    <![endif]-->\\n    \', escape=False)\nif response.google_analytics_id:\n    response.write("<script>/* http://mathiasbynens.be/notes/async-analytics-snippet */ var _gaq=[[\'_setAccount\',\'", escape=False)\n    response.write(response.google_analyitics_id)\n    response.write("\'],[\'_trackPageview\']];(function(d,t){var g=d.createElement(t),s=d.getElementsByTagName(t)[0];g.src=\'//www.google-analytics.com/ga.js\';s.parentNode.insertBefore(g,s)}(document,\'script\')) </script>", escape=False)\n    pass\nresponse.write(\'\\n  </body>\\n</html>\\n\', escape=False)'
p6
sS'snapshot'
p7
(dp8
S'exception'
p9
(dp10
S'__hash__'
p11
S"<method-wrapper '__hash__' of exceptions.NameError object at 0x101002908>"
p12
sS'__setattr__'
p13
S"<method-wrapper '__setattr__' of exceptions.NameError object at 0x101002908>"
p14
sS'__reduce_ex__'
p15
S'<built-in method __reduce_ex__ of exceptions.NameError object at 0x101002908>'
p16
sS'__getslice__'
p17
S"<method-wrapper '__getslice__' of exceptions.NameError object at 0x101002908>"
p18
sS'__getitem__'
p19
S"<method-wrapper '__getitem__' of exceptions.NameError object at 0x101002908>"
p20
sS'__setstate__'
p21
S'<built-in method __setstate__ of exceptions.NameError object at 0x101002908>'
p22
sS'args'
p23
S'("name \'chars\' is not defined",)'
p24
sS'__reduce__'
p25
S'<built-in method __reduce__ of exceptions.NameError object at 0x101002908>'
p26
sS'__str__'
p27
S"<method-wrapper '__str__' of exceptions.NameError object at 0x101002908>"
p28
sS'__format__'
p29
S'<built-in method __format__ of exceptions.NameError object at 0x101002908>'
p30
sS'__getattribute__'
p31
S"<method-wrapper '__getattribute__' of exceptions.NameError object at 0x101002908>"
p32
sS'__class__'
p33
S"<type 'exceptions.NameError'>"
p34
sS'__unicode__'
p35
S'<built-in method __unicode__ of exceptions.NameError object at 0x101002908>'
p36
sS'__delattr__'
p37
S"<method-wrapper '__delattr__' of exceptions.NameError object at 0x101002908>"
p38
sS'__subclasshook__'
p39
S'<built-in method __subclasshook__ of type object at 0x10011b640>'
p40
sS'__repr__'
p41
S"<method-wrapper '__repr__' of exceptions.NameError object at 0x101002908>"
p42
sS'__dict__'
p43
S'{}'
p44
sS'__sizeof__'
p45
S'<built-in method __sizeof__ of exceptions.NameError object at 0x101002908>'
p46
sS'__doc__'
p47
S"'Name not found globally.'"
p48
sS'__init__'
p49
S"<method-wrapper '__init__' of exceptions.NameError object at 0x101002908>"
p50
sS'__new__'
p51
S'<built-in method __new__ of type object at 0x10011b640>'
p52
ssS'evalue'
p53
S"name 'chars' is not defined"
p54
sS'request'
p55
ccopy_reg
_reconstructor
p56
(cgluon.html
BEAUTIFY
p57
c__builtin__
object
p58
NtRp59
(dp60
S'attributes'
p61
(dp62
sS'components'
p63
(lp64
g56
(cgluon.html
TABLE
p65
g58
NtRp66
(dp67
g61
(dp68
S'level'
p69
I5
ssS'parent'
p70
Nsg63
(lp71
g56
(cgluon.html
TR
p72
g58
NtRp73
(dp74
g61
(dp75
sg70
g66
sg63
(lp76
g56
(cgluon.html
TD
p77
g58
NtRp78
(dp79
g61
(dp80
S'_style'
p81
S'font-weight:bold;'
p82
ssg70
g73
sg63
(lp83
S'ajax'
p84
asbag56
(g77
g58
NtRp85
(dp86
g61
(dp87
S'_valign'
p88
S'top'
p89
ssg70
g73
sg63
(lp90
S':'
asbag56
(g77
g58
NtRp91
(dp92
g61
(dp93
sg70
g73
sg63
(lp94
g56
(g57
g58
NtRp95
(dp96
g61
(dp97
g69
I5
ssg70
g91
sg63
(lp98
S'False'
p99
asbasbasbag56
(g72
g58
NtRp100
(dp101
g61
(dp102
sg70
g66
sg63
(lp103
g56
(g77
g58
NtRp104
(dp105
g61
(dp106
g81
g82
ssg70
g100
sg63
(lp107
S'application'
p108
asbag56
(g77
g58
NtRp109
(dp110
g61
(dp111
g88
g89
ssg70
g100
sg63
(lp112
S':'
asbag56
(g77
g58
NtRp113
(dp114
g61
(dp115
sg70
g100
sg63
(lp116
g56
(g57
g58
NtRp117
(dp118
g61
(dp119
g69
I5
ssg70
g113
sg63
(lp120
S'welcome'
p121
asbasbasbag56
(g72
g58
NtRp122
(dp123
g61
(dp124
sg70
g66
sg63
(lp125
g56
(g77
g58
NtRp126
(dp127
g61
(dp128
g81
g82
ssg70
g122
sg63
(lp129
g23
asbag56
(g77
g58
NtRp130
(dp131
g61
(dp132
g88
g89
ssg70
g122
sg63
(lp133
S':'
asbag56
(g77
g58
NtRp134
(dp135
g61
(dp136
sg70
g122
sg63
(lp137
g56
(g57
g58
NtRp138
(dp139
g61
(dp140
g69
I5
ssg70
g134
sg63
(lp141
g56
(g65
g58
NtRp142
(dp143
g61
(dp144
g69
I4
ssg70
Nsg63
(lp145
sbasbasbasbag56
(g72
g58
NtRp146
(dp147
g61
(dp148
sg70
g66
sg63
(lp149
g56
(g77
g58
NtRp150
(dp151
g61
(dp152
g81
g82
ssg70
g146
sg63
(lp153
S'body'
p154
asbag56
(g77
g58
NtRp155
(dp156
g61
(dp157
g88
g89
ssg70
g146
sg63
(lp158
S':'
asbag56
(g77
g58
NtRp159
(dp160
g61
(dp161
sg70
g146
sg63
(lp162
g56
(g57
g58
NtRp163
(dp164
g61
(dp165
g69
I5
ssg70
g159
sg63
(lp166
S'<cStringIO.StringO object at 0x1013d31b8>'
p167
asbasbasbag56
(g72
g58
NtRp168
(dp169
g61
(dp170
sg70
g66
sg63
(lp171
g56
(g77
g58
NtRp172
(dp173
g61
(dp174
g81
g82
ssg70
g168
sg63
(lp175
S'client'
p176
asbag56
(g77
g58
NtRp177
(dp178
g61
(dp179
g88
g89
ssg70
g168
sg63
(lp180
S':'
asbag56
(g77
g58
NtRp181
(dp182
g61
(dp183
sg70
g168
sg63
(lp184
g56
(g57
g58
NtRp185
(dp186
g61
(dp187
g69
I5
ssg70
g181
sg63
(lp188
S'127.0.0.1'
p189
asbasbasbag56
(g72
g58
NtRp190
(dp191
g61
(dp192
sg70
g66
sg63
(lp193
g56
(g77
g58
NtRp194
(dp195
g61
(dp196
g81
g82
ssg70
g190
sg63
(lp197
S'controller'
p198
asbag56
(g77
g58
NtRp199
(dp200
g61
(dp201
g88
g89
ssg70
g190
sg63
(lp202
S':'
asbag56
(g77
g58
NtRp203
(dp204
g61
(dp205
sg70
g190
sg63
(lp206
g56
(g57
g58
NtRp207
(dp208
g61
(dp209
g69
I5
ssg70
g203
sg63
(lp210
S'default'
p211
asbasbasbag56
(g72
g58
NtRp212
(dp213
g61
(dp214
sg70
g66
sg63
(lp215
g56
(g77
g58
NtRp216
(dp217
g61
(dp218
g81
g82
ssg70
g212
sg63
(lp219
S'cookies'
p220
asbag56
(g77
g58
NtRp221
(dp222
g61
(dp223
g88
g89
ssg70
g212
sg63
(lp224
S':'
asbag56
(g77
g58
NtRp225
(dp226
g61
(dp227
sg70
g212
sg63
(lp228
g56
(g57
g58
NtRp229
(dp230
g61
(dp231
g69
I5
ssg70
g225
sg63
(lp232
g56
(g65
g58
NtRp233
(dp234
g61
(dp235
g69
I4
ssg70
Nsg63
(lp236
g56
(g72
g58
NtRp237
(dp238
g61
(dp239
sg70
g233
sg63
(lp240
g56
(g77
g58
NtRp241
(dp242
g61
(dp243
g81
g82
ssg70
g237
sg63
(lp244
S'session_id_admin'
p245
asbag56
(g77
g58
NtRp246
(dp247
g61
(dp248
g88
g89
ssg70
g237
sg63
(lp249
S':'
asbag56
(g77
g58
NtRp250
(dp251
g61
(dp252
sg70
g237
sg63
(lp253
g56
(g57
g58
NtRp254
(dp255
g61
(dp256
g69
I4
ssg70
g250
sg63
(lp257
g56
(g65
g58
NtRp258
(dp259
g61
(dp260
g69
I3
ssg70
Nsg63
(lp261
g56
(g72
g58
NtRp262
(dp263
g61
(dp264
sg70
g258
sg63
(lp265
g56
(g77
g58
NtRp266
(dp267
g61
(dp268
g81
g82
ssg70
g262
sg63
(lp269
S'comment'
p270
asbag56
(g77
g58
NtRp271
(dp272
g61
(dp273
g88
g89
ssg70
g262
sg63
(lp274
S':'
asbag56
(g77
g58
NtRp275
(dp276
g61
(dp277
sg70
g262
sg63
(lp278
g56
(g57
g58
NtRp279
(dp280
g61
(dp281
g69
I3
ssg70
g275
sg63
(lp282
S''
asbasbasbag56
(g72
g58
NtRp283
(dp284
g61
(dp285
sg70
g258
sg63
(lp286
g56
(g77
g58
NtRp287
(dp288
g61
(dp289
g81
g82
ssg70
g283
sg63
(lp290
S'domain'
p291
asbag56
(g77
g58
NtRp292
(dp293
g61
(dp294
g88
g89
ssg70
g283
sg63
(lp295
S':'
asbag56
(g77
g58
NtRp296
(dp297
g61
(dp298
sg70
g283
sg63
(lp299
g56
(g57
g58
NtRp300
(dp301
g61
(dp302
g69
I3
ssg70
g296
sg63
(lp303
S''
asbasbasbag56
(g72
g58
NtRp304
(dp305
g61
(dp306
sg70
g258
sg63
(lp307
g56
(g77
g58
NtRp308
(dp309
g61
(dp310
g81
g82
ssg70
g304
sg63
(lp311
S'expires'
p312
asbag56
(g77
g58
NtRp313
(dp314
g61
(dp315
g88
g89
ssg70
g304
sg63
(lp316
S':'
asbag56
(g77
g58
NtRp317
(dp318
g61
(dp319
sg70
g304
sg63
(lp320
g56
(g57
g58
NtRp321
(dp322
g61
(dp323
g69
I3
ssg70
g317
sg63
(lp324
S''
asbasbasbag56
(g72
g58
NtRp325
(dp326
g61
(dp327
sg70
g258
sg63
(lp328
g56
(g77
g58
NtRp329
(dp330
g61
(dp331
g81
g82
ssg70
g325
sg63
(lp332
S'httponly'
p333
asbag56
(g77
g58
NtRp334
(dp335
g61
(dp336
g88
g89
ssg70
g325
sg63
(lp337
S':'
asbag56
(g77
g58
NtRp338
(dp339
g61
(dp340
sg70
g325
sg63
(lp341
g56
(g57
g58
NtRp342
(dp343
g61
(dp344
g69
I3
ssg70
g338
sg63
(lp345
S''
asbasbasbag56
(g72
g58
NtRp346
(dp347
g61
(dp348
sg70
g258
sg63
(lp349
g56
(g77
g58
NtRp350
(dp351
g61
(dp352
g81
g82
ssg70
g346
sg63
(lp353
S'max-age'
p354
asbag56
(g77
g58
NtRp355
(dp356
g61
(dp357
g88
g89
ssg70
g346
sg63
(lp358
S':'
asbag56
(g77
g58
NtRp359
(dp360
g61
(dp361
sg70
g346
sg63
(lp362
g56
(g57
g58
NtRp363
(dp364
g61
(dp365
g69
I3
ssg70
g359
sg63
(lp366
S''
asbasbasbag56
(g72
g58
NtRp367
(dp368
g61
(dp369
sg70
g258
sg63
(lp370
g56
(g77
g58
NtRp371
(dp372
g61
(dp373
g81
g82
ssg70
g367
sg63
(lp374
S'path'
p375
asbag56
(g77
g58
NtRp376
(dp377
g61
(dp378
g88
g89
ssg70
g367
sg63
(lp379
S':'
asbag56
(g77
g58
NtRp380
(dp381
g61
(dp382
sg70
g367
sg63
(lp383
g56
(g57
g58
NtRp384
(dp385
g61
(dp386
g69
I3
ssg70
g380
sg63
(lp387
S''
asbasbasbag56
(g72
g58
NtRp388
(dp389
g61
(dp390
sg70
g258
sg63
(lp391
g56
(g77
g58
NtRp392
(dp393
g61
(dp394
g81
g82
ssg70
g388
sg63
(lp395
S'secure'
p396
asbag56
(g77
g58
NtRp397
(dp398
g61
(dp399
g88
g89
ssg70
g388
sg63
(lp400
S':'
asbag56
(g77
g58
NtRp401
(dp402
g61
(dp403
sg70
g388
sg63
(lp404
g56
(g57
g58
NtRp405
(dp406
g61
(dp407
g69
I3
ssg70
g401
sg63
(lp408
S''
asbasbasbag56
(g72
g58
NtRp409
(dp410
g61
(dp411
sg70
g258
sg63
(lp412
g56
(g77
g58
NtRp413
(dp414
g61
(dp415
g81
g82
ssg70
g409
sg63
(lp416
S'version'
p417
asbag56
(g77
g58
NtRp418
(dp419
g61
(dp420
g88
g89
ssg70
g409
sg63
(lp421
S':'
asbag56
(g77
g58
NtRp422
(dp423
g61
(dp424
sg70
g409
sg63
(lp425
g56
(g57
g58
NtRp426
(dp427
g61
(dp428
g69
I3
ssg70
g422
sg63
(lp429
S''
asbasbasbasbasbasbasbag56
(g72
g58
NtRp430
(dp431
g61
(dp432
sg70
g233
sg63
(lp433
g56
(g77
g58
NtRp434
(dp435
g61
(dp436
g81
g82
ssg70
g430
sg63
(lp437
S'session_id_welcome'
p438
asbag56
(g77
g58
NtRp439
(dp440
g61
(dp441
g88
g89
ssg70
g430
sg63
(lp442
S':'
asbag56
(g77
g58
NtRp443
(dp444
g61
(dp445
sg70
g430
sg63
(lp446
g56
(g57
g58
NtRp447
(dp448
g61
(dp449
g69
I4
ssg70
g443
sg63
(lp450
g56
(g65
g58
NtRp451
(dp452
g61
(dp453
g69
I3
ssg70
Nsg63
(lp454
g56
(g72
g58
NtRp455
(dp456
g61
(dp457
sg70
g451
sg63
(lp458
g56
(g77
g58
NtRp459
(dp460
g61
(dp461
g81
g82
ssg70
g455
sg63
(lp462
g270
asbag56
(g77
g58
NtRp463
(dp464
g61
(dp465
g88
g89
ssg70
g455
sg63
(lp466
S':'
asbag56
(g77
g58
NtRp467
(dp468
g61
(dp469
sg70
g455
sg63
(lp470
g56
(g57
g58
NtRp471
(dp472
g61
(dp473
g69
I3
ssg70
g467
sg63
(lp474
S''
asbasbasbag56
(g72
g58
NtRp475
(dp476
g61
(dp477
sg70
g451
sg63
(lp478
g56
(g77
g58
NtRp479
(dp480
g61
(dp481
g81
g82
ssg70
g475
sg63
(lp482
g291
asbag56
(g77
g58
NtRp483
(dp484
g61
(dp485
g88
g89
ssg70
g475
sg63
(lp486
S':'
asbag56
(g77
g58
NtRp487
(dp488
g61
(dp489
sg70
g475
sg63
(lp490
g56
(g57
g58
NtRp491
(dp492
g61
(dp493
g69
I3
ssg70
g487
sg63
(lp494
S''
asbasbasbag56
(g72
g58
NtRp495
(dp496
g61
(dp497
sg70
g451
sg63
(lp498
g56
(g77
g58
NtRp499
(dp500
g61
(dp501
g81
g82
ssg70
g495
sg63
(lp502
g312
asbag56
(g77
g58
NtRp503
(dp504
g61
(dp505
g88
g89
ssg70
g495
sg63
(lp506
S':'
asbag56
(g77
g58
NtRp507
(dp508
g61
(dp509
sg70
g495
sg63
(lp510
g56
(g57
g58
NtRp511
(dp512
g61
(dp513
g69
I3
ssg70
g507
sg63
(lp514
S''
asbasbasbag56
(g72
g58
NtRp515
(dp516
g61
(dp517
sg70
g451
sg63
(lp518
g56
(g77
g58
NtRp519
(dp520
g61
(dp521
g81
g82
ssg70
g515
sg63
(lp522
g333
asbag56
(g77
g58
NtRp523
(dp524
g61
(dp525
g88
g89
ssg70
g515
sg63
(lp526
S':'
asbag56
(g77
g58
NtRp527
(dp528
g61
(dp529
sg70
g515
sg63
(lp530
g56
(g57
g58
NtRp531
(dp532
g61
(dp533
g69
I3
ssg70
g527
sg63
(lp534
S''
asbasbasbag56
(g72
g58
NtRp535
(dp536
g61
(dp537
sg70
g451
sg63
(lp538
g56
(g77
g58
NtRp539
(dp540
g61
(dp541
g81
g82
ssg70
g535
sg63
(lp542
g354
asbag56
(g77
g58
NtRp543
(dp544
g61
(dp545
g88
g89
ssg70
g535
sg63
(lp546
S':'
asbag56
(g77
g58
NtRp547
(dp548
g61
(dp549
sg70
g535
sg63
(lp550
g56
(g57
g58
NtRp551
(dp552
g61
(dp553
g69
I3
ssg70
g547
sg63
(lp554
S''
asbasbasbag56
(g72
g58
NtRp555
(dp556
g61
(dp557
sg70
g451
sg63
(lp558
g56
(g77
g58
NtRp559
(dp560
g61
(dp561
g81
g82
ssg70
g555
sg63
(lp562
g375
asbag56
(g77
g58
NtRp563
(dp564
g61
(dp565
g88
g89
ssg70
g555
sg63
(lp566
S':'
asbag56
(g77
g58
NtRp567
(dp568
g61
(dp569
sg70
g555
sg63
(lp570
g56
(g57
g58
NtRp571
(dp572
g61
(dp573
g69
I3
ssg70
g567
sg63
(lp574
S''
asbasbasbag56
(g72
g58
NtRp575
(dp576
g61
(dp577
sg70
g451
sg63
(lp578
g56
(g77
g58
NtRp579
(dp580
g61
(dp581
g81
g82
ssg70
g575
sg63
(lp582
g396
asbag56
(g77
g58
NtRp583
(dp584
g61
(dp585
g88
g89
ssg70
g575
sg63
(lp586
S':'
asbag56
(g77
g58
NtRp587
(dp588
g61
(dp589
sg70
g575
sg63
(lp590
g56
(g57
g58
NtRp591
(dp592
g61
(dp593
g69
I3
ssg70
g587
sg63
(lp594
S''
asbasbasbag56
(g72
g58
NtRp595
(dp596
g61
(dp597
sg70
g451
sg63
(lp598
g56
(g77
g58
NtRp599
(dp600
g61
(dp601
g81
g82
ssg70
g595
sg63
(lp602
g417
asbag56
(g77
g58
NtRp603
(dp604
g61
(dp605
g88
g89
ssg70
g595
sg63
(lp606
S':'
asbag56
(g77
g58
NtRp607
(dp608
g61
(dp609
sg70
g595
sg63
(lp610
g56
(g57
g58
NtRp611
(dp612
g61
(dp613
g69
I3
ssg70
g607
sg63
(lp614
S''
asbasbasbasbasbasbasbasbasbasbasbag56
(g72
g58
NtRp615
(dp616
g61
(dp617
sg70
g66
sg63
(lp618
g56
(g77
g58
NtRp619
(dp620
g61
(dp621
g81
g82
ssg70
g615
sg63
(lp622
S'env'
p623
asbag56
(g77
g58
NtRp624
(dp625
g61
(dp626
g88
g89
ssg70
g615
sg63
(lp627
S':'
asbag56
(g77
g58
NtRp628
(dp629
g61
(dp630
sg70
g615
sg63
(lp631
g56
(g57
g58
NtRp632
(dp633
g61
(dp634
g69
I5
ssg70
g628
sg63
(lp635
g56
(g65
g58
NtRp636
(dp637
g61
(dp638
g69
I4
ssg70
Nsg63
(lp639
g56
(g72
g58
NtRp640
(dp641
g61
(dp642
sg70
g636
sg63
(lp643
g56
(g77
g58
NtRp644
(dp645
g61
(dp646
g81
g82
ssg70
g640
sg63
(lp647
S'app_folders'
p648
asbag56
(g77
g58
NtRp649
(dp650
g61
(dp651
g88
g89
ssg70
g640
sg63
(lp652
S':'
asbag56
(g77
g58
NtRp653
(dp654
g61
(dp655
sg70
g640
sg63
(lp656
g56
(g57
g58
NtRp657
(dp658
g61
(dp659
g69
I4
ssg70
g653
sg63
(lp660
S"set(['/Users/excon/Sites/dreamscape/applications/welcome/', '/Users/excon/Sites/dreamscape/applications/admin/'])"
p661
asbasbasbag56
(g72
g58
NtRp662
(dp663
g61
(dp664
sg70
g636
sg63
(lp665
g56
(g77
g58
NtRp666
(dp667
g61
(dp668
g81
g82
ssg70
g662
sg63
(lp669
S'applications_parent'
p670
asbag56
(g77
g58
NtRp671
(dp672
g61
(dp673
g88
g89
ssg70
g662
sg63
(lp674
S':'
asbag56
(g77
g58
NtRp675
(dp676
g61
(dp677
sg70
g662
sg63
(lp678
g56
(g57
g58
NtRp679
(dp680
g61
(dp681
g69
I4
ssg70
g675
sg63
(lp682
S'/Users/excon/Sites/dreamscape'
p683
asbasbasbag56
(g72
g58
NtRp684
(dp685
g61
(dp686
sg70
g636
sg63
(lp687
g56
(g77
g58
NtRp688
(dp689
g61
(dp690
g81
g82
ssg70
g684
sg63
(lp691
S'cmd_args'
p692
asbag56
(g77
g58
NtRp693
(dp694
g61
(dp695
g88
g89
ssg70
g684
sg63
(lp696
S':'
asbag56
(g77
g58
NtRp697
(dp698
g61
(dp699
sg70
g684
sg63
(lp700
g56
(g57
g58
NtRp701
(dp702
g61
(dp703
g69
I4
ssg70
g697
sg63
(lp704
g56
(g65
g58
NtRp705
(dp706
g61
(dp707
g69
I3
ssg70
Nsg63
(lp708
sbasbasbasbag56
(g72
g58
NtRp709
(dp710
g61
(dp711
sg70
g636
sg63
(lp712
g56
(g77
g58
NtRp713
(dp714
g61
(dp715
g81
g82
ssg70
g709
sg63
(lp716
S'cmd_options'
p717
asbag56
(g77
g58
NtRp718
(dp719
g61
(dp720
g88
g89
ssg70
g709
sg63
(lp721
S':'
asbag56
(g77
g58
NtRp722
(dp723
g61
(dp724
sg70
g709
sg63
(lp725
g56
(g57
g58
NtRp726
(dp727
g61
(dp728
g69
I4
ssg70
g722
sg63
(lp729
S"<Values at 0x101c68170: {'verbose': False, 'ip': '127.0.0.1', 'shutdown_timeout': 5, 'taskbar': False, 'nocron': False, 'pid_filename': 'httpserver.pid', 'maxthreads': None, 'softcron': False, 'server_name': 'dhcp-227-132.cruznetsecure.ucsc.edu', 'bpython': False, 'nogui': False, 'port': 8000, 'extcron': False, 'debuglevel': 30, 'test': None, 'folder': '/Users/excon/Sites/dreamscape', 'config': '', 'import_models': False, 'winservice': '', 'shell': None, 'run': '', 'log_filename': 'httpserver.log', 'args': [''], 'ssl_ca_certificate': None, 'scheduler': None, 'profiler_filename': None, 'ssl_private_key': '', 'password': '<ask>', 'request_queue_size': 5, 'ssl_certificate': '', 'cronjob': False, 'plain': False, 'quiet': False, 'interfaces': None, 'minthreads': None, 'timeout': 10, 'numthreads': None, 'nobanner': False}>"
p730
asbasbasbag56
(g72
g58
NtRp731
(dp732
g61
(dp733
sg70
g636
sg63
(lp734
g56
(g77
g58
NtRp735
(dp736
g61
(dp737
g81
g82
ssg70
g731
sg63
(lp738
S'db_sessions'
p739
asbag56
(g77
g58
NtRp740
(dp741
g61
(dp742
g88
g89
ssg70
g731
sg63
(lp743
S':'
asbag56
(g77
g58
NtRp744
(dp745
g61
(dp746
sg70
g731
sg63
(lp747
g56
(g57
g58
NtRp748
(dp749
g61
(dp750
g69
I4
ssg70
g744
sg63
(lp751
S'set([])'
p752
asbasbasbag56
(g72
g58
NtRp753
(dp754
g61
(dp755
sg70
g636
sg63
(lp756
g56
(g77
g58
NtRp757
(dp758
g61
(dp759
g81
g82
ssg70
g753
sg63
(lp760
S'debugging'
p761
asbag56
(g77
g58
NtRp762
(dp763
g61
(dp764
g88
g89
ssg70
g753
sg63
(lp765
S':'
asbag56
(g77
g58
NtRp766
(dp767
g61
(dp768
sg70
g753
sg63
(lp769
g56
(g57
g58
NtRp770
(dp771
g61
(dp772
g69
I4
ssg70
g766
sg63
(lp773
g99
asbasbasbag56
(g72
g58
NtRp774
(dp775
g61
(dp776
sg70
g636
sg63
(lp777
g56
(g77
g58
NtRp778
(dp779
g61
(dp780
g81
g82
ssg70
g774
sg63
(lp781
S'gluon_parent'
p782
asbag56
(g77
g58
NtRp783
(dp784
g61
(dp785
g88
g89
ssg70
g774
sg63
(lp786
S':'
asbag56
(g77
g58
NtRp787
(dp788
g61
(dp789
sg70
g774
sg63
(lp790
g56
(g57
g58
NtRp791
(dp792
g61
(dp793
g69
I4
ssg70
g787
sg63
(lp794
S'/Users/excon/Sites/dreamscape'
p795
asbasbasbag56
(g72
g58
NtRp796
(dp797
g61
(dp798
sg70
g636
sg63
(lp799
g56
(g77
g58
NtRp800
(dp801
g61
(dp802
g81
g82
ssg70
g796
sg63
(lp803
S'http_accept'
p804
asbag56
(g77
g58
NtRp805
(dp806
g61
(dp807
g88
g89
ssg70
g796
sg63
(lp808
S':'
asbag56
(g77
g58
NtRp809
(dp810
g61
(dp811
sg70
g796
sg63
(lp812
g56
(g57
g58
NtRp813
(dp814
g61
(dp815
g69
I4
ssg70
g809
sg63
(lp816
S'text/html,application/xhtml+xml,application/xml;q=0.9,*/*;q=0.8'
p817
asbasbasbag56
(g72
g58
NtRp818
(dp819
g61
(dp820
sg70
g636
sg63
(lp821
g56
(g77
g58
NtRp822
(dp823
g61
(dp824
g81
g82
ssg70
g818
sg63
(lp825
S'http_accept_charset'
p826
asbag56
(g77
g58
NtRp827
(dp828
g61
(dp829
g88
g89
ssg70
g818
sg63
(lp830
S':'
asbag56
(g77
g58
NtRp831
(dp832
g61
(dp833
sg70
g818
sg63
(lp834
g56
(g57
g58
NtRp835
(dp836
g61
(dp837
g69
I4
ssg70
g831
sg63
(lp838
S'ISO-8859-1,utf-8;q=0.7,*;q=0.7'
p839
asbasbasbag56
(g72
g58
NtRp840
(dp841
g61
(dp842
sg70
g636
sg63
(lp843
g56
(g77
g58
NtRp844
(dp845
g61
(dp846
g81
g82
ssg70
g840
sg63
(lp847
S'http_accept_encoding'
p848
asbag56
(g77
g58
NtRp849
(dp850
g61
(dp851
g88
g89
ssg70
g840
sg63
(lp852
S':'
asbag56
(g77
g58
NtRp853
(dp854
g61
(dp855
sg70
g840
sg63
(lp856
g56
(g57
g58
NtRp857
(dp858
g61
(dp859
g69
I4
ssg70
g853
sg63
(lp860
S'gzip, deflate'
p861
asbasbasbag56
(g72
g58
NtRp862
(dp863
g61
(dp864
sg70
g636
sg63
(lp865
g56
(g77
g58
NtRp866
(dp867
g61
(dp868
g81
g82
ssg70
g862
sg63
(lp869
S'http_accept_language'
p870
asbag56
(g77
g58
NtRp871
(dp872
g61
(dp873
g88
g89
ssg70
g862
sg63
(lp874
S':'
asbag56
(g77
g58
NtRp875
(dp876
g61
(dp877
sg70
g862
sg63
(lp878
g56
(g57
g58
NtRp879
(dp880
g61
(dp881
g69
I4
ssg70
g875
sg63
(lp882
S'en-us,en;q=0.5'
p883
asbasbasbag56
(g72
g58
NtRp884
(dp885
g61
(dp886
sg70
g636
sg63
(lp887
g56
(g77
g58
NtRp888
(dp889
g61
(dp890
g81
g82
ssg70
g884
sg63
(lp891
S'http_cache_control'
p892
asbag56
(g77
g58
NtRp893
(dp894
g61
(dp895
g88
g89
ssg70
g884
sg63
(lp896
S':'
asbag56
(g77
g58
NtRp897
(dp898
g61
(dp899
sg70
g884
sg63
(lp900
g56
(g57
g58
NtRp901
(dp902
g61
(dp903
g69
I4
ssg70
g897
sg63
(lp904
S'max-age=0'
p905
asbasbasbag56
(g72
g58
NtRp906
(dp907
g61
(dp908
sg70
g636
sg63
(lp909
g56
(g77
g58
NtRp910
(dp911
g61
(dp912
g81
g82
ssg70
g906
sg63
(lp913
S'http_connection'
p914
asbag56
(g77
g58
NtRp915
(dp916
g61
(dp917
g88
g89
ssg70
g906
sg63
(lp918
S':'
asbag56
(g77
g58
NtRp919
(dp920
g61
(dp921
sg70
g906
sg63
(lp922
g56
(g57
g58
NtRp923
(dp924
g61
(dp925
g69
I4
ssg70
g919
sg63
(lp926
S'keep-alive'
p927
asbasbasbag56
(g72
g58
NtRp928
(dp929
g61
(dp930
sg70
g636
sg63
(lp931
g56
(g77
g58
NtRp932
(dp933
g61
(dp934
g81
g82
ssg70
g928
sg63
(lp935
S'http_cookie'
p936
asbag56
(g77
g58
NtRp937
(dp938
g61
(dp939
g88
g89
ssg70
g928
sg63
(lp940
S':'
asbag56
(g77
g58
NtRp941
(dp942
g61
(dp943
sg70
g928
sg63
(lp944
g56
(g57
g58
NtRp945
(dp946
g61
(dp947
g69
I4
ssg70
g941
sg63
(lp948
S'session_id_welcome=127.0.0.1-b3033565-2f84-4c89-86aa-d3213cda62fe; session_id_admin=127.0.0.1-79a81e0e-91ea-4523-accc-a5613accfcbf'
p949
asbasbasbag56
(g72
g58
NtRp950
(dp951
g61
(dp952
sg70
g636
sg63
(lp953
g56
(g77
g58
NtRp954
(dp955
g61
(dp956
g81
g82
ssg70
g950
sg63
(lp957
S'http_host'
p958
asbag56
(g77
g58
NtRp959
(dp960
g61
(dp961
g88
g89
ssg70
g950
sg63
(lp962
S':'
asbag56
(g77
g58
NtRp963
(dp964
g61
(dp965
sg70
g950
sg63
(lp966
g56
(g57
g58
NtRp967
(dp968
g61
(dp969
g69
I4
ssg70
g963
sg63
(lp970
S'127.0.0.1:8000'
p971
asbasbasbag56
(g72
g58
NtRp972
(dp973
g61
(dp974
sg70
g636
sg63
(lp975
g56
(g77
g58
NtRp976
(dp977
g61
(dp978
g81
g82
ssg70
g972
sg63
(lp979
S'http_user_agent'
p980
asbag56
(g77
g58
NtRp981
(dp982
g61
(dp983
g88
g89
ssg70
g972
sg63
(lp984
S':'
asbag56
(g77
g58
NtRp985
(dp986
g61
(dp987
sg70
g972
sg63
(lp988
g56
(g57
g58
NtRp989
(dp990
g61
(dp991
g69
I4
ssg70
g985
sg63
(lp992
S'Mozilla/5.0 (Macintosh; Intel Mac OS X 10.6; rv:6.0.2) Gecko/20100101 Firefox/6.0.2'
p993
asbasbasbag56
(g72
g58
NtRp994
(dp995
g61
(dp996
sg70
g636
sg63
(lp997
g56
(g77
g58
NtRp998
(dp999
g61
(dp1000
g81
g82
ssg70
g994
sg63
(lp1001
S'is_jython'
p1002
asbag56
(g77
g58
NtRp1003
(dp1004
g61
(dp1005
g88
g89
ssg70
g994
sg63
(lp1006
S':'
asbag56
(g77
g58
NtRp1007
(dp1008
g61
(dp1009
sg70
g994
sg63
(lp1010
g56
(g57
g58
NtRp1011
(dp1012
g61
(dp1013
g69
I4
ssg70
g1007
sg63
(lp1014
g99
asbasbasbag56
(g72
g58
NtRp1015
(dp1016
g61
(dp1017
sg70
g636
sg63
(lp1018
g56
(g77
g58
NtRp1019
(dp1020
g61
(dp1021
g81
g82
ssg70
g1015
sg63
(lp1022
S'path_info'
p1023
asbag56
(g77
g58
NtRp1024
(dp1025
g61
(dp1026
g88
g89
ssg70
g1015
sg63
(lp1027
S':'
asbag56
(g77
g58
NtRp1028
(dp1029
g61
(dp1030
sg70
g1015
sg63
(lp1031
g56
(g57
g58
NtRp1032
(dp1033
g61
(dp1034
g69
I4
ssg70
g1028
sg63
(lp1035
S'/'
asbasbasbag56
(g72
g58
NtRp1036
(dp1037
g61
(dp1038
sg70
g636
sg63
(lp1039
g56
(g77
g58
NtRp1040
(dp1041
g61
(dp1042
g81
g82
ssg70
g1036
sg63
(lp1043
S'query_string'
p1044
asbag56
(g77
g58
NtRp1045
(dp1046
g61
(dp1047
g88
g89
ssg70
g1036
sg63
(lp1048
S':'
asbag56
(g77
g58
NtRp1049
(dp1050
g61
(dp1051
sg70
g1036
sg63
(lp1052
g56
(g57
g58
NtRp1053
(dp1054
g61
(dp1055
g69
I4
ssg70
g1049
sg63
(lp1056
S''
asbasbasbag56
(g72
g58
NtRp1057
(dp1058
g61
(dp1059
sg70
g636
sg63
(lp1060
g56
(g77
g58
NtRp1061
(dp1062
g61
(dp1063
g81
g82
ssg70
g1057
sg63
(lp1064
S'remote_addr'
p1065
asbag56
(g77
g58
NtRp1066
(dp1067
g61
(dp1068
g88
g89
ssg70
g1057
sg63
(lp1069
S':'
asbag56
(g77
g58
NtRp1070
(dp1071
g61
(dp1072
sg70
g1057
sg63
(lp1073
g56
(g57
g58
NtRp1074
(dp1075
g61
(dp1076
g69
I4
ssg70
g1070
sg63
(lp1077
g189
asbasbasbag56
(g72
g58
NtRp1078
(dp1079
g61
(dp1080
sg70
g636
sg63
(lp1081
g56
(g77
g58
NtRp1082
(dp1083
g61
(dp1084
g81
g82
ssg70
g1078
sg63
(lp1085
S'remote_port'
p1086
asbag56
(g77
g58
NtRp1087
(dp1088
g61
(dp1089
g88
g89
ssg70
g1078
sg63
(lp1090
S':'
asbag56
(g77
g58
NtRp1091
(dp1092
g61
(dp1093
sg70
g1078
sg63
(lp1094
g56
(g57
g58
NtRp1095
(dp1096
g61
(dp1097
g69
I4
ssg70
g1091
sg63
(lp1098
S'51210'
p1099
asbasbasbag56
(g72
g58
NtRp1100
(dp1101
g61
(dp1102
sg70
g636
sg63
(lp1103
g56
(g77
g58
NtRp1104
(dp1105
g61
(dp1106
g81
g82
ssg70
g1100
sg63
(lp1107
S'request_method'
p1108
asbag56
(g77
g58
NtRp1109
(dp1110
g61
(dp1111
g88
g89
ssg70
g1100
sg63
(lp1112
S':'
asbag56
(g77
g58
NtRp1113
(dp1114
g61
(dp1115
sg70
g1100
sg63
(lp1116
g56
(g57
g58
NtRp1117
(dp1118
g61
(dp1119
g69
I4
ssg70
g1113
sg63
(lp1120
S'GET'
p1121
asbasbasbag56
(g72
g58
NtRp1122
(dp1123
g61
(dp1124
sg70
g636
sg63
(lp1125
g56
(g77
g58
NtRp1126
(dp1127
g61
(dp1128
g81
g82
ssg70
g1122
sg63
(lp1129
S'request_uri'
p1130
asbag56
(g77
g58
NtRp1131
(dp1132
g61
(dp1133
g88
g89
ssg70
g1122
sg63
(lp1134
S':'
asbag56
(g77
g58
NtRp1135
(dp1136
g61
(dp1137
sg70
g1122
sg63
(lp1138
g56
(g57
g58
NtRp1139
(dp1140
g61
(dp1141
g69
I4
ssg70
g1135
sg63
(lp1142
S'/welcome/default/index'
p1143
asbasbasbag56
(g72
g58
NtRp1144
(dp1145
g61
(dp1146
sg70
g636
sg63
(lp1147
g56
(g77
g58
NtRp1148
(dp1149
g61
(dp1150
g81
g82
ssg70
g1144
sg63
(lp1151
S'script_name'
p1152
asbag56
(g77
g58
NtRp1153
(dp1154
g61
(dp1155
g88
g89
ssg70
g1144
sg63
(lp1156
S':'
asbag56
(g77
g58
NtRp1157
(dp1158
g61
(dp1159
sg70
g1144
sg63
(lp1160
g56
(g57
g58
NtRp1161
(dp1162
g61
(dp1163
g69
I4
ssg70
g1157
sg63
(lp1164
S''
asbasbasbag56
(g72
g58
NtRp1165
(dp1166
g61
(dp1167
sg70
g636
sg63
(lp1168
g56
(g77
g58
NtRp1169
(dp1170
g61
(dp1171
g81
g82
ssg70
g1165
sg63
(lp1172
S'server_name'
p1173
asbag56
(g77
g58
NtRp1174
(dp1175
g61
(dp1176
g88
g89
ssg70
g1165
sg63
(lp1177
S':'
asbag56
(g77
g58
NtRp1178
(dp1179
g61
(dp1180
sg70
g1165
sg63
(lp1181
g56
(g57
g58
NtRp1182
(dp1183
g61
(dp1184
g69
I4
ssg70
g1178
sg63
(lp1185
S'dhcp-227-132.cruznetsecure.ucsc.edu'
p1186
asbasbasbag56
(g72
g58
NtRp1187
(dp1188
g61
(dp1189
sg70
g636
sg63
(lp1190
g56
(g77
g58
NtRp1191
(dp1192
g61
(dp1193
g81
g82
ssg70
g1187
sg63
(lp1194
S'server_port'
p1195
asbag56
(g77
g58
NtRp1196
(dp1197
g61
(dp1198
g88
g89
ssg70
g1187
sg63
(lp1199
S':'
asbag56
(g77
g58
NtRp1200
(dp1201
g61
(dp1202
sg70
g1187
sg63
(lp1203
g56
(g57
g58
NtRp1204
(dp1205
g61
(dp1206
g69
I4
ssg70
g1200
sg63
(lp1207
S'8000'
p1208
asbasbasbag56
(g72
g58
NtRp1209
(dp1210
g61
(dp1211
sg70
g636
sg63
(lp1212
g56
(g77
g58
NtRp1213
(dp1214
g61
(dp1215
g81
g82
ssg70
g1209
sg63
(lp1216
S'server_protocol'
p1217
asbag56
(g77
g58
NtRp1218
(dp1219
g61
(dp1220
g88
g89
ssg70
g1209
sg63
(lp1221
S':'
asbag56
(g77
g58
NtRp1222
(dp1223
g61
(dp1224
sg70
g1209
sg63
(lp1225
g56
(g57
g58
NtRp1226
(dp1227
g61
(dp1228
g69
I4
ssg70
g1222
sg63
(lp1229
S'HTTP/1.1'
p1230
asbasbasbag56
(g72
g58
NtRp1231
(dp1232
g61
(dp1233
sg70
g636
sg63
(lp1234
g56
(g77
g58
NtRp1235
(dp1236
g61
(dp1237
g81
g82
ssg70
g1231
sg63
(lp1238
S'server_software'
p1239
asbag56
(g77
g58
NtRp1240
(dp1241
g61
(dp1242
g88
g89
ssg70
g1231
sg63
(lp1243
S':'
asbag56
(g77
g58
NtRp1244
(dp1245
g61
(dp1246
sg70
g1231
sg63
(lp1247
g56
(g57
g58
NtRp1248
(dp1249
g61
(dp1250
g69
I4
ssg70
g1244
sg63
(lp1251
S'Rocket 1.2.4'
p1252
asbasbasbag56
(g72
g58
NtRp1253
(dp1254
g61
(dp1255
sg70
g636
sg63
(lp1256
g56
(g77
g58
NtRp1257
(dp1258
g61
(dp1259
g81
g82
ssg70
g1253
sg63
(lp1260
S'web2py_crontype'
p1261
asbag56
(g77
g58
NtRp1262
(dp1263
g61
(dp1264
g88
g89
ssg70
g1253
sg63
(lp1265
S':'
asbag56
(g77
g58
NtRp1266
(dp1267
g61
(dp1268
sg70
g1253
sg63
(lp1269
g56
(g57
g58
NtRp1270
(dp1271
g61
(dp1272
g69
I4
ssg70
g1266
sg63
(lp1273
S'hard'
p1274
asbasbasbag56
(g72
g58
NtRp1275
(dp1276
g61
(dp1277
sg70
g636
sg63
(lp1278
g56
(g77
g58
NtRp1279
(dp1280
g61
(dp1281
g81
g82
ssg70
g1275
sg63
(lp1282
S'web2py_original_uri'
p1283
asbag56
(g77
g58
NtRp1284
(dp1285
g61
(dp1286
g88
g89
ssg70
g1275
sg63
(lp1287
S':'
asbag56
(g77
g58
NtRp1288
(dp1289
g61
(dp1290
sg70
g1275
sg63
(lp1291
g56
(g57
g58
NtRp1292
(dp1293
g61
(dp1294
g69
I4
ssg70
g1288
sg63
(lp1295
S'/'
asbasbasbag56
(g72
g58
NtRp1296
(dp1297
g61
(dp1298
sg70
g636
sg63
(lp1299
g56
(g77
g58
NtRp1300
(dp1301
g61
(dp1302
g81
g82
ssg70
g1296
sg63
(lp1303
S'web2py_path'
p1304
asbag56
(g77
g58
NtRp1305
(dp1306
g61
(dp1307
g88
g89
ssg70
g1296
sg63
(lp1308
S':'
asbag56
(g77
g58
NtRp1309
(dp1310
g61
(dp1311
sg70
g1296
sg63
(lp1312
g56
(g57
g58
NtRp1313
(dp1314
g61
(dp1315
g69
I4
ssg70
g1309
sg63
(lp1316
g683
asbasbasbag56
(g72
g58
NtRp1317
(dp1318
g61
(dp1319
sg70
g636
sg63
(lp1320
g56
(g77
g58
NtRp1321
(dp1322
g61
(dp1323
g81
g82
ssg70
g1317
sg63
(lp1324
S'web2py_version'
p1325
asbag56
(g77
g58
NtRp1326
(dp1327
g61
(dp1328
g88
g89
ssg70
g1317
sg63
(lp1329
S':'
asbag56
(g77
g58
NtRp1330
(dp1331
g61
(dp1332
sg70
g1317
sg63
(lp1333
g56
(g57
g58
NtRp1334
(dp1335
g61
(dp1336
g69
I4
ssg70
g1330
sg63
(lp1337
g56
(g65
g58
NtRp1338
(dp1339
g61
(dp1340
g69
I3
ssg70
Nsg63
(lp1341
g56
(g72
g58
NtRp1342
(dp1343
g61
(dp1344
sg70
g1338
sg63
(lp1345
g56
(g77
g58
NtRp1346
(dp1347
g61
(dp1348
sg70
g1342
sg63
(lp1349
g56
(g57
g58
NtRp1350
(dp1351
g61
(dp1352
g69
I3
ssg70
g1346
sg63
(lp1353
S'1'
asbasbasbag56
(g72
g58
NtRp1354
(dp1355
g61
(dp1356
sg70
g1338
sg63
(lp1357
g56
(g77
g58
NtRp1358
(dp1359
g61
(dp1360
sg70
g1354
sg63
(lp1361
g56
(g57
g58
NtRp1362
(dp1363
g61
(dp1364
g69
I3
ssg70
g1358
sg63
(lp1365
S'99'
p1366
asbasbasbag56
(g72
g58
NtRp1367
(dp1368
g61
(dp1369
sg70
g1338
sg63
(lp1370
g56
(g77
g58
NtRp1371
(dp1372
g61
(dp1373
sg70
g1367
sg63
(lp1374
g56
(g57
g58
NtRp1375
(dp1376
g61
(dp1377
g69
I3
ssg70
g1371
sg63
(lp1378
S'2'
asbasbasbag56
(g72
g58
NtRp1379
(dp1380
g61
(dp1381
sg70
g1338
sg63
(lp1382
g56
(g77
g58
NtRp1383
(dp1384
g61
(dp1385
sg70
g1379
sg63
(lp1386
g56
(g57
g58
NtRp1387
(dp1388
g61
(dp1389
g69
I3
ssg70
g1383
sg63
(lp1390
S'datetime.datetime(2011, 9, 26, 6, 55, 33)'
p1391
asbasbasbag56
(g72
g58
NtRp1392
(dp1393
g61
(dp1394
sg70
g1338
sg63
(lp1395
g56
(g77
g58
NtRp1396
(dp1397
g61
(dp1398
sg70
g1392
sg63
(lp1399
g56
(g57
g58
NtRp1400
(dp1401
g61
(dp1402
g69
I3
ssg70
g1396
sg63
(lp1403
S'stable'
p1404
asbasbasbasbasbasbasbag56
(g72
g58
NtRp1405
(dp1406
g61
(dp1407
sg70
g636
sg63
(lp1408
g56
(g77
g58
NtRp1409
(dp1410
g61
(dp1411
g81
g82
ssg70
g1405
sg63
(lp1412
S'wsgi_errors'
p1413
asbag56
(g77
g58
NtRp1414
(dp1415
g61
(dp1416
g88
g89
ssg70
g1405
sg63
(lp1417
S':'
asbag56
(g77
g58
NtRp1418
(dp1419
g61
(dp1420
sg70
g1405
sg63
(lp1421
g56
(g57
g58
NtRp1422
(dp1423
g61
(dp1424
g69
I4
ssg70
g1418
sg63
(lp1425
S"<open file '<stderr>', mode 'w' at 0x100416140>"
p1426
asbasbasbag56
(g72
g58
NtRp1427
(dp1428
g61
(dp1429
sg70
g636
sg63
(lp1430
g56
(g77
g58
NtRp1431
(dp1432
g61
(dp1433
g81
g82
ssg70
g1427
sg63
(lp1434
S'wsgi_file_wrapper'
p1435
asbag56
(g77
g58
NtRp1436
(dp1437
g61
(dp1438
g88
g89
ssg70
g1427
sg63
(lp1439
S':'
asbag56
(g77
g58
NtRp1440
(dp1441
g61
(dp1442
sg70
g1427
sg63
(lp1443
g56
(g57
g58
NtRp1444
(dp1445
g61
(dp1446
g69
I4
ssg70
g1440
sg63
(lp1447
S'<class wsgiref.util.FileWrapper at 0x1014a2bf0>'
p1448
asbasbasbag56
(g72
g58
NtRp1449
(dp1450
g61
(dp1451
sg70
g636
sg63
(lp1452
g56
(g77
g58
NtRp1453
(dp1454
g61
(dp1455
g81
g82
ssg70
g1449
sg63
(lp1456
S'wsgi_input'
p1457
asbag56
(g77
g58
NtRp1458
(dp1459
g61
(dp1460
g88
g89
ssg70
g1449
sg63
(lp1461
S':'
asbag56
(g77
g58
NtRp1462
(dp1463
g61
(dp1464
sg70
g1449
sg63
(lp1465
g56
(g57
g58
NtRp1466
(dp1467
g61
(dp1468
g69
I4
ssg70
g1462
sg63
(lp1469
S'<socket._fileobject object at 0x1016200c8>'
p1470
asbasbasbag56
(g72
g58
NtRp1471
(dp1472
g61
(dp1473
sg70
g636
sg63
(lp1474
g56
(g77
g58
NtRp1475
(dp1476
g61
(dp1477
g81
g82
ssg70
g1471
sg63
(lp1478
S'wsgi_multiprocess'
p1479
asbag56
(g77
g58
NtRp1480
(dp1481
g61
(dp1482
g88
g89
ssg70
g1471
sg63
(lp1483
S':'
asbag56
(g77
g58
NtRp1484
(dp1485
g61
(dp1486
sg70
g1471
sg63
(lp1487
g56
(g57
g58
NtRp1488
(dp1489
g61
(dp1490
g69
I4
ssg70
g1484
sg63
(lp1491
g99
asbasbasbag56
(g72
g58
NtRp1492
(dp1493
g61
(dp1494
sg70
g636
sg63
(lp1495
g56
(g77
g58
NtRp1496
(dp1497
g61
(dp1498
g81
g82
ssg70
g1492
sg63
(lp1499
S'wsgi_multithread'
p1500
asbag56
(g77
g58
NtRp1501
(dp1502
g61
(dp1503
g88
g89
ssg70
g1492
sg63
(lp1504
S':'
asbag56
(g77
g58
NtRp1505
(dp1506
g61
(dp1507
sg70
g1492
sg63
(lp1508
g56
(g57
g58
NtRp1509
(dp1510
g61
(dp1511
g69
I4
ssg70
g1505
sg63
(lp1512
S'True'
p1513
asbasbasbag56
(g72
g58
NtRp1514
(dp1515
g61
(dp1516
sg70
g636
sg63
(lp1517
g56
(g77
g58
NtRp1518
(dp1519
g61
(dp1520
g81
g82
ssg70
g1514
sg63
(lp1521
S'wsgi_run_once'
p1522
asbag56
(g77
g58
NtRp1523
(dp1524
g61
(dp1525
g88
g89
ssg70
g1514
sg63
(lp1526
S':'
asbag56
(g77
g58
NtRp1527
(dp1528
g61
(dp1529
sg70
g1514
sg63
(lp1530
g56
(g57
g58
NtRp1531
(dp1532
g61
(dp1533
g69
I4
ssg70
g1527
sg63
(lp1534
g99
asbasbasbag56
(g72
g58
NtRp1535
(dp1536
g61
(dp1537
sg70
g636
sg63
(lp1538
g56
(g77
g58
NtRp1539
(dp1540
g61
(dp1541
g81
g82
ssg70
g1535
sg63
(lp1542
S'wsgi_url_scheme'
p1543
asbag56
(g77
g58
NtRp1544
(dp1545
g61
(dp1546
g88
g89
ssg70
g1535
sg63
(lp1547
S':'
asbag56
(g77
g58
NtRp1548
(dp1549
g61
(dp1550
sg70
g1535
sg63
(lp1551
g56
(g57
g58
NtRp1552
(dp1553
g61
(dp1554
g69
I4
ssg70
g1548
sg63
(lp1555
S'http'
p1556
asbasbasbag56
(g72
g58
NtRp1557
(dp1558
g61
(dp1559
sg70
g636
sg63
(lp1560
g56
(g77
g58
NtRp1561
(dp1562
g61
(dp1563
g81
g82
ssg70
g1557
sg63
(lp1564
S'wsgi_version'
p1565
asbag56
(g77
g58
NtRp1566
(dp1567
g61
(dp1568
g88
g89
ssg70
g1557
sg63
(lp1569
S':'
asbag56
(g77
g58
NtRp1570
(dp1571
g61
(dp1572
sg70
g1557
sg63
(lp1573
g56
(g57
g58
NtRp1574
(dp1575
g61
(dp1576
g69
I4
ssg70
g1570
sg63
(lp1577
g56
(g65
g58
NtRp1578
(dp1579
g61
(dp1580
g69
I3
ssg70
Nsg63
(lp1581
g56
(g72
g58
NtRp1582
(dp1583
g61
(dp1584
sg70
g1578
sg63
(lp1585
g56
(g77
g58
NtRp1586
(dp1587
g61
(dp1588
sg70
g1582
sg63
(lp1589
g56
(g57
g58
NtRp1590
(dp1591
g61
(dp1592
g69
I3
ssg70
g1586
sg63
(lp1593
S'1'
asbasbasbag56
(g72
g58
NtRp1594
(dp1595
g61
(dp1596
sg70
g1578
sg63
(lp1597
g56
(g77
g58
NtRp1598
(dp1599
g61
(dp1600
sg70
g1594
sg63
(lp1601
g56
(g57
g58
NtRp1602
(dp1603
g61
(dp1604
g69
I3
ssg70
g1598
sg63
(lp1605
S'0'
asbasbasbasbasbasbasbasbasbasbasbag56
(g72
g58
NtRp1606
(dp1607
g61
(dp1608
sg70
g66
sg63
(lp1609
g56
(g77
g58
NtRp1610
(dp1611
g61
(dp1612
g81
g82
ssg70
g1606
sg63
(lp1613
S'extension'
p1614
asbag56
(g77
g58
NtRp1615
(dp1616
g61
(dp1617
g88
g89
ssg70
g1606
sg63
(lp1618
S':'
asbag56
(g77
g58
NtRp1619
(dp1620
g61
(dp1621
sg70
g1606
sg63
(lp1622
g56
(g57
g58
NtRp1623
(dp1624
g61
(dp1625
g69
I5
ssg70
g1619
sg63
(lp1626
S'html'
p1627
asbasbasbag56
(g72
g58
NtRp1628
(dp1629
g61
(dp1630
sg70
g66
sg63
(lp1631
g56
(g77
g58
NtRp1632
(dp1633
g61
(dp1634
g81
g82
ssg70
g1628
sg63
(lp1635
S'folder'
p1636
asbag56
(g77
g58
NtRp1637
(dp1638
g61
(dp1639
g88
g89
ssg70
g1628
sg63
(lp1640
S':'
asbag56
(g77
g58
NtRp1641
(dp1642
g61
(dp1643
sg70
g1628
sg63
(lp1644
g56
(g57
g58
NtRp1645
(dp1646
g61
(dp1647
g69
I5
ssg70
g1641
sg63
(lp1648
S'/Users/excon/Sites/dreamscape/applications/welcome/'
p1649
asbasbasbag56
(g72
g58
NtRp1650
(dp1651
g61
(dp1652
sg70
g66
sg63
(lp1653
g56
(g77
g58
NtRp1654
(dp1655
g61
(dp1656
g81
g82
ssg70
g1650
sg63
(lp1657
S'function'
p1658
asbag56
(g77
g58
NtRp1659
(dp1660
g61
(dp1661
g88
g89
ssg70
g1650
sg63
(lp1662
S':'
asbag56
(g77
g58
NtRp1663
(dp1664
g61
(dp1665
sg70
g1650
sg63
(lp1666
g56
(g57
g58
NtRp1667
(dp1668
g61
(dp1669
g69
I5
ssg70
g1663
sg63
(lp1670
S'index'
p1671
asbasbasbag56
(g72
g58
NtRp1672
(dp1673
g61
(dp1674
sg70
g66
sg63
(lp1675
g56
(g77
g58
NtRp1676
(dp1677
g61
(dp1678
g81
g82
ssg70
g1672
sg63
(lp1679
S'get_vars'
p1680
asbag56
(g77
g58
NtRp1681
(dp1682
g61
(dp1683
g88
g89
ssg70
g1672
sg63
(lp1684
S':'
asbag56
(g77
g58
NtRp1685
(dp1686
g61
(dp1687
sg70
g1672
sg63
(lp1688
g56
(g57
g58
NtRp1689
(dp1690
g61
(dp1691
g69
I5
ssg70
g1685
sg63
(lp1692
g56
(g65
g58
NtRp1693
(dp1694
g61
(dp1695
g69
I4
ssg70
Nsg63
(lp1696
sbasbasbasbag56
(g72
g58
NtRp1697
(dp1698
g61
(dp1699
sg70
g66
sg63
(lp1700
g56
(g77
g58
NtRp1701
(dp1702
g61
(dp1703
g81
g82
ssg70
g1697
sg63
(lp1704
S'global_settings'
p1705
asbag56
(g77
g58
NtRp1706
(dp1707
g61
(dp1708
g88
g89
ssg70
g1697
sg63
(lp1709
S':'
asbag56
(g77
g58
NtRp1710
(dp1711
g61
(dp1712
sg70
g1697
sg63
(lp1713
g56
(g57
g58
NtRp1714
(dp1715
g61
(dp1716
g69
I5
ssg70
g1710
sg63
(lp1717
g56
(g65
g58
NtRp1718
(dp1719
g61
(dp1720
g69
I4
ssg70
Nsg63
(lp1721
g56
(g72
g58
NtRp1722
(dp1723
g61
(dp1724
sg70
g1718
sg63
(lp1725
g56
(g77
g58
NtRp1726
(dp1727
g61
(dp1728
g81
g82
ssg70
g1722
sg63
(lp1729
g648
asbag56
(g77
g58
NtRp1730
(dp1731
g61
(dp1732
g88
g89
ssg70
g1722
sg63
(lp1733
S':'
asbag56
(g77
g58
NtRp1734
(dp1735
g61
(dp1736
sg70
g1722
sg63
(lp1737
g56
(g57
g58
NtRp1738
(dp1739
g61
(dp1740
g69
I4
ssg70
g1734
sg63
(lp1741
S"set(['/Users/excon/Sites/dreamscape/applications/welcome/', '/Users/excon/Sites/dreamscape/applications/admin/'])"
p1742
asbasbasbag56
(g72
g58
NtRp1743
(dp1744
g61
(dp1745
sg70
g1718
sg63
(lp1746
g56
(g77
g58
NtRp1747
(dp1748
g61
(dp1749
g81
g82
ssg70
g1743
sg63
(lp1750
g670
asbag56
(g77
g58
NtRp1751
(dp1752
g61
(dp1753
g88
g89
ssg70
g1743
sg63
(lp1754
S':'
asbag56
(g77
g58
NtRp1755
(dp1756
g61
(dp1757
sg70
g1743
sg63
(lp1758
g56
(g57
g58
NtRp1759
(dp1760
g61
(dp1761
g69
I4
ssg70
g1755
sg63
(lp1762
g683
asbasbasbag56
(g72
g58
NtRp1763
(dp1764
g61
(dp1765
sg70
g1718
sg63
(lp1766
g56
(g77
g58
NtRp1767
(dp1768
g61
(dp1769
g81
g82
ssg70
g1763
sg63
(lp1770
g692
asbag56
(g77
g58
NtRp1771
(dp1772
g61
(dp1773
g88
g89
ssg70
g1763
sg63
(lp1774
S':'
asbag56
(g77
g58
NtRp1775
(dp1776
g61
(dp1777
sg70
g1763
sg63
(lp1778
g56
(g57
g58
NtRp1779
(dp1780
g61
(dp1781
g69
I4
ssg70
g1775
sg63
(lp1782
g56
(g65
g58
NtRp1783
(dp1784
g61
(dp1785
g69
I3
ssg70
Nsg63
(lp1786
sbasbasbasbag56
(g72
g58
NtRp1787
(dp1788
g61
(dp1789
sg70
g1718
sg63
(lp1790
g56
(g77
g58
NtRp1791
(dp1792
g61
(dp1793
g81
g82
ssg70
g1787
sg63
(lp1794
g717
asbag56
(g77
g58
NtRp1795
(dp1796
g61
(dp1797
g88
g89
ssg70
g1787
sg63
(lp1798
S':'
asbag56
(g77
g58
NtRp1799
(dp1800
g61
(dp1801
sg70
g1787
sg63
(lp1802
g56
(g57
g58
NtRp1803
(dp1804
g61
(dp1805
g69
I4
ssg70
g1799
sg63
(lp1806
S"<Values at 0x101c68170: {'verbose': False, 'ip': '127.0.0.1', 'shutdown_timeout': 5, 'taskbar': False, 'nocron': False, 'pid_filename': 'httpserver.pid', 'maxthreads': None, 'softcron': False, 'server_name': 'dhcp-227-132.cruznetsecure.ucsc.edu', 'bpython': False, 'nogui': False, 'port': 8000, 'extcron': False, 'debuglevel': 30, 'test': None, 'folder': '/Users/excon/Sites/dreamscape', 'config': '', 'import_models': False, 'winservice': '', 'shell': None, 'run': '', 'log_filename': 'httpserver.log', 'args': [''], 'ssl_ca_certificate': None, 'scheduler': None, 'profiler_filename': None, 'ssl_private_key': '', 'password': '<ask>', 'request_queue_size': 5, 'ssl_certificate': '', 'cronjob': False, 'plain': False, 'quiet': False, 'interfaces': None, 'minthreads': None, 'timeout': 10, 'numthreads': None, 'nobanner': False}>"
p1807
asbasbasbag56
(g72
g58
NtRp1808
(dp1809
g61
(dp1810
sg70
g1718
sg63
(lp1811
g56
(g77
g58
NtRp1812
(dp1813
g61
(dp1814
g81
g82
ssg70
g1808
sg63
(lp1815
g739
asbag56
(g77
g58
NtRp1816
(dp1817
g61
(dp1818
g88
g89
ssg70
g1808
sg63
(lp1819
S':'
asbag56
(g77
g58
NtRp1820
(dp1821
g61
(dp1822
sg70
g1808
sg63
(lp1823
g56
(g57
g58
NtRp1824
(dp1825
g61
(dp1826
g69
I4
ssg70
g1820
sg63
(lp1827
S'set([])'
p1828
asbasbasbag56
(g72
g58
NtRp1829
(dp1830
g61
(dp1831
sg70
g1718
sg63
(lp1832
g56
(g77
g58
NtRp1833
(dp1834
g61
(dp1835
g81
g82
ssg70
g1829
sg63
(lp1836
g761
asbag56
(g77
g58
NtRp1837
(dp1838
g61
(dp1839
g88
g89
ssg70
g1829
sg63
(lp1840
S':'
asbag56
(g77
g58
NtRp1841
(dp1842
g61
(dp1843
sg70
g1829
sg63
(lp1844
g56
(g57
g58
NtRp1845
(dp1846
g61
(dp1847
g69
I4
ssg70
g1841
sg63
(lp1848
g99
asbasbasbag56
(g72
g58
NtRp1849
(dp1850
g61
(dp1851
sg70
g1718
sg63
(lp1852
g56
(g77
g58
NtRp1853
(dp1854
g61
(dp1855
g81
g82
ssg70
g1849
sg63
(lp1856
g782
asbag56
(g77
g58
NtRp1857
(dp1858
g61
(dp1859
g88
g89
ssg70
g1849
sg63
(lp1860
S':'
asbag56
(g77
g58
NtRp1861
(dp1862
g61
(dp1863
sg70
g1849
sg63
(lp1864
g56
(g57
g58
NtRp1865
(dp1866
g61
(dp1867
g69
I4
ssg70
g1861
sg63
(lp1868
g795
asbasbasbag56
(g72
g58
NtRp1869
(dp1870
g61
(dp1871
sg70
g1718
sg63
(lp1872
g56
(g77
g58
NtRp1873
(dp1874
g61
(dp1875
g81
g82
ssg70
g1869
sg63
(lp1876
g1002
asbag56
(g77
g58
NtRp1877
(dp1878
g61
(dp1879
g88
g89
ssg70
g1869
sg63
(lp1880
S':'
asbag56
(g77
g58
NtRp1881
(dp1882
g61
(dp1883
sg70
g1869
sg63
(lp1884
g56
(g57
g58
NtRp1885
(dp1886
g61
(dp1887
g69
I4
ssg70
g1881
sg63
(lp1888
g99
asbasbasbag56
(g72
g58
NtRp1889
(dp1890
g61
(dp1891
sg70
g1718
sg63
(lp1892
g56
(g77
g58
NtRp1893
(dp1894
g61
(dp1895
g81
g82
ssg70
g1889
sg63
(lp1896
g1261
asbag56
(g77
g58
NtRp1897
(dp1898
g61
(dp1899
g88
g89
ssg70
g1889
sg63
(lp1900
S':'
asbag56
(g77
g58
NtRp1901
(dp1902
g61
(dp1903
sg70
g1889
sg63
(lp1904
g56
(g57
g58
NtRp1905
(dp1906
g61
(dp1907
g69
I4
ssg70
g1901
sg63
(lp1908
g1274
asbasbasbag56
(g72
g58
NtRp1909
(dp1910
g61
(dp1911
sg70
g1718
sg63
(lp1912
g56
(g77
g58
NtRp1913
(dp1914
g61
(dp1915
g81
g82
ssg70
g1909
sg63
(lp1916
g1325
asbag56
(g77
g58
NtRp1917
(dp1918
g61
(dp1919
g88
g89
ssg70
g1909
sg63
(lp1920
S':'
asbag56
(g77
g58
NtRp1921
(dp1922
g61
(dp1923
sg70
g1909
sg63
(lp1924
g56
(g57
g58
NtRp1925
(dp1926
g61
(dp1927
g69
I4
ssg70
g1921
sg63
(lp1928
g56
(g65
g58
NtRp1929
(dp1930
g61
(dp1931
g69
I3
ssg70
Nsg63
(lp1932
g56
(g72
g58
NtRp1933
(dp1934
g61
(dp1935
sg70
g1929
sg63
(lp1936
g56
(g77
g58
NtRp1937
(dp1938
g61
(dp1939
sg70
g1933
sg63
(lp1940
g56
(g57
g58
NtRp1941
(dp1942
g61
(dp1943
g69
I3
ssg70
g1937
sg63
(lp1944
S'1'
asbasbasbag56
(g72
g58
NtRp1945
(dp1946
g61
(dp1947
sg70
g1929
sg63
(lp1948
g56
(g77
g58
NtRp1949
(dp1950
g61
(dp1951
sg70
g1945
sg63
(lp1952
g56
(g57
g58
NtRp1953
(dp1954
g61
(dp1955
g69
I3
ssg70
g1949
sg63
(lp1956
S'99'
p1957
asbasbasbag56
(g72
g58
NtRp1958
(dp1959
g61
(dp1960
sg70
g1929
sg63
(lp1961
g56
(g77
g58
NtRp1962
(dp1963
g61
(dp1964
sg70
g1958
sg63
(lp1965
g56
(g57
g58
NtRp1966
(dp1967
g61
(dp1968
g69
I3
ssg70
g1962
sg63
(lp1969
S'2'
asbasbasbag56
(g72
g58
NtRp1970
(dp1971
g61
(dp1972
sg70
g1929
sg63
(lp1973
g56
(g77
g58
NtRp1974
(dp1975
g61
(dp1976
sg70
g1970
sg63
(lp1977
g56
(g57
g58
NtRp1978
(dp1979
g61
(dp1980
g69
I3
ssg70
g1974
sg63
(lp1981
S'datetime.datetime(2011, 9, 26, 6, 55, 33)'
p1982
asbasbasbag56
(g72
g58
NtRp1983
(dp1984
g61
(dp1985
sg70
g1929
sg63
(lp1986
g56
(g77
g58
NtRp1987
(dp1988
g61
(dp1989
sg70
g1983
sg63
(lp1990
g56
(g57
g58
NtRp1991
(dp1992
g61
(dp1993
g69
I3
ssg70
g1987
sg63
(lp1994
g1404
asbasbasbasbasbasbasbasbasbasbasbag56
(g72
g58
NtRp1995
(dp1996
g61
(dp1997
sg70
g66
sg63
(lp1998
g56
(g77
g58
NtRp1999
(dp2000
g61
(dp2001
g81
g82
ssg70
g1995
sg63
(lp2002
S'is_https'
p2003
asbag56
(g77
g58
NtRp2004
(dp2005
g61
(dp2006
g88
g89
ssg70
g1995
sg63
(lp2007
S':'
asbag56
(g77
g58
NtRp2008
(dp2009
g61
(dp2010
sg70
g1995
sg63
(lp2011
g56
(g57
g58
NtRp2012
(dp2013
g61
(dp2014
g69
I5
ssg70
g2008
sg63
(lp2015
g99
asbasbasbag56
(g72
g58
NtRp2016
(dp2017
g61
(dp2018
sg70
g66
sg63
(lp2019
g56
(g77
g58
NtRp2020
(dp2021
g61
(dp2022
g81
g82
ssg70
g2016
sg63
(lp2023
S'is_local'
p2024
asbag56
(g77
g58
NtRp2025
(dp2026
g61
(dp2027
g88
g89
ssg70
g2016
sg63
(lp2028
S':'
asbag56
(g77
g58
NtRp2029
(dp2030
g61
(dp2031
sg70
g2016
sg63
(lp2032
g56
(g57
g58
NtRp2033
(dp2034
g61
(dp2035
g69
I5
ssg70
g2029
sg63
(lp2036
g1513
asbasbasbag56
(g72
g58
NtRp2037
(dp2038
g61
(dp2039
sg70
g66
sg63
(lp2040
g56
(g77
g58
NtRp2041
(dp2042
g61
(dp2043
g81
g82
ssg70
g2037
sg63
(lp2044
S'is_restful'
p2045
asbag56
(g77
g58
NtRp2046
(dp2047
g61
(dp2048
g88
g89
ssg70
g2037
sg63
(lp2049
S':'
asbag56
(g77
g58
NtRp2050
(dp2051
g61
(dp2052
sg70
g2037
sg63
(lp2053
g56
(g57
g58
NtRp2054
(dp2055
g61
(dp2056
g69
I5
ssg70
g2050
sg63
(lp2057
g99
asbasbasbag56
(g72
g58
NtRp2058
(dp2059
g61
(dp2060
sg70
g66
sg63
(lp2061
g56
(g77
g58
NtRp2062
(dp2063
g61
(dp2064
g81
g82
ssg70
g2058
sg63
(lp2065
S'now'
p2066
asbag56
(g77
g58
NtRp2067
(dp2068
g61
(dp2069
g88
g89
ssg70
g2058
sg63
(lp2070
S':'
asbag56
(g77
g58
NtRp2071
(dp2072
g61
(dp2073
sg70
g2058
sg63
(lp2074
g56
(g57
g58
NtRp2075
(dp2076
g61
(dp2077
g69
I5
ssg70
g2071
sg63
(lp2078
S'datetime.datetime(2011, 9, 29, 13, 21, 19, 550960)'
p2079
asbasbasbag56
(g72
g58
NtRp2080
(dp2081
g61
(dp2082
sg70
g66
sg63
(lp2083
g56
(g77
g58
NtRp2084
(dp2085
g61
(dp2086
g81
g82
ssg70
g2080
sg63
(lp2087
S'post_vars'
p2088
asbag56
(g77
g58
NtRp2089
(dp2090
g61
(dp2091
g88
g89
ssg70
g2080
sg63
(lp2092
S':'
asbag56
(g77
g58
NtRp2093
(dp2094
g61
(dp2095
sg70
g2080
sg63
(lp2096
g56
(g57
g58
NtRp2097
(dp2098
g61
(dp2099
g69
I5
ssg70
g2093
sg63
(lp2100
g56
(g65
g58
NtRp2101
(dp2102
g61
(dp2103
g69
I4
ssg70
Nsg63
(lp2104
sbasbasbasbag56
(g72
g58
NtRp2105
(dp2106
g61
(dp2107
sg70
g66
sg63
(lp2108
g56
(g77
g58
NtRp2109
(dp2110
g61
(dp2111
g81
g82
ssg70
g2105
sg63
(lp2112
S'url'
p2113
asbag56
(g77
g58
NtRp2114
(dp2115
g61
(dp2116
g88
g89
ssg70
g2105
sg63
(lp2117
S':'
asbag56
(g77
g58
NtRp2118
(dp2119
g61
(dp2120
sg70
g2105
sg63
(lp2121
g56
(g57
g58
NtRp2122
(dp2123
g61
(dp2124
g69
I5
ssg70
g2118
sg63
(lp2125
S'/'
asbasbasbag56
(g72
g58
NtRp2126
(dp2127
g61
(dp2128
sg70
g66
sg63
(lp2129
g56
(g77
g58
NtRp2130
(dp2131
g61
(dp2132
g81
g82
ssg70
g2126
sg63
(lp2133
S'utcnow'
p2134
asbag56
(g77
g58
NtRp2135
(dp2136
g61
(dp2137
g88
g89
ssg70
g2126
sg63
(lp2138
S':'
asbag56
(g77
g58
NtRp2139
(dp2140
g61
(dp2141
sg70
g2126
sg63
(lp2142
g56
(g57
g58
NtRp2143
(dp2144
g61
(dp2145
g69
I5
ssg70
g2139
sg63
(lp2146
S'datetime.datetime(2011, 9, 29, 20, 21, 19, 550974)'
p2147
asbasbasbag56
(g72
g58
NtRp2148
(dp2149
g61
(dp2150
sg70
g66
sg63
(lp2151
g56
(g77
g58
NtRp2152
(dp2153
g61
(dp2154
g81
g82
ssg70
g2148
sg63
(lp2155
S'uuid'
p2156
asbag56
(g77
g58
NtRp2157
(dp2158
g61
(dp2159
g88
g89
ssg70
g2148
sg63
(lp2160
S':'
asbag56
(g77
g58
NtRp2161
(dp2162
g61
(dp2163
sg70
g2148
sg63
(lp2164
g56
(g57
g58
NtRp2165
(dp2166
g61
(dp2167
g69
I5
ssg70
g2161
sg63
(lp2168
S'welcome/127.0.0.1.2011-09-29.13-21-19.6858927c-3935-4ecc-89b0-ec479c56533f'
p2169
asbasbasbag56
(g72
g58
NtRp2170
(dp2171
g61
(dp2172
sg70
g66
sg63
(lp2173
g56
(g77
g58
NtRp2174
(dp2175
g61
(dp2176
g81
g82
ssg70
g2170
sg63
(lp2177
S'vars'
p2178
asbag56
(g77
g58
NtRp2179
(dp2180
g61
(dp2181
g88
g89
ssg70
g2170
sg63
(lp2182
S':'
asbag56
(g77
g58
NtRp2183
(dp2184
g61
(dp2185
sg70
g2170
sg63
(lp2186
g56
(g57
g58
NtRp2187
(dp2188
g61
(dp2189
g69
I5
ssg70
g2183
sg63
(lp2190
g56
(g65
g58
NtRp2191
(dp2192
g61
(dp2193
g69
I4
ssg70
Nsg63
(lp2194
sbasbasbasbag56
(g72
g58
NtRp2195
(dp2196
g61
(dp2197
sg70
g66
sg63
(lp2198
g56
(g77
g58
NtRp2199
(dp2200
g61
(dp2201
g81
g82
ssg70
g2195
sg63
(lp2202
S'wsgi'
p2203
asbag56
(g77
g58
NtRp2204
(dp2205
g61
(dp2206
g88
g89
ssg70
g2195
sg63
(lp2207
S':'
asbag56
(g77
g58
NtRp2208
(dp2209
g61
(dp2210
sg70
g2195
sg63
(lp2211
g56
(g57
g58
NtRp2212
(dp2213
g61
(dp2214
g69
I5
ssg70
g2208
sg63
(lp2215
g56
(g65
g58
NtRp2216
(dp2217
g61
(dp2218
g69
I4
ssg70
Nsg63
(lp2219
g56
(g72
g58
NtRp2220
(dp2221
g61
(dp2222
sg70
g2216
sg63
(lp2223
g56
(g77
g58
NtRp2224
(dp2225
g61
(dp2226
g81
g82
ssg70
g2220
sg63
(lp2227
S'environ'
p2228
asbag56
(g77
g58
NtRp2229
(dp2230
g61
(dp2231
g88
g89
ssg70
g2220
sg63
(lp2232
S':'
asbag56
(g77
g58
NtRp2233
(dp2234
g61
(dp2235
sg70
g2220
sg63
(lp2236
g56
(g57
g58
NtRp2237
(dp2238
g61
(dp2239
g69
I4
ssg70
g2233
sg63
(lp2240
g56
(g65
g58
NtRp2241
(dp2242
g61
(dp2243
g69
I3
ssg70
Nsg63
(lp2244
g56
(g72
g58
NtRp2245
(dp2246
g61
(dp2247
sg70
g2241
sg63
(lp2248
g56
(g77
g58
NtRp2249
(dp2250
g61
(dp2251
g81
g82
ssg70
g2245
sg63
(lp2252
S'HTTP_ACCEPT'
p2253
asbag56
(g77
g58
NtRp2254
(dp2255
g61
(dp2256
g88
g89
ssg70
g2245
sg63
(lp2257
S':'
asbag56
(g77
g58
NtRp2258
(dp2259
g61
(dp2260
sg70
g2245
sg63
(lp2261
g56
(g57
g58
NtRp2262
(dp2263
g61
(dp2264
g69
I3
ssg70
g2258
sg63
(lp2265
g817
asbasbasbag56
(g72
g58
NtRp2266
(dp2267
g61
(dp2268
sg70
g2241
sg63
(lp2269
g56
(g77
g58
NtRp2270
(dp2271
g61
(dp2272
g81
g82
ssg70
g2266
sg63
(lp2273
S'HTTP_ACCEPT_CHARSET'
p2274
asbag56
(g77
g58
NtRp2275
(dp2276
g61
(dp2277
g88
g89
ssg70
g2266
sg63
(lp2278
S':'
asbag56
(g77
g58
NtRp2279
(dp2280
g61
(dp2281
sg70
g2266
sg63
(lp2282
g56
(g57
g58
NtRp2283
(dp2284
g61
(dp2285
g69
I3
ssg70
g2279
sg63
(lp2286
g839
asbasbasbag56
(g72
g58
NtRp2287
(dp2288
g61
(dp2289
sg70
g2241
sg63
(lp2290
g56
(g77
g58
NtRp2291
(dp2292
g61
(dp2293
g81
g82
ssg70
g2287
sg63
(lp2294
S'HTTP_ACCEPT_ENCODING'
p2295
asbag56
(g77
g58
NtRp2296
(dp2297
g61
(dp2298
g88
g89
ssg70
g2287
sg63
(lp2299
S':'
asbag56
(g77
g58
NtRp2300
(dp2301
g61
(dp2302
sg70
g2287
sg63
(lp2303
g56
(g57
g58
NtRp2304
(dp2305
g61
(dp2306
g69
I3
ssg70
g2300
sg63
(lp2307
g861
asbasbasbag56
(g72
g58
NtRp2308
(dp2309
g61
(dp2310
sg70
g2241
sg63
(lp2311
g56
(g77
g58
NtRp2312
(dp2313
g61
(dp2314
g81
g82
ssg70
g2308
sg63
(lp2315
S'HTTP_ACCEPT_LANGUAGE'
p2316
asbag56
(g77
g58
NtRp2317
(dp2318
g61
(dp2319
g88
g89
ssg70
g2308
sg63
(lp2320
S':'
asbag56
(g77
g58
NtRp2321
(dp2322
g61
(dp2323
sg70
g2308
sg63
(lp2324
g56
(g57
g58
NtRp2325
(dp2326
g61
(dp2327
g69
I3
ssg70
g2321
sg63
(lp2328
g883
asbasbasbag56
(g72
g58
NtRp2329
(dp2330
g61
(dp2331
sg70
g2241
sg63
(lp2332
g56
(g77
g58
NtRp2333
(dp2334
g61
(dp2335
g81
g82
ssg70
g2329
sg63
(lp2336
S'HTTP_CACHE_CONTROL'
p2337
asbag56
(g77
g58
NtRp2338
(dp2339
g61
(dp2340
g88
g89
ssg70
g2329
sg63
(lp2341
S':'
asbag56
(g77
g58
NtRp2342
(dp2343
g61
(dp2344
sg70
g2329
sg63
(lp2345
g56
(g57
g58
NtRp2346
(dp2347
g61
(dp2348
g69
I3
ssg70
g2342
sg63
(lp2349
g905
asbasbasbag56
(g72
g58
NtRp2350
(dp2351
g61
(dp2352
sg70
g2241
sg63
(lp2353
g56
(g77
g58
NtRp2354
(dp2355
g61
(dp2356
g81
g82
ssg70
g2350
sg63
(lp2357
S'HTTP_CONNECTION'
p2358
asbag56
(g77
g58
NtRp2359
(dp2360
g61
(dp2361
g88
g89
ssg70
g2350
sg63
(lp2362
S':'
asbag56
(g77
g58
NtRp2363
(dp2364
g61
(dp2365
sg70
g2350
sg63
(lp2366
g56
(g57
g58
NtRp2367
(dp2368
g61
(dp2369
g69
I3
ssg70
g2363
sg63
(lp2370
g927
asbasbasbag56
(g72
g58
NtRp2371
(dp2372
g61
(dp2373
sg70
g2241
sg63
(lp2374
g56
(g77
g58
NtRp2375
(dp2376
g61
(dp2377
g81
g82
ssg70
g2371
sg63
(lp2378
S'HTTP_COOKIE'
p2379
asbag56
(g77
g58
NtRp2380
(dp2381
g61
(dp2382
g88
g89
ssg70
g2371
sg63
(lp2383
S':'
asbag56
(g77
g58
NtRp2384
(dp2385
g61
(dp2386
sg70
g2371
sg63
(lp2387
g56
(g57
g58
NtRp2388
(dp2389
g61
(dp2390
g69
I3
ssg70
g2384
sg63
(lp2391
g949
asbasbasbag56
(g72
g58
NtRp2392
(dp2393
g61
(dp2394
sg70
g2241
sg63
(lp2395
g56
(g77
g58
NtRp2396
(dp2397
g61
(dp2398
g81
g82
ssg70
g2392
sg63
(lp2399
S'HTTP_HOST'
p2400
asbag56
(g77
g58
NtRp2401
(dp2402
g61
(dp2403
g88
g89
ssg70
g2392
sg63
(lp2404
S':'
asbag56
(g77
g58
NtRp2405
(dp2406
g61
(dp2407
sg70
g2392
sg63
(lp2408
g56
(g57
g58
NtRp2409
(dp2410
g61
(dp2411
g69
I3
ssg70
g2405
sg63
(lp2412
g971
asbasbasbag56
(g72
g58
NtRp2413
(dp2414
g61
(dp2415
sg70
g2241
sg63
(lp2416
g56
(g77
g58
NtRp2417
(dp2418
g61
(dp2419
g81
g82
ssg70
g2413
sg63
(lp2420
S'HTTP_USER_AGENT'
p2421
asbag56
(g77
g58
NtRp2422
(dp2423
g61
(dp2424
g88
g89
ssg70
g2413
sg63
(lp2425
S':'
asbag56
(g77
g58
NtRp2426
(dp2427
g61
(dp2428
sg70
g2413
sg63
(lp2429
g56
(g57
g58
NtRp2430
(dp2431
g61
(dp2432
g69
I3
ssg70
g2426
sg63
(lp2433
g993
asbasbasbag56
(g72
g58
NtRp2434
(dp2435
g61
(dp2436
sg70
g2241
sg63
(lp2437
g56
(g77
g58
NtRp2438
(dp2439
g61
(dp2440
g81
g82
ssg70
g2434
sg63
(lp2441
S'PATH_INFO'
p2442
asbag56
(g77
g58
NtRp2443
(dp2444
g61
(dp2445
g88
g89
ssg70
g2434
sg63
(lp2446
S':'
asbag56
(g77
g58
NtRp2447
(dp2448
g61
(dp2449
sg70
g2434
sg63
(lp2450
g56
(g57
g58
NtRp2451
(dp2452
g61
(dp2453
g69
I3
ssg70
g2447
sg63
(lp2454
S'/'
asbasbasbag56
(g72
g58
NtRp2455
(dp2456
g61
(dp2457
sg70
g2241
sg63
(lp2458
g56
(g77
g58
NtRp2459
(dp2460
g61
(dp2461
g81
g82
ssg70
g2455
sg63
(lp2462
S'QUERY_STRING'
p2463
asbag56
(g77
g58
NtRp2464
(dp2465
g61
(dp2466
g88
g89
ssg70
g2455
sg63
(lp2467
S':'
asbag56
(g77
g58
NtRp2468
(dp2469
g61
(dp2470
sg70
g2455
sg63
(lp2471
g56
(g57
g58
NtRp2472
(dp2473
g61
(dp2474
g69
I3
ssg70
g2468
sg63
(lp2475
S''
asbasbasbag56
(g72
g58
NtRp2476
(dp2477
g61
(dp2478
sg70
g2241
sg63
(lp2479
g56
(g77
g58
NtRp2480
(dp2481
g61
(dp2482
g81
g82
ssg70
g2476
sg63
(lp2483
S'REMOTE_ADDR'
p2484
asbag56
(g77
g58
NtRp2485
(dp2486
g61
(dp2487
g88
g89
ssg70
g2476
sg63
(lp2488
S':'
asbag56
(g77
g58
NtRp2489
(dp2490
g61
(dp2491
sg70
g2476
sg63
(lp2492
g56
(g57
g58
NtRp2493
(dp2494
g61
(dp2495
g69
I3
ssg70
g2489
sg63
(lp2496
g189
asbasbasbag56
(g72
g58
NtRp2497
(dp2498
g61
(dp2499
sg70
g2241
sg63
(lp2500
g56
(g77
g58
NtRp2501
(dp2502
g61
(dp2503
g81
g82
ssg70
g2497
sg63
(lp2504
S'REMOTE_PORT'
p2505
asbag56
(g77
g58
NtRp2506
(dp2507
g61
(dp2508
g88
g89
ssg70
g2497
sg63
(lp2509
S':'
asbag56
(g77
g58
NtRp2510
(dp2511
g61
(dp2512
sg70
g2497
sg63
(lp2513
g56
(g57
g58
NtRp2514
(dp2515
g61
(dp2516
g69
I3
ssg70
g2510
sg63
(lp2517
g1099
asbasbasbag56
(g72
g58
NtRp2518
(dp2519
g61
(dp2520
sg70
g2241
sg63
(lp2521
g56
(g77
g58
NtRp2522
(dp2523
g61
(dp2524
g81
g82
ssg70
g2518
sg63
(lp2525
S'REQUEST_METHOD'
p2526
asbag56
(g77
g58
NtRp2527
(dp2528
g61
(dp2529
g88
g89
ssg70
g2518
sg63
(lp2530
S':'
asbag56
(g77
g58
NtRp2531
(dp2532
g61
(dp2533
sg70
g2518
sg63
(lp2534
g56
(g57
g58
NtRp2535
(dp2536
g61
(dp2537
g69
I3
ssg70
g2531
sg63
(lp2538
g1121
asbasbasbag56
(g72
g58
NtRp2539
(dp2540
g61
(dp2541
sg70
g2241
sg63
(lp2542
g56
(g77
g58
NtRp2543
(dp2544
g61
(dp2545
g81
g82
ssg70
g2539
sg63
(lp2546
S'REQUEST_URI'
p2547
asbag56
(g77
g58
NtRp2548
(dp2549
g61
(dp2550
g88
g89
ssg70
g2539
sg63
(lp2551
S':'
asbag56
(g77
g58
NtRp2552
(dp2553
g61
(dp2554
sg70
g2539
sg63
(lp2555
g56
(g57
g58
NtRp2556
(dp2557
g61
(dp2558
g69
I3
ssg70
g2552
sg63
(lp2559
g1143
asbasbasbag56
(g72
g58
NtRp2560
(dp2561
g61
(dp2562
sg70
g2241
sg63
(lp2563
g56
(g77
g58
NtRp2564
(dp2565
g61
(dp2566
g81
g82
ssg70
g2560
sg63
(lp2567
S'SCRIPT_NAME'
p2568
asbag56
(g77
g58
NtRp2569
(dp2570
g61
(dp2571
g88
g89
ssg70
g2560
sg63
(lp2572
S':'
asbag56
(g77
g58
NtRp2573
(dp2574
g61
(dp2575
sg70
g2560
sg63
(lp2576
g56
(g57
g58
NtRp2577
(dp2578
g61
(dp2579
g69
I3
ssg70
g2573
sg63
(lp2580
S''
asbasbasbag56
(g72
g58
NtRp2581
(dp2582
g61
(dp2583
sg70
g2241
sg63
(lp2584
g56
(g77
g58
NtRp2585
(dp2586
g61
(dp2587
g81
g82
ssg70
g2581
sg63
(lp2588
S'SERVER_NAME'
p2589
asbag56
(g77
g58
NtRp2590
(dp2591
g61
(dp2592
g88
g89
ssg70
g2581
sg63
(lp2593
S':'
asbag56
(g77
g58
NtRp2594
(dp2595
g61
(dp2596
sg70
g2581
sg63
(lp2597
g56
(g57
g58
NtRp2598
(dp2599
g61
(dp2600
g69
I3
ssg70
g2594
sg63
(lp2601
g1186
asbasbasbag56
(g72
g58
NtRp2602
(dp2603
g61
(dp2604
sg70
g2241
sg63
(lp2605
g56
(g77
g58
NtRp2606
(dp2607
g61
(dp2608
g81
g82
ssg70
g2602
sg63
(lp2609
S'SERVER_PORT'
p2610
asbag56
(g77
g58
NtRp2611
(dp2612
g61
(dp2613
g88
g89
ssg70
g2602
sg63
(lp2614
S':'
asbag56
(g77
g58
NtRp2615
(dp2616
g61
(dp2617
sg70
g2602
sg63
(lp2618
g56
(g57
g58
NtRp2619
(dp2620
g61
(dp2621
g69
I3
ssg70
g2615
sg63
(lp2622
g1208
asbasbasbag56
(g72
g58
NtRp2623
(dp2624
g61
(dp2625
sg70
g2241
sg63
(lp2626
g56
(g77
g58
NtRp2627
(dp2628
g61
(dp2629
g81
g82
ssg70
g2623
sg63
(lp2630
S'SERVER_PROTOCOL'
p2631
asbag56
(g77
g58
NtRp2632
(dp2633
g61
(dp2634
g88
g89
ssg70
g2623
sg63
(lp2635
S':'
asbag56
(g77
g58
NtRp2636
(dp2637
g61
(dp2638
sg70
g2623
sg63
(lp2639
g56
(g57
g58
NtRp2640
(dp2641
g61
(dp2642
g69
I3
ssg70
g2636
sg63
(lp2643
g1230
asbasbasbag56
(g72
g58
NtRp2644
(dp2645
g61
(dp2646
sg70
g2241
sg63
(lp2647
g56
(g77
g58
NtRp2648
(dp2649
g61
(dp2650
g81
g82
ssg70
g2644
sg63
(lp2651
S'SERVER_SOFTWARE'
p2652
asbag56
(g77
g58
NtRp2653
(dp2654
g61
(dp2655
g88
g89
ssg70
g2644
sg63
(lp2656
S':'
asbag56
(g77
g58
NtRp2657
(dp2658
g61
(dp2659
sg70
g2644
sg63
(lp2660
g56
(g57
g58
NtRp2661
(dp2662
g61
(dp2663
g69
I3
ssg70
g2657
sg63
(lp2664
g1252
asbasbasbag56
(g72
g58
NtRp2665
(dp2666
g61
(dp2667
sg70
g2241
sg63
(lp2668
g56
(g77
g58
NtRp2669
(dp2670
g61
(dp2671
g81
g82
ssg70
g2665
sg63
(lp2672
S'WEB2PY_ORIGINAL_URI'
p2673
asbag56
(g77
g58
NtRp2674
(dp2675
g61
(dp2676
g88
g89
ssg70
g2665
sg63
(lp2677
S':'
asbag56
(g77
g58
NtRp2678
(dp2679
g61
(dp2680
sg70
g2665
sg63
(lp2681
g56
(g57
g58
NtRp2682
(dp2683
g61
(dp2684
g69
I3
ssg70
g2678
sg63
(lp2685
S'/'
asbasbasbag56
(g72
g58
NtRp2686
(dp2687
g61
(dp2688
sg70
g2241
sg63
(lp2689
g56
(g77
g58
NtRp2690
(dp2691
g61
(dp2692
g81
g82
ssg70
g2686
sg63
(lp2693
S'wsgi.errors'
p2694
asbag56
(g77
g58
NtRp2695
(dp2696
g61
(dp2697
g88
g89
ssg70
g2686
sg63
(lp2698
S':'
asbag56
(g77
g58
NtRp2699
(dp2700
g61
(dp2701
sg70
g2686
sg63
(lp2702
g56
(g57
g58
NtRp2703
(dp2704
g61
(dp2705
g69
I3
ssg70
g2699
sg63
(lp2706
S"<open file '<stderr>', mode 'w' at 0x100416140>"
p2707
asbasbasbag56
(g72
g58
NtRp2708
(dp2709
g61
(dp2710
sg70
g2241
sg63
(lp2711
g56
(g77
g58
NtRp2712
(dp2713
g61
(dp2714
g81
g82
ssg70
g2708
sg63
(lp2715
S'wsgi.file_wrapper'
p2716
asbag56
(g77
g58
NtRp2717
(dp2718
g61
(dp2719
g88
g89
ssg70
g2708
sg63
(lp2720
S':'
asbag56
(g77
g58
NtRp2721
(dp2722
g61
(dp2723
sg70
g2708
sg63
(lp2724
g56
(g57
g58
NtRp2725
(dp2726
g61
(dp2727
g69
I3
ssg70
g2721
sg63
(lp2728
S'<class wsgiref.util.FileWrapper at 0x1014a2bf0>'
p2729
asbasbasbag56
(g72
g58
NtRp2730
(dp2731
g61
(dp2732
sg70
g2241
sg63
(lp2733
g56
(g77
g58
NtRp2734
(dp2735
g61
(dp2736
g81
g82
ssg70
g2730
sg63
(lp2737
S'wsgi.input'
p2738
asbag56
(g77
g58
NtRp2739
(dp2740
g61
(dp2741
g88
g89
ssg70
g2730
sg63
(lp2742
S':'
asbag56
(g77
g58
NtRp2743
(dp2744
g61
(dp2745
sg70
g2730
sg63
(lp2746
g56
(g57
g58
NtRp2747
(dp2748
g61
(dp2749
g69
I3
ssg70
g2743
sg63
(lp2750
S'<cStringIO.StringO object at 0x1013d31b8>'
p2751
asbasbasbag56
(g72
g58
NtRp2752
(dp2753
g61
(dp2754
sg70
g2241
sg63
(lp2755
g56
(g77
g58
NtRp2756
(dp2757
g61
(dp2758
g81
g82
ssg70
g2752
sg63
(lp2759
S'wsgi.multiprocess'
p2760
asbag56
(g77
g58
NtRp2761
(dp2762
g61
(dp2763
g88
g89
ssg70
g2752
sg63
(lp2764
S':'
asbag56
(g77
g58
NtRp2765
(dp2766
g61
(dp2767
sg70
g2752
sg63
(lp2768
g56
(g57
g58
NtRp2769
(dp2770
g61
(dp2771
g69
I3
ssg70
g2765
sg63
(lp2772
g99
asbasbasbag56
(g72
g58
NtRp2773
(dp2774
g61
(dp2775
sg70
g2241
sg63
(lp2776
g56
(g77
g58
NtRp2777
(dp2778
g61
(dp2779
g81
g82
ssg70
g2773
sg63
(lp2780
S'wsgi.multithread'
p2781
asbag56
(g77
g58
NtRp2782
(dp2783
g61
(dp2784
g88
g89
ssg70
g2773
sg63
(lp2785
S':'
asbag56
(g77
g58
NtRp2786
(dp2787
g61
(dp2788
sg70
g2773
sg63
(lp2789
g56
(g57
g58
NtRp2790
(dp2791
g61
(dp2792
g69
I3
ssg70
g2786
sg63
(lp2793
g1513
asbasbasbag56
(g72
g58
NtRp2794
(dp2795
g61
(dp2796
sg70
g2241
sg63
(lp2797
g56
(g77
g58
NtRp2798
(dp2799
g61
(dp2800
g81
g82
ssg70
g2794
sg63
(lp2801
S'wsgi.run_once'
p2802
asbag56
(g77
g58
NtRp2803
(dp2804
g61
(dp2805
g88
g89
ssg70
g2794
sg63
(lp2806
S':'
asbag56
(g77
g58
NtRp2807
(dp2808
g61
(dp2809
sg70
g2794
sg63
(lp2810
g56
(g57
g58
NtRp2811
(dp2812
g61
(dp2813
g69
I3
ssg70
g2807
sg63
(lp2814
g99
asbasbasbag56
(g72
g58
NtRp2815
(dp2816
g61
(dp2817
sg70
g2241
sg63
(lp2818
g56
(g77
g58
NtRp2819
(dp2820
g61
(dp2821
g81
g82
ssg70
g2815
sg63
(lp2822
S'wsgi.url_scheme'
p2823
asbag56
(g77
g58
NtRp2824
(dp2825
g61
(dp2826
g88
g89
ssg70
g2815
sg63
(lp2827
S':'
asbag56
(g77
g58
NtRp2828
(dp2829
g61
(dp2830
sg70
g2815
sg63
(lp2831
g56
(g57
g58
NtRp2832
(dp2833
g61
(dp2834
g69
I3
ssg70
g2828
sg63
(lp2835
g1556
asbasbasbag56
(g72
g58
NtRp2836
(dp2837
g61
(dp2838
sg70
g2241
sg63
(lp2839
g56
(g77
g58
NtRp2840
(dp2841
g61
(dp2842
g81
g82
ssg70
g2836
sg63
(lp2843
S'wsgi.version'
p2844
asbag56
(g77
g58
NtRp2845
(dp2846
g61
(dp2847
g88
g89
ssg70
g2836
sg63
(lp2848
S':'
asbag56
(g77
g58
NtRp2849
(dp2850
g61
(dp2851
sg70
g2836
sg63
(lp2852
g56
(g57
g58
NtRp2853
(dp2854
g61
(dp2855
g69
I3
ssg70
g2849
sg63
(lp2856
S'1'
asbasbasbasbasbasbasbasbasbasbasbasbasbsS'frames'
p2857
(lp2858
(dp2859
S'file'
p2860
S'/Users/excon/Sites/dreamscape/gluon/restricted.py'
p2861
sS'dump'
p2862
(dp2863
S'environment'
p2864
S"{'A': <class 'gluon.html.A'>, 'Auth': <class 'gluon.tools.Auth'>, 'B': <class 'gluon.html.B'>, 'BEAUTIFY': <class 'gluon.html.BEAUTIFY'>, 'BODY': <class 'gluon.html.BODY'>, 'BR': <class 'gluon.html.BR'>, 'BUTTON': <class 'gluon.html.BUTTON'>, 'CAT': <class 'gluon.html.CAT'>, 'CENTER': <class 'gluon.html.CENTER'>, 'CLEANUP': <class 'gluon.validators.CLEANUP'>, ...}"
p2865
sS'ccode'
p2866
S'<code object <module> at 0x1016207b0, file "/Use...ations/welcome/views/default/index.html", line 1>'
p2867
ssS'lnum'
p2868
I194
sS'lines'
p2869
(dp2870
I192
S'        else:'
p2871
sI193
S'            ccode = compile2(code,layer)'
p2872
sI194
S'        exec ccode in environment'
p2873
sI195
S'    except HTTP:'
p2874
sI196
S'        raise'
p2875
sI197
S'    except Exception, error:'
p2876
sI198
S'        # XXX Show exception in Wing IDE if running in debugger'
p2877
sI189
S'    try:'
p2878
sI190
S'        if type(code) == types.CodeType:'
p2879
sI191
S'            ccode = code'
p2880
ssS'call'
p2881
S'(code=\'response.write(\\\'<!DOCTYPE html>\\\\n<html lang="\\\', ...nse.write(\\\'\\\\n  </body>\\\\n</html>\\\\n\\\', escape=False)\', environment={\'A\': <class \'gluon.html.A\'>, \'Auth\': <class \'gluon.tools.Auth\'>, \'B\': <class \'gluon.html.B\'>, \'BEAUTIFY\': <class \'gluon.html.BEAUTIFY\'>, \'BODY\': <class \'gluon.html.BODY\'>, \'BR\': <class \'gluon.html.BR\'>, \'BUTTON\': <class \'gluon.html.BUTTON\'>, \'CAT\': <class \'gluon.html.CAT\'>, \'CENTER\': <class \'gluon.html.CENTER\'>, \'CLEANUP\': <class \'gluon.validators.CLEANUP\'>, ...}, layer=\'/Users/excon/Sites/dreamscape/applications/welcome/views/default/index.html\')'
p2882
sS'func'
p2883
S'restricted'
p2884
sa(dp2885
g2860
S'/Users/excon/Sites/dreamscape/applications/welcome/views/default/index.html'
p2886
sg2862
(dp2887
sg2868
I82
sg2869
(dp2888
I73
S'    response.write(XML(left_sidebar_style))'
p2889
sI74
S'    response.write(\' >\\n            <div style="padding: 4px;">\\n          \', escape=False)'
p2890
sI75
S"    response.write('Content Left Sidebar', escape=False)"
p2891
sI76
S"    response.write('       \\n            </div>\\n          </div><!-- left_sidebar -->\\n      ', escape=False)"
p2892
sI77
S'    pass'
p2893
sI78
S'response.write(\'\\n\\n      <!-- content -->\\n      <div id="content" \', escape=False)'
p2894
sI79
S'response.write(XML(style_content))'
p2895
sI80
S"response.write(' >\\n        ', escape=False)"
p2896
sI81
S"response.write('\\n', escape=False)"
p2897
sI82
S'for char in chars:'
p2898
sI83
S"    response.write('\\n', escape=False)"
p2899
sI84
S'    response.write(P("a" + char))'
p2900
sI85
S"    response.write('\\n', escape=False)"
p2901
sI86
S'    pass'
p2902
sI87
S"response.write('\\n<h1>Dreamscape</h1>\\n<p>Share your dreams with other dreamers to turn passions to realities.</p>\\n<p>We are really intent on everyone achieving their dreams.</p>\\n', escape=False)"
p2903
sI88
S'pass'
p2904
sI89
S"response.write('\\n      </div>\\n      <!-- content -->\\n\\n      ', escape=False)"
p2905
sI90
S'if right_sidebar_enabled:'
p2906
sI91
S'    response.write(\'\\n          <div id="right_sidebar" \', escape=False)'
p2907
sI92
S'    response.write(XML(right_sidebar_style))'
p2908
ssg2881
S'()'
p2909
sg2883
S'<module>'
p2910
sasS'pyver'
p2911
S'Python 2.6.1: /usr/bin/python'
p2912
sS'session'
p2913
g56
(g57
g58
NtRp2914
(dp2915
g61
(dp2916
sg63
(lp2917
g56
(g65
g58
NtRp2918
(dp2919
g61
(dp2920
g69
I5
ssg70
Nsg63
(lp2921
sbasbsS'etype'
p2922
S"<type 'exceptions.NameError'>"
p2923
sS'date'
p2924
S'Thu Sep 29 13:21:19 2011'
p2925
sS'response'
p2926
g56
(g57
g58
NtRp2927
(dp2928
g61
(dp2929
sg63
(lp2930
g56
(g65
g58
NtRp2931
(dp2932
g61
(dp2933
g69
I5
ssg70
Nsg63
(lp2934
g56
(g72
g58
NtRp2935
(dp2936
g61
(dp2937
sg70
g2931
sg63
(lp2938
g56
(g77
g58
NtRp2939
(dp2940
g61
(dp2941
g81
g82
ssg70
g2935
sg63
(lp2942
g154
asbag56
(g77
g58
NtRp2943
(dp2944
g61
(dp2945
g88
g89
ssg70
g2935
sg63
(lp2946
S':'
asbag56
(g77
g58
NtRp2947
(dp2948
g61
(dp2949
sg70
g2935
sg63
(lp2950
g56
(g57
g58
NtRp2951
(dp2952
g61
(dp2953
g69
I5
ssg70
g2947
sg63
(lp2954
S'<cStringIO.StringO object at 0x115f6e180>'
p2955
asbasbasbag56
(g72
g58
NtRp2956
(dp2957
g61
(dp2958
sg70
g2931
sg63
(lp2959
g56
(g77
g58
NtRp2960
(dp2961
g61
(dp2962
g81
g82
ssg70
g2956
sg63
(lp2963
g220
asbag56
(g77
g58
NtRp2964
(dp2965
g61
(dp2966
g88
g89
ssg70
g2956
sg63
(lp2967
S':'
asbag56
(g77
g58
NtRp2968
(dp2969
g61
(dp2970
sg70
g2956
sg63
(lp2971
g56
(g57
g58
NtRp2972
(dp2973
g61
(dp2974
g69
I5
ssg70
g2968
sg63
(lp2975
g56
(g65
g58
NtRp2976
(dp2977
g61
(dp2978
g69
I4
ssg70
Nsg63
(lp2979
g56
(g72
g58
NtRp2980
(dp2981
g61
(dp2982
sg70
g2976
sg63
(lp2983
g56
(g77
g58
NtRp2984
(dp2985
g61
(dp2986
g81
g82
ssg70
g2980
sg63
(lp2987
S'session_id_welcome'
p2988
asbag56
(g77
g58
NtRp2989
(dp2990
g61
(dp2991
g88
g89
ssg70
g2980
sg63
(lp2992
S':'
asbag56
(g77
g58
NtRp2993
(dp2994
g61
(dp2995
sg70
g2980
sg63
(lp2996
g56
(g57
g58
NtRp2997
(dp2998
g61
(dp2999
g69
I4
ssg70
g2993
sg63
(lp3000
g56
(g65
g58
NtRp3001
(dp3002
g61
(dp3003
g69
I3
ssg70
Nsg63
(lp3004
g56
(g72
g58
NtRp3005
(dp3006
g61
(dp3007
sg70
g3001
sg63
(lp3008
g56
(g77
g58
NtRp3009
(dp3010
g61
(dp3011
g81
g82
ssg70
g3005
sg63
(lp3012
g270
asbag56
(g77
g58
NtRp3013
(dp3014
g61
(dp3015
g88
g89
ssg70
g3005
sg63
(lp3016
S':'
asbag56
(g77
g58
NtRp3017
(dp3018
g61
(dp3019
sg70
g3005
sg63
(lp3020
g56
(g57
g58
NtRp3021
(dp3022
g61
(dp3023
g69
I3
ssg70
g3017
sg63
(lp3024
S''
asbasbasbag56
(g72
g58
NtRp3025
(dp3026
g61
(dp3027
sg70
g3001
sg63
(lp3028
g56
(g77
g58
NtRp3029
(dp3030
g61
(dp3031
g81
g82
ssg70
g3025
sg63
(lp3032
g291
asbag56
(g77
g58
NtRp3033
(dp3034
g61
(dp3035
g88
g89
ssg70
g3025
sg63
(lp3036
S':'
asbag56
(g77
g58
NtRp3037
(dp3038
g61
(dp3039
sg70
g3025
sg63
(lp3040
g56
(g57
g58
NtRp3041
(dp3042
g61
(dp3043
g69
I3
ssg70
g3037
sg63
(lp3044
S''
asbasbasbag56
(g72
g58
NtRp3045
(dp3046
g61
(dp3047
sg70
g3001
sg63
(lp3048
g56
(g77
g58
NtRp3049
(dp3050
g61
(dp3051
g81
g82
ssg70
g3045
sg63
(lp3052
g312
asbag56
(g77
g58
NtRp3053
(dp3054
g61
(dp3055
g88
g89
ssg70
g3045
sg63
(lp3056
S':'
asbag56
(g77
g58
NtRp3057
(dp3058
g61
(dp3059
sg70
g3045
sg63
(lp3060
g56
(g57
g58
NtRp3061
(dp3062
g61
(dp3063
g69
I3
ssg70
g3057
sg63
(lp3064
S''
asbasbasbag56
(g72
g58
NtRp3065
(dp3066
g61
(dp3067
sg70
g3001
sg63
(lp3068
g56
(g77
g58
NtRp3069
(dp3070
g61
(dp3071
g81
g82
ssg70
g3065
sg63
(lp3072
g333
asbag56
(g77
g58
NtRp3073
(dp3074
g61
(dp3075
g88
g89
ssg70
g3065
sg63
(lp3076
S':'
asbag56
(g77
g58
NtRp3077
(dp3078
g61
(dp3079
sg70
g3065
sg63
(lp3080
g56
(g57
g58
NtRp3081
(dp3082
g61
(dp3083
g69
I3
ssg70
g3077
sg63
(lp3084
S''
asbasbasbag56
(g72
g58
NtRp3085
(dp3086
g61
(dp3087
sg70
g3001
sg63
(lp3088
g56
(g77
g58
NtRp3089
(dp3090
g61
(dp3091
g81
g82
ssg70
g3085
sg63
(lp3092
g354
asbag56
(g77
g58
NtRp3093
(dp3094
g61
(dp3095
g88
g89
ssg70
g3085
sg63
(lp3096
S':'
asbag56
(g77
g58
NtRp3097
(dp3098
g61
(dp3099
sg70
g3085
sg63
(lp3100
g56
(g57
g58
NtRp3101
(dp3102
g61
(dp3103
g69
I3
ssg70
g3097
sg63
(lp3104
S''
asbasbasbag56
(g72
g58
NtRp3105
(dp3106
g61
(dp3107
sg70
g3001
sg63
(lp3108
g56
(g77
g58
NtRp3109
(dp3110
g61
(dp3111
g81
g82
ssg70
g3105
sg63
(lp3112
g375
asbag56
(g77
g58
NtRp3113
(dp3114
g61
(dp3115
g88
g89
ssg70
g3105
sg63
(lp3116
S':'
asbag56
(g77
g58
NtRp3117
(dp3118
g61
(dp3119
sg70
g3105
sg63
(lp3120
g56
(g57
g58
NtRp3121
(dp3122
g61
(dp3123
g69
I3
ssg70
g3117
sg63
(lp3124
S'/'
asbasbasbag56
(g72
g58
NtRp3125
(dp3126
g61
(dp3127
sg70
g3001
sg63
(lp3128
g56
(g77
g58
NtRp3129
(dp3130
g61
(dp3131
g81
g82
ssg70
g3125
sg63
(lp3132
g396
asbag56
(g77
g58
NtRp3133
(dp3134
g61
(dp3135
g88
g89
ssg70
g3125
sg63
(lp3136
S':'
asbag56
(g77
g58
NtRp3137
(dp3138
g61
(dp3139
sg70
g3125
sg63
(lp3140
g56
(g57
g58
NtRp3141
(dp3142
g61
(dp3143
g69
I3
ssg70
g3137
sg63
(lp3144
S''
asbasbasbag56
(g72
g58
NtRp3145
(dp3146
g61
(dp3147
sg70
g3001
sg63
(lp3148
g56
(g77
g58
NtRp3149
(dp3150
g61
(dp3151
g81
g82
ssg70
g3145
sg63
(lp3152
g417
asbag56
(g77
g58
NtRp3153
(dp3154
g61
(dp3155
g88
g89
ssg70
g3145
sg63
(lp3156
S':'
asbag56
(g77
g58
NtRp3157
(dp3158
g61
(dp3159
sg70
g3145
sg63
(lp3160
g56
(g57
g58
NtRp3161
(dp3162
g61
(dp3163
g69
I3
ssg70
g3157
sg63
(lp3164
S''
asbasbasbasbasbasbasbasbasbasbasbag56
(g72
g58
NtRp3165
(dp3166
g61
(dp3167
sg70
g2931
sg63
(lp3168
g56
(g77
g58
NtRp3169
(dp3170
g61
(dp3171
g81
g82
ssg70
g3165
sg63
(lp3172
S'files'
p3173
asbag56
(g77
g58
NtRp3174
(dp3175
g61
(dp3176
g88
g89
ssg70
g3165
sg63
(lp3177
S':'
asbag56
(g77
g58
NtRp3178
(dp3179
g61
(dp3180
sg70
g3165
sg63
(lp3181
g56
(g57
g58
NtRp3182
(dp3183
g61
(dp3184
g69
I5
ssg70
g3178
sg63
(lp3185
g56
(g65
g58
NtRp3186
(dp3187
g61
(dp3188
g69
I4
ssg70
Nsg63
(lp3189
g56
(g72
g58
NtRp3190
(dp3191
g61
(dp3192
sg70
g3186
sg63
(lp3193
g56
(g77
g58
NtRp3194
(dp3195
g61
(dp3196
sg70
g3190
sg63
(lp3197
g56
(g57
g58
NtRp3198
(dp3199
g61
(dp3200
g69
I4
ssg70
g3194
sg63
(lp3201
S'/welcome/static/js/jquery.js'
p3202
asbasbasbag56
(g72
g58
NtRp3203
(dp3204
g61
(dp3205
sg70
g3186
sg63
(lp3206
g56
(g77
g58
NtRp3207
(dp3208
g61
(dp3209
sg70
g3203
sg63
(lp3210
g56
(g57
g58
NtRp3211
(dp3212
g61
(dp3213
g69
I4
ssg70
g3207
sg63
(lp3214
S'/welcome/static/css/anytime.css'
p3215
asbasbasbag56
(g72
g58
NtRp3216
(dp3217
g61
(dp3218
sg70
g3186
sg63
(lp3219
g56
(g77
g58
NtRp3220
(dp3221
g61
(dp3222
sg70
g3216
sg63
(lp3223
g56
(g57
g58
NtRp3224
(dp3225
g61
(dp3226
g69
I4
ssg70
g3220
sg63
(lp3227
S'/welcome/static/js/anytime.js'
p3228
asbasbasbag56
(g72
g58
NtRp3229
(dp3230
g61
(dp3231
sg70
g3186
sg63
(lp3232
g56
(g77
g58
NtRp3233
(dp3234
g61
(dp3235
sg70
g3229
sg63
(lp3236
g56
(g57
g58
NtRp3237
(dp3238
g61
(dp3239
g69
I4
ssg70
g3233
sg63
(lp3240
S'/welcome/static/css/base.css'
p3241
asbasbasbag56
(g72
g58
NtRp3242
(dp3243
g61
(dp3244
sg70
g3186
sg63
(lp3245
g56
(g77
g58
NtRp3246
(dp3247
g61
(dp3248
sg70
g3242
sg63
(lp3249
g56
(g57
g58
NtRp3250
(dp3251
g61
(dp3252
g69
I4
ssg70
g3246
sg63
(lp3253
S'/welcome/static/css/superfish.css'
p3254
asbasbasbag56
(g72
g58
NtRp3255
(dp3256
g61
(dp3257
sg70
g3186
sg63
(lp3258
g56
(g77
g58
NtRp3259
(dp3260
g61
(dp3261
sg70
g3255
sg63
(lp3262
g56
(g57
g58
NtRp3263
(dp3264
g61
(dp3265
g69
I4
ssg70
g3259
sg63
(lp3266
S'/welcome/static/js/superfish.js'
p3267
asbasbasbasbasbasbasbag56
(g72
g58
NtRp3268
(dp3269
g61
(dp3270
sg70
g2931
sg63
(lp3271
g56
(g77
g58
NtRp3272
(dp3273
g61
(dp3274
g81
g82
ssg70
g3268
sg63
(lp3275
S'flash'
p3276
asbag56
(g77
g58
NtRp3277
(dp3278
g61
(dp3279
g88
g89
ssg70
g3268
sg63
(lp3280
S':'
asbag56
(g77
g58
NtRp3281
(dp3282
g61
(dp3283
sg70
g3268
sg63
(lp3284
g56
(g57
g58
NtRp3285
(dp3286
g61
(dp3287
g69
I5
ssg70
g3281
sg63
(lp3288
S''
asbasbasbag56
(g72
g58
NtRp3289
(dp3290
g61
(dp3291
sg70
g2931
sg63
(lp3292
g56
(g77
g58
NtRp3293
(dp3294
g61
(dp3295
g81
g82
ssg70
g3289
sg63
(lp3296
S'generic_patterns'
p3297
asbag56
(g77
g58
NtRp3298
(dp3299
g61
(dp3300
g88
g89
ssg70
g3289
sg63
(lp3301
S':'
asbag56
(g77
g58
NtRp3302
(dp3303
g61
(dp3304
sg70
g3289
sg63
(lp3305
g56
(g57
g58
NtRp3306
(dp3307
g61
(dp3308
g69
I5
ssg70
g3302
sg63
(lp3309
g56
(g65
g58
NtRp3310
(dp3311
g61
(dp3312
g69
I4
ssg70
Nsg63
(lp3313
g56
(g72
g58
NtRp3314
(dp3315
g61
(dp3316
sg70
g3310
sg63
(lp3317
g56
(g77
g58
NtRp3318
(dp3319
g61
(dp3320
sg70
g3314
sg63
(lp3321
g56
(g57
g58
NtRp3322
(dp3323
g61
(dp3324
g69
I4
ssg70
g3318
sg63
(lp3325
S'*'
asbasbasbasbasbasbasbag56
(g72
g58
NtRp3326
(dp3327
g61
(dp3328
sg70
g2931
sg63
(lp3329
g56
(g77
g58
NtRp3330
(dp3331
g61
(dp3332
g81
g82
ssg70
g3326
sg63
(lp3333
S'headers'
p3334
asbag56
(g77
g58
NtRp3335
(dp3336
g61
(dp3337
g88
g89
ssg70
g3326
sg63
(lp3338
S':'
asbag56
(g77
g58
NtRp3339
(dp3340
g61
(dp3341
sg70
g3326
sg63
(lp3342
g56
(g57
g58
NtRp3343
(dp3344
g61
(dp3345
g69
I5
ssg70
g3339
sg63
(lp3346
g56
(g65
g58
NtRp3347
(dp3348
g61
(dp3349
g69
I4
ssg70
Nsg63
(lp3350
g56
(g72
g58
NtRp3351
(dp3352
g61
(dp3353
sg70
g3347
sg63
(lp3354
g56
(g77
g58
NtRp3355
(dp3356
g61
(dp3357
g81
g82
ssg70
g3351
sg63
(lp3358
S'Cache-Control'
p3359
asbag56
(g77
g58
NtRp3360
(dp3361
g61
(dp3362
g88
g89
ssg70
g3351
sg63
(lp3363
S':'
asbag56
(g77
g58
NtRp3364
(dp3365
g61
(dp3366
sg70
g3351
sg63
(lp3367
g56
(g57
g58
NtRp3368
(dp3369
g61
(dp3370
g69
I4
ssg70
g3364
sg63
(lp3371
S'no-store, no-cache, must-revalidate, post-check=0, pre-check=0'
p3372
asbasbasbag56
(g72
g58
NtRp3373
(dp3374
g61
(dp3375
sg70
g3347
sg63
(lp3376
g56
(g77
g58
NtRp3377
(dp3378
g61
(dp3379
g81
g82
ssg70
g3373
sg63
(lp3380
S'Content-Type'
p3381
asbag56
(g77
g58
NtRp3382
(dp3383
g61
(dp3384
g88
g89
ssg70
g3373
sg63
(lp3385
S':'
asbag56
(g77
g58
NtRp3386
(dp3387
g61
(dp3388
sg70
g3373
sg63
(lp3389
g56
(g57
g58
NtRp3390
(dp3391
g61
(dp3392
g69
I4
ssg70
g3386
sg63
(lp3393
S'text/html; charset=utf-8'
p3394
asbasbasbag56
(g72
g58
NtRp3395
(dp3396
g61
(dp3397
sg70
g3347
sg63
(lp3398
g56
(g77
g58
NtRp3399
(dp3400
g61
(dp3401
g81
g82
ssg70
g3395
sg63
(lp3402
S'Expires'
p3403
asbag56
(g77
g58
NtRp3404
(dp3405
g61
(dp3406
g88
g89
ssg70
g3395
sg63
(lp3407
S':'
asbag56
(g77
g58
NtRp3408
(dp3409
g61
(dp3410
sg70
g3395
sg63
(lp3411
g56
(g57
g58
NtRp3412
(dp3413
g61
(dp3414
g69
I4
ssg70
g3408
sg63
(lp3415
S'Thu, 29 Sep 2011 20:21:19 GMT'
p3416
asbasbasbag56
(g72
g58
NtRp3417
(dp3418
g61
(dp3419
sg70
g3347
sg63
(lp3420
g56
(g77
g58
NtRp3421
(dp3422
g61
(dp3423
g81
g82
ssg70
g3417
sg63
(lp3424
S'Pragma'
p3425
asbag56
(g77
g58
NtRp3426
(dp3427
g61
(dp3428
g88
g89
ssg70
g3417
sg63
(lp3429
S':'
asbag56
(g77
g58
NtRp3430
(dp3431
g61
(dp3432
sg70
g3417
sg63
(lp3433
g56
(g57
g58
NtRp3434
(dp3435
g61
(dp3436
g69
I4
ssg70
g3430
sg63
(lp3437
S'no-cache'
p3438
asbasbasbag56
(g72
g58
NtRp3439
(dp3440
g61
(dp3441
sg70
g3347
sg63
(lp3442
g56
(g77
g58
NtRp3443
(dp3444
g61
(dp3445
g81
g82
ssg70
g3439
sg63
(lp3446
S'X-Powered-By'
p3447
asbag56
(g77
g58
NtRp3448
(dp3449
g61
(dp3450
g88
g89
ssg70
g3439
sg63
(lp3451
S':'
asbag56
(g77
g58
NtRp3452
(dp3453
g61
(dp3454
sg70
g3439
sg63
(lp3455
g56
(g57
g58
NtRp3456
(dp3457
g61
(dp3458
g69
I4
ssg70
g3452
sg63
(lp3459
S'web2py'
p3460
asbasbasbasbasbasbasbag56
(g72
g58
NtRp3461
(dp3462
g61
(dp3463
sg70
g2931
sg63
(lp3464
g56
(g77
g58
NtRp3465
(dp3466
g61
(dp3467
g81
g82
ssg70
g3461
sg63
(lp3468
S'menu'
p3469
asbag56
(g77
g58
NtRp3470
(dp3471
g61
(dp3472
g88
g89
ssg70
g3461
sg63
(lp3473
S':'
asbag56
(g77
g58
NtRp3474
(dp3475
g61
(dp3476
sg70
g3461
sg63
(lp3477
g56
(g57
g58
NtRp3478
(dp3479
g61
(dp3480
g69
I5
ssg70
g3474
sg63
(lp3481
g56
(g65
g58
NtRp3482
(dp3483
g61
(dp3484
g69
I4
ssg70
Nsg63
(lp3485
g56
(g72
g58
NtRp3486
(dp3487
g61
(dp3488
sg70
g3482
sg63
(lp3489
g56
(g77
g58
NtRp3490
(dp3491
g61
(dp3492
sg70
g3486
sg63
(lp3493
g56
(g57
g58
NtRp3494
(dp3495
g61
(dp3496
g69
I4
ssg70
g3490
sg63
(lp3497
g56
(g65
g58
NtRp3498
(dp3499
g61
(dp3500
g69
I3
ssg70
Nsg63
(lp3501
g56
(g72
g58
NtRp3502
(dp3503
g61
(dp3504
sg70
g3498
sg63
(lp3505
g56
(g77
g58
NtRp3506
(dp3507
g61
(dp3508
sg70
g3502
sg63
(lp3509
g56
(g57
g58
NtRp3510
(dp3511
g61
(dp3512
g69
I3
ssg70
g3506
sg63
(lp3513
cgluon.languages
lazyT_unpickle
p3514
(S's\x04\x00\x00\x00Home'
tRp3515
asbasbasbag56
(g72
g58
NtRp3516
(dp3517
g61
(dp3518
sg70
g3498
sg63
(lp3519
g56
(g77
g58
NtRp3520
(dp3521
g61
(dp3522
sg70
g3516
sg63
(lp3523
g56
(g57
g58
NtRp3524
(dp3525
g61
(dp3526
g69
I3
ssg70
g3520
sg63
(lp3527
g99
asbasbasbag56
(g72
g58
NtRp3528
(dp3529
g61
(dp3530
sg70
g3498
sg63
(lp3531
g56
(g77
g58
NtRp3532
(dp3533
g61
(dp3534
sg70
g3528
sg63
(lp3535
g56
(g57
g58
NtRp3536
(dp3537
g61
(dp3538
g69
I3
ssg70
g3532
sg63
(lp3539
S'/'
asbasbasbag56
(g72
g58
NtRp3540
(dp3541
g61
(dp3542
sg70
g3498
sg63
(lp3543
g56
(g77
g58
NtRp3544
(dp3545
g61
(dp3546
sg70
g3540
sg63
(lp3547
g56
(g57
g58
NtRp3548
(dp3549
g61
(dp3550
g69
I3
ssg70
g3544
sg63
(lp3551
g56
(g65
g58
NtRp3552
(dp3553
g61
(dp3554
g69
I2
ssg70
Nsg63
(lp3555
sbasbasbasbasbasbasbasbag56
(g72
g58
NtRp3556
(dp3557
g61
(dp3558
sg70
g3482
sg63
(lp3559
g56
(g77
g58
NtRp3560
(dp3561
g61
(dp3562
sg70
g3556
sg63
(lp3563
g56
(g57
g58
NtRp3564
(dp3565
g61
(dp3566
g69
I4
ssg70
g3560
sg63
(lp3567
g56
(g65
g58
NtRp3568
(dp3569
g61
(dp3570
g69
I3
ssg70
Nsg63
(lp3571
g56
(g72
g58
NtRp3572
(dp3573
g61
(dp3574
sg70
g3568
sg63
(lp3575
g56
(g77
g58
NtRp3576
(dp3577
g61
(dp3578
sg70
g3572
sg63
(lp3579
g56
(g57
g58
NtRp3580
(dp3581
g61
(dp3582
g69
I3
ssg70
g3576
sg63
(lp3583
g3514
(S's\x08\x00\x00\x00This App'
tRp3584
asbasbasbag56
(g72
g58
NtRp3585
(dp3586
g61
(dp3587
sg70
g3568
sg63
(lp3588
g56
(g77
g58
NtRp3589
(dp3590
g61
(dp3591
sg70
g3585
sg63
(lp3592
g56
(g57
g58
NtRp3593
(dp3594
g61
(dp3595
g69
I3
ssg70
g3589
sg63
(lp3596
g99
asbasbasbag56
(g72
g58
NtRp3597
(dp3598
g61
(dp3599
sg70
g3568
sg63
(lp3600
g56
(g77
g58
NtRp3601
(dp3602
g61
(dp3603
sg70
g3597
sg63
(lp3604
g56
(g57
g58
NtRp3605
(dp3606
g61
(dp3607
g69
I3
ssg70
g3601
sg63
(lp3608
S'/admin/design/welcome'
p3609
asbasbasbag56
(g72
g58
NtRp3610
(dp3611
g61
(dp3612
sg70
g3568
sg63
(lp3613
g56
(g77
g58
NtRp3614
(dp3615
g61
(dp3616
sg70
g3610
sg63
(lp3617
g56
(g57
g58
NtRp3618
(dp3619
g61
(dp3620
g69
I3
ssg70
g3614
sg63
(lp3621
g56
(g65
g58
NtRp3622
(dp3623
g61
(dp3624
g69
I2
ssg70
Nsg63
(lp3625
g56
(g72
g58
NtRp3626
(dp3627
g61
(dp3628
sg70
g3622
sg63
(lp3629
g56
(g77
g58
NtRp3630
(dp3631
g61
(dp3632
sg70
g3626
sg63
(lp3633
g56
(g57
g58
NtRp3634
(dp3635
g61
(dp3636
g69
I2
ssg70
g3630
sg63
(lp3637
g56
(g65
g58
NtRp3638
(dp3639
g61
(dp3640
g69
I1
ssg70
Nsg63
(lp3641
g56
(g72
g58
NtRp3642
(dp3643
g61
(dp3644
sg70
g3638
sg63
(lp3645
g56
(g77
g58
NtRp3646
(dp3647
g61
(dp3648
sg70
g3642
sg63
(lp3649
g56
(g57
g58
NtRp3650
(dp3651
g61
(dp3652
g69
I1
ssg70
g3646
sg63
(lp3653
g3514
(S's\n\x00\x00\x00Controller'
tRp3654
asbasbasbag56
(g72
g58
NtRp3655
(dp3656
g61
(dp3657
sg70
g3638
sg63
(lp3658
g56
(g77
g58
NtRp3659
(dp3660
g61
(dp3661
sg70
g3655
sg63
(lp3662
g56
(g57
g58
NtRp3663
(dp3664
g61
(dp3665
g69
I1
ssg70
g3659
sg63
(lp3666
I00
asbasbasbag56
(g72
g58
NtRp3667
(dp3668
g61
(dp3669
sg70
g3638
sg63
(lp3670
g56
(g77
g58
NtRp3671
(dp3672
g61
(dp3673
sg70
g3667
sg63
(lp3674
g56
(g57
g58
NtRp3675
(dp3676
g61
(dp3677
g69
I1
ssg70
g3671
sg63
(lp3678
S'/admin/edit/welcome/controllers/default.py'
p3679
asbasbasbasbasbasbasbag56
(g72
g58
NtRp3680
(dp3681
g61
(dp3682
sg70
g3622
sg63
(lp3683
g56
(g77
g58
NtRp3684
(dp3685
g61
(dp3686
sg70
g3680
sg63
(lp3687
g56
(g57
g58
NtRp3688
(dp3689
g61
(dp3690
g69
I2
ssg70
g3684
sg63
(lp3691
g56
(g65
g58
NtRp3692
(dp3693
g61
(dp3694
g69
I1
ssg70
Nsg63
(lp3695
g56
(g72
g58
NtRp3696
(dp3697
g61
(dp3698
sg70
g3692
sg63
(lp3699
g56
(g77
g58
NtRp3700
(dp3701
g61
(dp3702
sg70
g3696
sg63
(lp3703
g56
(g57
g58
NtRp3704
(dp3705
g61
(dp3706
g69
I1
ssg70
g3700
sg63
(lp3707
g3514
(S's\x04\x00\x00\x00View'
tRp3708
asbasbasbag56
(g72
g58
NtRp3709
(dp3710
g61
(dp3711
sg70
g3692
sg63
(lp3712
g56
(g77
g58
NtRp3713
(dp3714
g61
(dp3715
sg70
g3709
sg63
(lp3716
g56
(g57
g58
NtRp3717
(dp3718
g61
(dp3719
g69
I1
ssg70
g3713
sg63
(lp3720
I00
asbasbasbag56
(g72
g58
NtRp3721
(dp3722
g61
(dp3723
sg70
g3692
sg63
(lp3724
g56
(g77
g58
NtRp3725
(dp3726
g61
(dp3727
sg70
g3721
sg63
(lp3728
g56
(g57
g58
NtRp3729
(dp3730
g61
(dp3731
g69
I1
ssg70
g3725
sg63
(lp3732
S'/admin/edit/welcome/views/default/index.html'
p3733
asbasbasbasbasbasbasbag56
(g72
g58
NtRp3734
(dp3735
g61
(dp3736
sg70
g3622
sg63
(lp3737
g56
(g77
g58
NtRp3738
(dp3739
g61
(dp3740
sg70
g3734
sg63
(lp3741
g56
(g57
g58
NtRp3742
(dp3743
g61
(dp3744
g69
I2
ssg70
g3738
sg63
(lp3745
g56
(g65
g58
NtRp3746
(dp3747
g61
(dp3748
g69
I1
ssg70
Nsg63
(lp3749
g56
(g72
g58
NtRp3750
(dp3751
g61
(dp3752
sg70
g3746
sg63
(lp3753
g56
(g77
g58
NtRp3754
(dp3755
g61
(dp3756
sg70
g3750
sg63
(lp3757
g56
(g57
g58
NtRp3758
(dp3759
g61
(dp3760
g69
I1
ssg70
g3754
sg63
(lp3761
g3514
(S's\x06\x00\x00\x00Layout'
tRp3762
asbasbasbag56
(g72
g58
NtRp3763
(dp3764
g61
(dp3765
sg70
g3746
sg63
(lp3766
g56
(g77
g58
NtRp3767
(dp3768
g61
(dp3769
sg70
g3763
sg63
(lp3770
g56
(g57
g58
NtRp3771
(dp3772
g61
(dp3773
g69
I1
ssg70
g3767
sg63
(lp3774
I00
asbasbasbag56
(g72
g58
NtRp3775
(dp3776
g61
(dp3777
sg70
g3746
sg63
(lp3778
g56
(g77
g58
NtRp3779
(dp3780
g61
(dp3781
sg70
g3775
sg63
(lp3782
g56
(g57
g58
NtRp3783
(dp3784
g61
(dp3785
g69
I1
ssg70
g3779
sg63
(lp3786
S'/admin/edit/welcome/views/layout.html'
p3787
asbasbasbasbasbasbasbag56
(g72
g58
NtRp3788
(dp3789
g61
(dp3790
sg70
g3622
sg63
(lp3791
g56
(g77
g58
NtRp3792
(dp3793
g61
(dp3794
sg70
g3788
sg63
(lp3795
g56
(g57
g58
NtRp3796
(dp3797
g61
(dp3798
g69
I2
ssg70
g3792
sg63
(lp3799
g56
(g65
g58
NtRp3800
(dp3801
g61
(dp3802
g69
I1
ssg70
Nsg63
(lp3803
g56
(g72
g58
NtRp3804
(dp3805
g61
(dp3806
sg70
g3800
sg63
(lp3807
g56
(g77
g58
NtRp3808
(dp3809
g61
(dp3810
sg70
g3804
sg63
(lp3811
g56
(g57
g58
NtRp3812
(dp3813
g61
(dp3814
g69
I1
ssg70
g3808
sg63
(lp3815
g3514
(S's\n\x00\x00\x00Stylesheet'
tRp3816
asbasbasbag56
(g72
g58
NtRp3817
(dp3818
g61
(dp3819
sg70
g3800
sg63
(lp3820
g56
(g77
g58
NtRp3821
(dp3822
g61
(dp3823
sg70
g3817
sg63
(lp3824
g56
(g57
g58
NtRp3825
(dp3826
g61
(dp3827
g69
I1
ssg70
g3821
sg63
(lp3828
I00
asbasbasbag56
(g72
g58
NtRp3829
(dp3830
g61
(dp3831
sg70
g3800
sg63
(lp3832
g56
(g77
g58
NtRp3833
(dp3834
g61
(dp3835
sg70
g3829
sg63
(lp3836
g56
(g57
g58
NtRp3837
(dp3838
g61
(dp3839
g69
I1
ssg70
g3833
sg63
(lp3840
S'/admin/edit/welcome/static/base.css'
p3841
asbasbasbasbasbasbasbag56
(g72
g58
NtRp3842
(dp3843
g61
(dp3844
sg70
g3622
sg63
(lp3845
g56
(g77
g58
NtRp3846
(dp3847
g61
(dp3848
sg70
g3842
sg63
(lp3849
g56
(g57
g58
NtRp3850
(dp3851
g61
(dp3852
g69
I2
ssg70
g3846
sg63
(lp3853
g56
(g65
g58
NtRp3854
(dp3855
g61
(dp3856
g69
I1
ssg70
Nsg63
(lp3857
g56
(g72
g58
NtRp3858
(dp3859
g61
(dp3860
sg70
g3854
sg63
(lp3861
g56
(g77
g58
NtRp3862
(dp3863
g61
(dp3864
sg70
g3858
sg63
(lp3865
g56
(g57
g58
NtRp3866
(dp3867
g61
(dp3868
g69
I1
ssg70
g3862
sg63
(lp3869
g3514
(S's\x08\x00\x00\x00DB Model'
tRp3870
asbasbasbag56
(g72
g58
NtRp3871
(dp3872
g61
(dp3873
sg70
g3854
sg63
(lp3874
g56
(g77
g58
NtRp3875
(dp3876
g61
(dp3877
sg70
g3871
sg63
(lp3878
g56
(g57
g58
NtRp3879
(dp3880
g61
(dp3881
g69
I1
ssg70
g3875
sg63
(lp3882
I00
asbasbasbag56
(g72
g58
NtRp3883
(dp3884
g61
(dp3885
sg70
g3854
sg63
(lp3886
g56
(g77
g58
NtRp3887
(dp3888
g61
(dp3889
sg70
g3883
sg63
(lp3890
g56
(g57
g58
NtRp3891
(dp3892
g61
(dp3893
g69
I1
ssg70
g3887
sg63
(lp3894
S'/admin/edit/welcome/models/db.py'
p3895
asbasbasbasbasbasbasbag56
(g72
g58
NtRp3896
(dp3897
g61
(dp3898
sg70
g3622
sg63
(lp3899
g56
(g77
g58
NtRp3900
(dp3901
g61
(dp3902
sg70
g3896
sg63
(lp3903
g56
(g57
g58
NtRp3904
(dp3905
g61
(dp3906
g69
I2
ssg70
g3900
sg63
(lp3907
g56
(g65
g58
NtRp3908
(dp3909
g61
(dp3910
g69
I1
ssg70
Nsg63
(lp3911
g56
(g72
g58
NtRp3912
(dp3913
g61
(dp3914
sg70
g3908
sg63
(lp3915
g56
(g77
g58
NtRp3916
(dp3917
g61
(dp3918
sg70
g3912
sg63
(lp3919
g56
(g57
g58
NtRp3920
(dp3921
g61
(dp3922
g69
I1
ssg70
g3916
sg63
(lp3923
g3514
(S's\n\x00\x00\x00Menu Model'
tRp3924
asbasbasbag56
(g72
g58
NtRp3925
(dp3926
g61
(dp3927
sg70
g3908
sg63
(lp3928
g56
(g77
g58
NtRp3929
(dp3930
g61
(dp3931
sg70
g3925
sg63
(lp3932
g56
(g57
g58
NtRp3933
(dp3934
g61
(dp3935
g69
I1
ssg70
g3929
sg63
(lp3936
I00
asbasbasbag56
(g72
g58
NtRp3937
(dp3938
g61
(dp3939
sg70
g3908
sg63
(lp3940
g56
(g77
g58
NtRp3941
(dp3942
g61
(dp3943
sg70
g3937
sg63
(lp3944
g56
(g57
g58
NtRp3945
(dp3946
g61
(dp3947
g69
I1
ssg70
g3941
sg63
(lp3948
S'/admin/edit/welcome/models/menu.py'
p3949
asbasbasbasbasbasbasbag56
(g72
g58
NtRp3950
(dp3951
g61
(dp3952
sg70
g3622
sg63
(lp3953
g56
(g77
g58
NtRp3954
(dp3955
g61
(dp3956
sg70
g3950
sg63
(lp3957
g56
(g57
g58
NtRp3958
(dp3959
g61
(dp3960
g69
I2
ssg70
g3954
sg63
(lp3961
g56
(g65
g58
NtRp3962
(dp3963
g61
(dp3964
g69
I1
ssg70
Nsg63
(lp3965
g56
(g72
g58
NtRp3966
(dp3967
g61
(dp3968
sg70
g3962
sg63
(lp3969
g56
(g77
g58
NtRp3970
(dp3971
g61
(dp3972
sg70
g3966
sg63
(lp3973
g56
(g57
g58
NtRp3974
(dp3975
g61
(dp3976
g69
I1
ssg70
g3970
sg63
(lp3977
g3514
(S's\x08\x00\x00\x00Database'
tRp3978
asbasbasbag56
(g72
g58
NtRp3979
(dp3980
g61
(dp3981
sg70
g3962
sg63
(lp3982
g56
(g77
g58
NtRp3983
(dp3984
g61
(dp3985
sg70
g3979
sg63
(lp3986
g56
(g57
g58
NtRp3987
(dp3988
g61
(dp3989
g69
I1
ssg70
g3983
sg63
(lp3990
I00
asbasbasbag56
(g72
g58
NtRp3991
(dp3992
g61
(dp3993
sg70
g3962
sg63
(lp3994
g56
(g77
g58
NtRp3995
(dp3996
g61
(dp3997
sg70
g3991
sg63
(lp3998
g56
(g57
g58
NtRp3999
(dp4000
g61
(dp4001
g69
I1
ssg70
g3995
sg63
(lp4002
S'/appadmin'
p4003
asbasbasbasbasbasbasbag56
(g72
g58
NtRp4004
(dp4005
g61
(dp4006
sg70
g3622
sg63
(lp4007
g56
(g77
g58
NtRp4008
(dp4009
g61
(dp4010
sg70
g4004
sg63
(lp4011
g56
(g57
g58
NtRp4012
(dp4013
g61
(dp4014
g69
I2
ssg70
g4008
sg63
(lp4015
g56
(g65
g58
NtRp4016
(dp4017
g61
(dp4018
g69
I1
ssg70
Nsg63
(lp4019
g56
(g72
g58
NtRp4020
(dp4021
g61
(dp4022
sg70
g4016
sg63
(lp4023
g56
(g77
g58
NtRp4024
(dp4025
g61
(dp4026
sg70
g4020
sg63
(lp4027
g56
(g57
g58
NtRp4028
(dp4029
g61
(dp4030
g69
I1
ssg70
g4024
sg63
(lp4031
g3514
(S's\x06\x00\x00\x00Errors'
tRp4032
asbasbasbag56
(g72
g58
NtRp4033
(dp4034
g61
(dp4035
sg70
g4016
sg63
(lp4036
g56
(g77
g58
NtRp4037
(dp4038
g61
(dp4039
sg70
g4033
sg63
(lp4040
g56
(g57
g58
NtRp4041
(dp4042
g61
(dp4043
g69
I1
ssg70
g4037
sg63
(lp4044
I00
asbasbasbag56
(g72
g58
NtRp4045
(dp4046
g61
(dp4047
sg70
g4016
sg63
(lp4048
g56
(g77
g58
NtRp4049
(dp4050
g61
(dp4051
sg70
g4045
sg63
(lp4052
g56
(g57
g58
NtRp4053
(dp4054
g61
(dp4055
g69
I1
ssg70
g4049
sg63
(lp4056
S'/admin/errors/welcome'
p4057
asbasbasbasbasbasbasbag56
(g72
g58
NtRp4058
(dp4059
g61
(dp4060
sg70
g3622
sg63
(lp4061
g56
(g77
g58
NtRp4062
(dp4063
g61
(dp4064
sg70
g4058
sg63
(lp4065
g56
(g57
g58
NtRp4066
(dp4067
g61
(dp4068
g69
I2
ssg70
g4062
sg63
(lp4069
g56
(g65
g58
NtRp4070
(dp4071
g61
(dp4072
g69
I1
ssg70
Nsg63
(lp4073
g56
(g72
g58
NtRp4074
(dp4075
g61
(dp4076
sg70
g4070
sg63
(lp4077
g56
(g77
g58
NtRp4078
(dp4079
g61
(dp4080
sg70
g4074
sg63
(lp4081
g56
(g57
g58
NtRp4082
(dp4083
g61
(dp4084
g69
I1
ssg70
g4078
sg63
(lp4085
g3514
(S's\x05\x00\x00\x00About'
tRp4086
asbasbasbag56
(g72
g58
NtRp4087
(dp4088
g61
(dp4089
sg70
g4070
sg63
(lp4090
g56
(g77
g58
NtRp4091
(dp4092
g61
(dp4093
sg70
g4087
sg63
(lp4094
g56
(g57
g58
NtRp4095
(dp4096
g61
(dp4097
g69
I1
ssg70
g4091
sg63
(lp4098
I00
asbasbasbag56
(g72
g58
NtRp4099
(dp4100
g61
(dp4101
sg70
g4070
sg63
(lp4102
g56
(g77
g58
NtRp4103
(dp4104
g61
(dp4105
sg70
g4099
sg63
(lp4106
g56
(g57
g58
NtRp4107
(dp4108
g61
(dp4109
g69
I1
ssg70
g4103
sg63
(lp4110
S'/admin/about/welcome'
p4111
asbasbasbasbasbasbasbasbasbasbasbasbasbasbasbag56
(g72
g58
NtRp4112
(dp4113
g61
(dp4114
sg70
g3482
sg63
(lp4115
g56
(g77
g58
NtRp4116
(dp4117
g61
(dp4118
sg70
g4112
sg63
(lp4119
g56
(g57
g58
NtRp4120
(dp4121
g61
(dp4122
g69
I4
ssg70
g4116
sg63
(lp4123
g56
(g65
g58
NtRp4124
(dp4125
g61
(dp4126
g69
I3
ssg70
Nsg63
(lp4127
g56
(g72
g58
NtRp4128
(dp4129
g61
(dp4130
sg70
g4124
sg63
(lp4131
g56
(g77
g58
NtRp4132
(dp4133
g61
(dp4134
sg70
g4128
sg63
(lp4135
g56
(g57
g58
NtRp4136
(dp4137
g61
(dp4138
g69
I3
ssg70
g4132
sg63
(lp4139
g3514
(S's\t\x00\x00\x00Resources'
tRp4140
asbasbasbag56
(g72
g58
NtRp4141
(dp4142
g61
(dp4143
sg70
g4124
sg63
(lp4144
g56
(g77
g58
NtRp4145
(dp4146
g61
(dp4147
sg70
g4141
sg63
(lp4148
g56
(g57
g58
NtRp4149
(dp4150
g61
(dp4151
g69
I3
ssg70
g4145
sg63
(lp4152
g99
asbasbasbag56
(g72
g58
NtRp4153
(dp4154
g61
(dp4155
sg70
g4124
sg63
(lp4156
g56
(g77
g58
NtRp4157
(dp4158
g61
(dp4159
sg70
g4153
sg63
(lp4160
g56
(g57
g58
NtRp4161
(dp4162
g61
(dp4163
g69
I3
ssg70
g4157
sg63
(lp4164
S'None'
p4165
asbasbasbag56
(g72
g58
NtRp4166
(dp4167
g61
(dp4168
sg70
g4124
sg63
(lp4169
g56
(g77
g58
NtRp4170
(dp4171
g61
(dp4172
sg70
g4166
sg63
(lp4173
g56
(g57
g58
NtRp4174
(dp4175
g61
(dp4176
g69
I3
ssg70
g4170
sg63
(lp4177
g56
(g65
g58
NtRp4178
(dp4179
g61
(dp4180
g69
I2
ssg70
Nsg63
(lp4181
g56
(g72
g58
NtRp4182
(dp4183
g61
(dp4184
sg70
g4178
sg63
(lp4185
g56
(g77
g58
NtRp4186
(dp4187
g61
(dp4188
sg70
g4182
sg63
(lp4189
g56
(g57
g58
NtRp4190
(dp4191
g61
(dp4192
g69
I2
ssg70
g4186
sg63
(lp4193
g56
(g65
g58
NtRp4194
(dp4195
g61
(dp4196
g69
I1
ssg70
Nsg63
(lp4197
g56
(g72
g58
NtRp4198
(dp4199
g61
(dp4200
sg70
g4194
sg63
(lp4201
g56
(g77
g58
NtRp4202
(dp4203
g61
(dp4204
sg70
g4198
sg63
(lp4205
g56
(g57
g58
NtRp4206
(dp4207
g61
(dp4208
g69
I1
ssg70
g4202
sg63
(lp4209
g3514
(S's\r\x00\x00\x00Documentation'
tRp4210
asbasbasbag56
(g72
g58
NtRp4211
(dp4212
g61
(dp4213
sg70
g4194
sg63
(lp4214
g56
(g77
g58
NtRp4215
(dp4216
g61
(dp4217
sg70
g4211
sg63
(lp4218
g56
(g57
g58
NtRp4219
(dp4220
g61
(dp4221
g69
I1
ssg70
g4215
sg63
(lp4222
I00
asbasbasbag56
(g72
g58
NtRp4223
(dp4224
g61
(dp4225
sg70
g4194
sg63
(lp4226
g56
(g77
g58
NtRp4227
(dp4228
g61
(dp4229
sg70
g4223
sg63
(lp4230
g56
(g57
g58
NtRp4231
(dp4232
g61
(dp4233
g69
I1
ssg70
g4227
sg63
(lp4234
S'http://www.web2py.com/book'
p4235
asbasbasbag56
(g72
g58
NtRp4236
(dp4237
g61
(dp4238
sg70
g4194
sg63
(lp4239
g56
(g77
g58
NtRp4240
(dp4241
g61
(dp4242
sg70
g4236
sg63
(lp4243
g56
(g57
g58
NtRp4244
(dp4245
g61
(dp4246
g69
I1
ssg70
g4240
sg63
(lp4247
(lp4248
(g3514
(S's\x07\x00\x00\x00Preface'
tRp4249
I00
S'http://www.web2py.com/book/default/chapter/00'
p4250
tp4251
a(g3514
(S's\x0c\x00\x00\x00Introduction'
tRp4252
I00
S'http://www.web2py.com/book/default/chapter/01'
p4253
tp4254
a(g3514
(S's\x06\x00\x00\x00Python'
tRp4255
I00
S'http://www.web2py.com/book/default/chapter/02'
p4256
tp4257
a(g3514
(S's\x08\x00\x00\x00Overview'
tRp4258
I00
S'http://www.web2py.com/book/default/chapter/03'
p4259
tp4260
a(g3514
(S's\x08\x00\x00\x00The Core'
tRp4261
I00
S'http://www.web2py.com/book/default/chapter/04'
p4262
tp4263
a(g3514
(S's\t\x00\x00\x00The Views'
tRp4264
I00
S'http://www.web2py.com/book/default/chapter/05'
p4265
tp4266
a(g3514
(S's\x08\x00\x00\x00Database'
tRp4267
I00
S'http://www.web2py.com/book/default/chapter/06'
p4268
tp4269
a(g3514
(S's\x14\x00\x00\x00Forms and Validators'
tRp4270
I00
S'http://www.web2py.com/book/default/chapter/07'
p4271
tp4272
a(g3514
(S's\x0e\x00\x00\x00Access Control'
tRp4273
I00
S'http://www.web2py.com/book/default/chapter/08'
p4274
tp4275
a(g3514
(S's\x08\x00\x00\x00Services'
tRp4276
I00
S'http://www.web2py.com/book/default/chapter/09'
p4277
tp4278
a(g3514
(S's\x0c\x00\x00\x00Ajax Recipes'
tRp4279
I00
S'http://www.web2py.com/book/default/chapter/10'
p4280
tp4281
a(g3514
(S's\x12\x00\x00\x00Deployment Recipes'
tRp4282
I00
S'http://www.web2py.com/book/default/chapter/11'
p4283
tp4284
a(g3514
(S's\r\x00\x00\x00Other Recipes'
tRp4285
I00
S'http://www.web2py.com/book/default/chapter/12'
p4286
tp4287
a(g3514
(S's\r\x00\x00\x00Buy this book'
tRp4288
I00
S'http://stores.lulu.com/web2py'
p4289
tp4290
aasbasbasbasbasbasbasbag56
(g72
g58
NtRp4291
(dp4292
g61
(dp4293
sg70
g4178
sg63
(lp4294
g56
(g77
g58
NtRp4295
(dp4296
g61
(dp4297
sg70
g4291
sg63
(lp4298
g56
(g57
g58
NtRp4299
(dp4300
g61
(dp4301
g69
I2
ssg70
g4295
sg63
(lp4302
g56
(g65
g58
NtRp4303
(dp4304
g61
(dp4305
g69
I1
ssg70
Nsg63
(lp4306
g56
(g72
g58
NtRp4307
(dp4308
g61
(dp4309
sg70
g4303
sg63
(lp4310
g56
(g77
g58
NtRp4311
(dp4312
g61
(dp4313
sg70
g4307
sg63
(lp4314
g56
(g57
g58
NtRp4315
(dp4316
g61
(dp4317
g69
I1
ssg70
g4311
sg63
(lp4318
g3514
(S's\t\x00\x00\x00Community'
tRp4319
asbasbasbag56
(g72
g58
NtRp4320
(dp4321
g61
(dp4322
sg70
g4303
sg63
(lp4323
g56
(g77
g58
NtRp4324
(dp4325
g61
(dp4326
sg70
g4320
sg63
(lp4327
g56
(g57
g58
NtRp4328
(dp4329
g61
(dp4330
g69
I1
ssg70
g4324
sg63
(lp4331
I00
asbasbasbag56
(g72
g58
NtRp4332
(dp4333
g61
(dp4334
sg70
g4303
sg63
(lp4335
g56
(g77
g58
NtRp4336
(dp4337
g61
(dp4338
sg70
g4332
sg63
(lp4339
g56
(g57
g58
NtRp4340
(dp4341
g61
(dp4342
g69
I1
ssg70
g4336
sg63
(lp4343
Nasbasbasbag56
(g72
g58
NtRp4344
(dp4345
g61
(dp4346
sg70
g4303
sg63
(lp4347
g56
(g77
g58
NtRp4348
(dp4349
g61
(dp4350
sg70
g4344
sg63
(lp4351
g56
(g57
g58
NtRp4352
(dp4353
g61
(dp4354
g69
I1
ssg70
g4348
sg63
(lp4355
(lp4356
(g3514
(S's\x06\x00\x00\x00Groups'
tRp4357
I00
S'http://www.web2py.com/examples/default/usergroups'
p4358
tp4359
a(g3514
(S's\x07\x00\x00\x00Twitter'
tRp4360
I00
S'http://twitter.com/web2py'
p4361
tp4362
a(g3514
(S's\t\x00\x00\x00Live chat'
tRp4363
I00
S'http://mibbit.com/?channel=%23web2py&server=irc.mibbit.net'
p4364
tp4365
a(g3514
(S's\n\x00\x00\x00User Voice'
tRp4366
I00
S'http://web2py.uservoice.com/'
p4367
tp4368
aasbasbasbasbasbasbasbag56
(g72
g58
NtRp4369
(dp4370
g61
(dp4371
sg70
g4178
sg63
(lp4372
g56
(g77
g58
NtRp4373
(dp4374
g61
(dp4375
sg70
g4369
sg63
(lp4376
g56
(g57
g58
NtRp4377
(dp4378
g61
(dp4379
g69
I2
ssg70
g4373
sg63
(lp4380
g56
(g65
g58
NtRp4381
(dp4382
g61
(dp4383
g69
I1
ssg70
Nsg63
(lp4384
g56
(g72
g58
NtRp4385
(dp4386
g61
(dp4387
sg70
g4381
sg63
(lp4388
g56
(g77
g58
NtRp4389
(dp4390
g61
(dp4391
sg70
g4385
sg63
(lp4392
g56
(g57
g58
NtRp4393
(dp4394
g61
(dp4395
g69
I1
ssg70
g4389
sg63
(lp4396
g3514
(S's\x06\x00\x00\x00Web2py'
tRp4397
asbasbasbag56
(g72
g58
NtRp4398
(dp4399
g61
(dp4400
sg70
g4381
sg63
(lp4401
g56
(g77
g58
NtRp4402
(dp4403
g61
(dp4404
sg70
g4398
sg63
(lp4405
g56
(g57
g58
NtRp4406
(dp4407
g61
(dp4408
g69
I1
ssg70
g4402
sg63
(lp4409
I00
asbasbasbag56
(g72
g58
NtRp4410
(dp4411
g61
(dp4412
sg70
g4381
sg63
(lp4413
g56
(g77
g58
NtRp4414
(dp4415
g61
(dp4416
sg70
g4410
sg63
(lp4417
g56
(g57
g58
NtRp4418
(dp4419
g61
(dp4420
g69
I1
ssg70
g4414
sg63
(lp4421
S'http://www.web2py.com'
p4422
asbasbasbag56
(g72
g58
NtRp4423
(dp4424
g61
(dp4425
sg70
g4381
sg63
(lp4426
g56
(g77
g58
NtRp4427
(dp4428
g61
(dp4429
sg70
g4423
sg63
(lp4430
g56
(g57
g58
NtRp4431
(dp4432
g61
(dp4433
g69
I1
ssg70
g4427
sg63
(lp4434
(lp4435
(g3514
(S's\x08\x00\x00\x00Download'
tRp4436
I00
S'http://www.web2py.com/examples/default/download'
p4437
tp4438
a(g3514
(S's\x07\x00\x00\x00Support'
tRp4439
I00
S'http://www.web2py.com/examples/default/support'
p4440
tp4441
a(g3514
(S's\x0e\x00\x00\x00Quick Examples'
tRp4442
I00
S'http://web2py.com/examples/default/examples'
p4443
tp4444
a(g3514
(S's\x03\x00\x00\x00FAQ'
tRp4445
I00
S'http://web2py.com/AlterEgo'
p4446
tp4447
a(g3514
(S's\x11\x00\x00\x00Free Applications'
tRp4448
I00
S'http://web2py.com/appliances'
p4449
tp4450
a(g3514
(S's\x07\x00\x00\x00Plugins'
tRp4451
I00
S'http://web2py.com/plugins'
p4452
tp4453
a(g3514
(S's\x07\x00\x00\x00Recipes'
tRp4454
I00
S'http://web2pyslices.com/'
p4455
tp4456
a(g3514
(S's\x04\x00\x00\x00Demo'
tRp4457
I00
S'http://web2py.com/demo_admin'
p4458
tp4459
a(g3514
(S's\x08\x00\x00\x00Semantic'
tRp4460
I00
S'http://web2py.com/semantic'
p4461
tp4462
a(g3514
(S's\x07\x00\x00\x00Layouts'
tRp4463
I00
S'http://web2py.com/layouts'
p4464
tp4465
a(g3514
(S's\x06\x00\x00\x00Videos'
tRp4466
I00
S'http://www.web2py.com/examples/default/videos/'
p4467
tp4468
aasbasbasbasbasbasbasbasbasbasbasbasbasbasbasbasbasbasbasbag56
(g72
g58
NtRp4469
(dp4470
g61
(dp4471
sg70
g2931
sg63
(lp4472
g56
(g77
g58
NtRp4473
(dp4474
g61
(dp4475
g81
g82
ssg70
g4469
sg63
(lp4476
S'meta'
p4477
asbag56
(g77
g58
NtRp4478
(dp4479
g61
(dp4480
g88
g89
ssg70
g4469
sg63
(lp4481
S':'
asbag56
(g77
g58
NtRp4482
(dp4483
g61
(dp4484
sg70
g4469
sg63
(lp4485
g56
(g57
g58
NtRp4486
(dp4487
g61
(dp4488
g69
I5
ssg70
g4482
sg63
(lp4489
g56
(g65
g58
NtRp4490
(dp4491
g61
(dp4492
g69
I4
ssg70
Nsg63
(lp4493
g56
(g72
g58
NtRp4494
(dp4495
g61
(dp4496
sg70
g4490
sg63
(lp4497
g56
(g77
g58
NtRp4498
(dp4499
g61
(dp4500
g81
g82
ssg70
g4494
sg63
(lp4501
S'author'
p4502
asbag56
(g77
g58
NtRp4503
(dp4504
g61
(dp4505
g88
g89
ssg70
g4494
sg63
(lp4506
S':'
asbag56
(g77
g58
NtRp4507
(dp4508
g61
(dp4509
sg70
g4494
sg63
(lp4510
g56
(g57
g58
NtRp4511
(dp4512
g61
(dp4513
g69
I4
ssg70
g4507
sg63
(lp4514
S'Your Name <you@example.com>'
p4515
asbasbasbag56
(g72
g58
NtRp4516
(dp4517
g61
(dp4518
sg70
g4490
sg63
(lp4519
g56
(g77
g58
NtRp4520
(dp4521
g61
(dp4522
g81
g82
ssg70
g4516
sg63
(lp4523
S'copyright'
p4524
asbag56
(g77
g58
NtRp4525
(dp4526
g61
(dp4527
g88
g89
ssg70
g4516
sg63
(lp4528
S':'
asbag56
(g77
g58
NtRp4529
(dp4530
g61
(dp4531
sg70
g4516
sg63
(lp4532
g56
(g57
g58
NtRp4533
(dp4534
g61
(dp4535
g69
I4
ssg70
g4529
sg63
(lp4536
S'Copyright 2011'
p4537
asbasbasbag56
(g72
g58
NtRp4538
(dp4539
g61
(dp4540
sg70
g4490
sg63
(lp4541
g56
(g77
g58
NtRp4542
(dp4543
g61
(dp4544
g81
g82
ssg70
g4538
sg63
(lp4545
S'description'
p4546
asbag56
(g77
g58
NtRp4547
(dp4548
g61
(dp4549
g88
g89
ssg70
g4538
sg63
(lp4550
S':'
asbag56
(g77
g58
NtRp4551
(dp4552
g61
(dp4553
sg70
g4538
sg63
(lp4554
g56
(g57
g58
NtRp4555
(dp4556
g61
(dp4557
g69
I4
ssg70
g4551
sg63
(lp4558
S'a cool new app'
p4559
asbasbasbag56
(g72
g58
NtRp4560
(dp4561
g61
(dp4562
sg70
g4490
sg63
(lp4563
g56
(g77
g58
NtRp4564
(dp4565
g61
(dp4566
g81
g82
ssg70
g4560
sg63
(lp4567
S'generator'
p4568
asbag56
(g77
g58
NtRp4569
(dp4570
g61
(dp4571
g88
g89
ssg70
g4560
sg63
(lp4572
S':'
asbag56
(g77
g58
NtRp4573
(dp4574
g61
(dp4575
sg70
g4560
sg63
(lp4576
g56
(g57
g58
NtRp4577
(dp4578
g61
(dp4579
g69
I4
ssg70
g4573
sg63
(lp4580
S'Web2py Web Framework'
p4581
asbasbasbag56
(g72
g58
NtRp4582
(dp4583
g61
(dp4584
sg70
g4490
sg63
(lp4585
g56
(g77
g58
NtRp4586
(dp4587
g61
(dp4588
g81
g82
ssg70
g4582
sg63
(lp4589
S'keywords'
p4590
asbag56
(g77
g58
NtRp4591
(dp4592
g61
(dp4593
g88
g89
ssg70
g4582
sg63
(lp4594
S':'
asbag56
(g77
g58
NtRp4595
(dp4596
g61
(dp4597
sg70
g4582
sg63
(lp4598
g56
(g57
g58
NtRp4599
(dp4600
g61
(dp4601
g69
I4
ssg70
g4595
sg63
(lp4602
S'web2py, python, framework'
p4603
asbasbasbasbasbasbasbag56
(g72
g58
NtRp4604
(dp4605
g61
(dp4606
sg70
g2931
sg63
(lp4607
g56
(g77
g58
NtRp4608
(dp4609
g61
(dp4610
g81
g82
ssg70
g4604
sg63
(lp4611
S'postprocessing'
p4612
asbag56
(g77
g58
NtRp4613
(dp4614
g61
(dp4615
g88
g89
ssg70
g4604
sg63
(lp4616
S':'
asbag56
(g77
g58
NtRp4617
(dp4618
g61
(dp4619
sg70
g4604
sg63
(lp4620
g56
(g57
g58
NtRp4621
(dp4622
g61
(dp4623
g69
I5
ssg70
g4617
sg63
(lp4624
g56
(g65
g58
NtRp4625
(dp4626
g61
(dp4627
g69
I4
ssg70
Nsg63
(lp4628
sbasbasbasbag56
(g72
g58
NtRp4629
(dp4630
g61
(dp4631
sg70
g2931
sg63
(lp4632
g56
(g77
g58
NtRp4633
(dp4634
g61
(dp4635
g81
g82
ssg70
g4629
sg63
(lp4636
S'session_filename'
p4637
asbag56
(g77
g58
NtRp4638
(dp4639
g61
(dp4640
g88
g89
ssg70
g4629
sg63
(lp4641
S':'
asbag56
(g77
g58
NtRp4642
(dp4643
g61
(dp4644
sg70
g4629
sg63
(lp4645
g56
(g57
g58
NtRp4646
(dp4647
g61
(dp4648
g69
I5
ssg70
g4642
sg63
(lp4649
S'/Users/excon/Sites/dreamscape/applications/welcome/sessions/127.0.0.1-3c53e383-c3a5-4bbf-a986-14611a8f3cb3'
p4650
asbasbasbag56
(g72
g58
NtRp4651
(dp4652
g61
(dp4653
sg70
g2931
sg63
(lp4654
g56
(g77
g58
NtRp4655
(dp4656
g61
(dp4657
g81
g82
ssg70
g4651
sg63
(lp4658
S'session_id'
p4659
asbag56
(g77
g58
NtRp4660
(dp4661
g61
(dp4662
g88
g89
ssg70
g4651
sg63
(lp4663
S':'
asbag56
(g77
g58
NtRp4664
(dp4665
g61
(dp4666
sg70
g4651
sg63
(lp4667
g56
(g57
g58
NtRp4668
(dp4669
g61
(dp4670
g69
I5
ssg70
g4664
sg63
(lp4671
S'127.0.0.1-3c53e383-c3a5-4bbf-a986-14611a8f3cb3'
p4672
asbasbasbag56
(g72
g58
NtRp4673
(dp4674
g61
(dp4675
sg70
g2931
sg63
(lp4676
g56
(g77
g58
NtRp4677
(dp4678
g61
(dp4679
g81
g82
ssg70
g4673
sg63
(lp4680
S'session_id_name'
p4681
asbag56
(g77
g58
NtRp4682
(dp4683
g61
(dp4684
g88
g89
ssg70
g4673
sg63
(lp4685
S':'
asbag56
(g77
g58
NtRp4686
(dp4687
g61
(dp4688
sg70
g4673
sg63
(lp4689
g56
(g57
g58
NtRp4690
(dp4691
g61
(dp4692
g69
I5
ssg70
g4686
sg63
(lp4693
g2988
asbasbasbag56
(g72
g58
NtRp4694
(dp4695
g61
(dp4696
sg70
g2931
sg63
(lp4697
g56
(g77
g58
NtRp4698
(dp4699
g61
(dp4700
g81
g82
ssg70
g4694
sg63
(lp4701
S'session_new'
p4702
asbag56
(g77
g58
NtRp4703
(dp4704
g61
(dp4705
g88
g89
ssg70
g4694
sg63
(lp4706
S':'
asbag56
(g77
g58
NtRp4707
(dp4708
g61
(dp4709
sg70
g4694
sg63
(lp4710
g56
(g57
g58
NtRp4711
(dp4712
g61
(dp4713
g69
I5
ssg70
g4707
sg63
(lp4714
g1513
asbasbasbag56
(g72
g58
NtRp4715
(dp4716
g61
(dp4717
sg70
g2931
sg63
(lp4718
g56
(g77
g58
NtRp4719
(dp4720
g61
(dp4721
g81
g82
ssg70
g4715
sg63
(lp4722
S'status'
p4723
asbag56
(g77
g58
NtRp4724
(dp4725
g61
(dp4726
g88
g89
ssg70
g4715
sg63
(lp4727
S':'
asbag56
(g77
g58
NtRp4728
(dp4729
g61
(dp4730
sg70
g4715
sg63
(lp4731
g56
(g57
g58
NtRp4732
(dp4733
g61
(dp4734
g69
I5
ssg70
g4728
sg63
(lp4735
S'200'
p4736
asbasbasbag56
(g72
g58
NtRp4737
(dp4738
g61
(dp4739
sg70
g2931
sg63
(lp4740
g56
(g77
g58
NtRp4741
(dp4742
g61
(dp4743
g81
g82
ssg70
g4737
sg63
(lp4744
S'subtitle'
p4745
asbag56
(g77
g58
NtRp4746
(dp4747
g61
(dp4748
g88
g89
ssg70
g4737
sg63
(lp4749
S':'
asbag56
(g77
g58
NtRp4750
(dp4751
g61
(dp4752
sg70
g4737
sg63
(lp4753
g56
(g57
g58
NtRp4754
(dp4755
g61
(dp4756
g69
I5
ssg70
g4750
sg63
(lp4757
g3514
(S's\r\x00\x00\x00customize me!'
tRp4758
asbasbasbag56
(g72
g58
NtRp4759
(dp4760
g61
(dp4761
sg70
g2931
sg63
(lp4762
g56
(g77
g58
NtRp4763
(dp4764
g61
(dp4765
g81
g82
ssg70
g4759
sg63
(lp4766
S'title'
p4767
asbag56
(g77
g58
NtRp4768
(dp4769
g61
(dp4770
g88
g89
ssg70
g4759
sg63
(lp4771
S':'
asbag56
(g77
g58
NtRp4772
(dp4773
g61
(dp4774
sg70
g4759
sg63
(lp4775
g56
(g57
g58
NtRp4776
(dp4777
g61
(dp4778
g69
I5
ssg70
g4772
sg63
(lp4779
g121
asbasbasbag56
(g72
g58
NtRp4780
(dp4781
g61
(dp4782
sg70
g2931
sg63
(lp4783
g56
(g77
g58
NtRp4784
(dp4785
g61
(dp4786
g81
g82
ssg70
g4780
sg63
(lp4787
g2156
asbag56
(g77
g58
NtRp4788
(dp4789
g61
(dp4790
g88
g89
ssg70
g4780
sg63
(lp4791
S':'
asbag56
(g77
g58
NtRp4792
(dp4793
g61
(dp4794
sg70
g4780
sg63
(lp4795
g56
(g57
g58
NtRp4796
(dp4797
g61
(dp4798
g69
I5
ssg70
g4792
sg63
(lp4799
g2169
asbasbasbag56
(g72
g58
NtRp4800
(dp4801
g61
(dp4802
sg70
g2931
sg63
(lp4803
g56
(g77
g58
NtRp4804
(dp4805
g61
(dp4806
g81
g82
ssg70
g4800
sg63
(lp4807
S'view'
p4808
asbag56
(g77
g58
NtRp4809
(dp4810
g61
(dp4811
g88
g89
ssg70
g4800
sg63
(lp4812
S':'
asbag56
(g77
g58
NtRp4813
(dp4814
g61
(dp4815
sg70
g4800
sg63
(lp4816
g56
(g57
g58
NtRp4817
(dp4818
g61
(dp4819
g69
I5
ssg70
g4813
sg63
(lp4820
S'default/index.html'
p4821
asbasbasbasbasbsS'locals'
p4822
(dp4823
S'Service'
p4824
S"<class 'gluon.tools.Service'>"
p4825
sS'OBJECT'
p4826
S"<class 'gluon.html.OBJECT'>"
p4827
sS'SQLDB'
p4828
S"<class 'gluon.dal.DAL'>"
p4829
sg2913
S"<Storage {'_Session__hash': '\\xc8[\\xd5\\xc1#\\xd8e\\x10\\xe3\\x06\\x0ba\\xddT\\x92m'}>"
p4830
sS'LINK'
p4831
S"<class 'gluon.html.LINK'>"
p4832
sS'BR'
p4833
S"<class 'gluon.html.BR'>"
p4834
sS'local_import'
p4835
S'<function <lambda> at 0x1015df938>'
p4836
sS'OPTGROUP'
p4837
S"<class 'gluon.html.OPTGROUP'>"
p4838
sS'PRE'
p4839
S"<class 'gluon.html.PRE'>"
p4840
sS'IS_INT_IN_RANGE'
p4841
S"<class 'gluon.validators.IS_INT_IN_RANGE'>"
p4842
sS'left_sidebar_enabled'
p4843
g99
sS'IS_LOWER'
p4844
S"<class 'gluon.validators.IS_LOWER'>"
p4845
sS'IS_STRONG'
p4846
S"<class 'gluon.validators.IS_STRONG'>"
p4847
sS'cache'
p4848
S'<gluon.cache.Cache object at 0x1013c67d0>'
p4849
sS'IS_IN_DB'
p4850
S"<class 'gluon.validators.IS_IN_DB'>"
p4851
sS'TAG'
p4852
S'<gluon.html.__TAG__ object at 0x10071d410>'
p4853
sS'SQLField'
p4854
S"<class 'gluon.dal.Field'>"
p4855
sS'mail'
p4856
S'<gluon.tools.Mail object at 0x1013d1410>'
p4857
sS'BODY'
p4858
S"<class 'gluon.html.BODY'>"
p4859
sS'IS_DATE_IN_RANGE'
p4860
S"<class 'gluon.validators.IS_DATE_IN_RANGE'>"
p4861
sS'TH'
p4862
S"<class 'gluon.html.TH'>"
p4863
sS'URL'
p4864
S'<function URL at 0x100554de8>'
p4865
sS'__file__'
p4866
S"'/Users/excon/Sites/dreamscape/applications/welcome/views/default/index.html'"
p4867
sS'db'
p4868
S"<DAL {'auth_event': <Table {'origin': <gluon.dal...'id': <gluon.dal.Field object at 0x1013c6410>}>}>"
p4869
sS'auth'
p4870
S'<gluon.tools.Auth object at 0x1013d1550>'
p4871
sS'P'
S"<class 'gluon.html.P'>"
p4872
sS'TFOOT'
p4873
S"<class 'gluon.html.TFOOT'>"
p4874
sS'XHTML'
p4875
S"<class 'gluon.html.XHTML'>"
p4876
sS'ON'
p4877
g1513
sS'OL'
p4878
S"<class 'gluon.html.OL'>"
p4879
sS'TEXTAREA'
p4880
S"<class 'gluon.html.TEXTAREA'>"
p4881
sS'MENU'
p4882
S"<class 'gluon.html.MENU'>"
p4883
sS'LOAD'
p4884
S'<gluon.compileapp.LoadFactory object at 0x1013d12d0>'
p4885
sS'CODE'
p4886
S"<class 'gluon.html.CODE'>"
p4887
sS'HTTP'
p4888
S"<class 'gluon.http.HTTP'>"
p4889
sS'HR'
p4890
S"<class 'gluon.html.HR'>"
p4891
sS'IS_DATETIME'
p4892
S"<class 'gluon.validators.IS_DATETIME'>"
p4893
sS'HEAD'
p4894
S"<class 'gluon.html.HEAD'>"
p4895
sS'LABEL'
p4896
S"<class 'gluon.html.LABEL'>"
p4897
sS'CLEANUP'
p4898
S"<class 'gluon.validators.CLEANUP'>"
p4899
sS'plugins'
p4900
S'<gluon.tools.PluginManager object at 0x1015ea590>'
p4901
sS'SELECT'
p4902
S"<class 'gluon.html.SELECT'>"
p4903
sS'use_janrain'
p4904
S'<function use_janrain at 0x1010ac320>'
p4905
sS'CENTER'
p4906
S"<class 'gluon.html.CENTER'>"
p4907
sS'prettydate'
p4908
S'<function prettydate at 0x1010a59b0>'
p4909
sS'Crud'
p4910
S"<class 'gluon.tools.Crud'>"
p4911
sS'Auth'
p4912
S"<class 'gluon.tools.Auth'>"
p4913
sS'__builtins__'
p4914
S"{'ArithmeticError': <type 'exceptions.ArithmeticError'>, 'AssertionError': <type 'exceptions.AssertionError'>, 'AttributeError': <type 'exceptions.AttributeError'>, 'BaseException': <type 'exceptions.BaseException'>, 'BufferError': <type 'exceptions.BufferError'>, 'BytesWarning': <type 'exceptions.BytesWarning'>, 'DeprecationWarning': <type 'exceptions.DeprecationWarning'>, 'EOFError': <type 'exceptions.EOFError'>, 'Ellipsis': Ellipsis, 'EnvironmentError': <type 'exceptions.EnvironmentError'>, ...}"
p4915
sS'HTML'
p4916
S"<class 'gluon.html.HTML'>"
p4917
sS'SQLFORM'
p4918
S"<class 'gluon.sqlhtml.SQLFORM'>"
p4919
sS'EM'
p4920
S"<class 'gluon.html.EM'>"
p4921
sS'redirect'
p4922
S'<function redirect at 0x101040758>'
p4923
sS'FIELDSET'
p4924
S"<class 'gluon.html.FIELDSET'>"
p4925
sS'IS_EQUAL_TO'
p4926
S"<class 'gluon.validators.IS_EQUAL_TO'>"
p4927
sS'embed64'
p4928
S'<function embed64 at 0x10068ff50>'
p4929
sS'IS_LIST_OF'
p4930
S"<class 'gluon.validators.IS_LIST_OF'>"
p4931
sS'INPUT'
p4932
S"<class 'gluon.html.INPUT'>"
p4933
sS'EMBED'
p4934
S"<class 'gluon.html.EMBED'>"
p4935
sS'_'
S'<function _ at 0x101623d70>'
p4936
sS'FORM'
p4937
S"<class 'gluon.html.FORM'>"
p4938
sS'width_content'
p4939
S"'100%'"
p4940
sS'H2'
p4941
S"<class 'gluon.html.H2'>"
p4942
sS'H3'
p4943
S"<class 'gluon.html.H3'>"
p4944
sS'BUTTON'
p4945
S"<class 'gluon.html.BUTTON'>"
p4946
sS'H1'
p4947
S"<class 'gluon.html.H1'>"
p4948
sS'H6'
p4949
S"<class 'gluon.html.H6'>"
p4950
sS'H4'
p4951
S"<class 'gluon.html.H4'>"
p4952
sS'H5'
p4953
S"<class 'gluon.html.H5'>"
p4954
sS'UL'
p4955
S"<class 'gluon.html.UL'>"
p4956
sS'IS_UPPER'
p4957
S"<class 'gluon.validators.IS_UPPER'>"
p4958
sS'xmlescape'
p4959
S'<function xmlescape at 0x10054b0c8>'
p4960
sS'IS_TIME'
p4961
S"<class 'gluon.validators.IS_TIME'>"
p4962
sS'OPTION'
p4963
S"<class 'gluon.html.OPTION'>"
p4964
sS'TITLE'
p4965
S"<class 'gluon.html.TITLE'>"
p4966
sS'CRYPT'
p4967
S"<class 'gluon.validators.CRYPT'>"
p4968
sS'IS_EMPTY_OR'
p4969
S"<class 'gluon.validators.IS_EMPTY_OR'>"
p4970
sS'MARKMIN'
p4971
S"<class 'gluon.html.MARKMIN'>"
p4972
sS'COL'
p4973
S"<class 'gluon.html.COL'>"
p4974
sS'service'
p4975
S'<gluon.tools.Service object at 0x101613490>'
p4976
sS'SCRIPT'
p4977
S"<class 'gluon.html.SCRIPT'>"
p4978
sS'TABLE'
p4979
S"<class 'gluon.html.TABLE'>"
p4980
sS'IS_IPV4'
p4981
S"<class 'gluon.validators.IS_IPV4'>"
p4982
sS'IS_LENGTH'
p4983
S"<class 'gluon.validators.IS_LENGTH'>"
p4984
sS'XML'
p4985
S"<class 'gluon.html.XML'>"
p4986
sS'B'
S"<class 'gluon.html.B'>"
p4987
sS'IMG'
p4988
S"<class 'gluon.html.IMG'>"
p4989
sS'SQLTABLE'
p4990
S"<class 'gluon.sqlhtml.SQLTABLE'>"
p4991
sS'IS_MATCH'
p4992
S"<class 'gluon.validators.IS_MATCH'>"
p4993
sS'IS_ALPHANUMERIC'
p4994
S"<class 'gluon.validators.IS_ALPHANUMERIC'>"
p4995
sS'SPAN'
p4996
S"<class 'gluon.html.SPAN'>"
p4997
sS'IS_SLUG'
p4998
S"<class 'gluon.validators.IS_SLUG'>"
p4999
sS'BEAUTIFY'
p5000
S"<class 'gluon.html.BEAUTIFY'>"
p5001
sS'META'
p5002
S"<class 'gluon.html.META'>"
p5003
sS'IS_DATE'
p5004
S"<class 'gluon.validators.IS_DATE'>"
p5005
sS'IS_EMAIL'
p5006
S"<class 'gluon.validators.IS_EMAIL'>"
p5007
sS'IS_NOT_EMPTY'
p5008
S"<class 'gluon.validators.IS_NOT_EMPTY'>"
p5009
sS'IS_FLOAT_IN_RANGE'
p5010
S"<class 'gluon.validators.IS_FLOAT_IN_RANGE'>"
p5011
sS'TBODY'
p5012
S"<class 'gluon.html.TBODY'>"
p5013
sS'CAT'
p5014
S"<class 'gluon.html.CAT'>"
p5015
sS'Field'
p5016
S"<class 'gluon.dal.Field'>"
p5017
sS'DIV'
p5018
S"<class 'gluon.html.DIV'>"
p5019
sS'LEGEND'
p5020
S"<class 'gluon.html.LEGEND'>"
p5021
sS'COLGROUP'
p5022
S"<class 'gluon.html.COLGROUP'>"
p5023
sS'DAL'
p5024
S"<class 'gluon.dal.DAL'>"
p5025
sS'TT'
p5026
S"<class 'gluon.html.TT'>"
p5027
sS'TR'
p5028
S"<class 'gluon.html.TR'>"
p5029
sS'LI'
p5030
S"<class 'gluon.html.LI'>"
p5031
sS'right_sidebar_enabled'
p5032
g99
sS'IFRAME'
p5033
S"<class 'gluon.html.IFRAME'>"
p5034
sS'TD'
p5035
S"<class 'gluon.html.TD'>"
p5036
sS'PluginManager'
p5037
S"<class 'gluon.tools.PluginManager'>"
p5038
sS'IS_URL'
p5039
S"<class 'gluon.validators.IS_URL'>"
p5040
sS'A'
S"<class 'gluon.html.A'>"
p5041
sS'STYLE'
p5042
S"<class 'gluon.html.STYLE'>"
p5043
sS'IS_DATETIME_IN_RANGE'
p5044
S"<class 'gluon.validators.IS_DATETIME_IN_RANGE'>"
p5045
sS'IS_IMAGE'
p5046
S"<class 'gluon.validators.IS_IMAGE'>"
p5047
sS'nums'
p5048
S"['a', 'b', 'c']"
p5049
sS'I'
S"<class 'gluon.html.I'>"
p5050
sS'crud'
p5051
S'<gluon.tools.Crud object at 0x1013d1910>'
p5052
sS'right_sidebar_style'
p5053
S'\'style="display: none;"\''
p5054
sS'IS_NOT_IN_DB'
p5055
S"<class 'gluon.validators.IS_NOT_IN_DB'>"
p5056
sg2926
S"<Storage {'status': 200, 'body': <cStringIO.Stri...js/superfish.js'], 'view': 'default/index.html'}>"
p5057
sS'THEAD'
p5058
S"<class 'gluon.html.THEAD'>"
p5059
sS'IS_NULL_OR'
p5060
S"<class 'gluon.validators.IS_EMPTY_OR'>"
p5061
sS'left_sidebar_style'
p5062
S'\'style="display: none;"\''
p5063
sg55
S"<Storage {'body': <cStringIO.StringO object at 0..._vars': <Storage {}>, 'post_vars': <Storage {}>}>"
p5064
sS'IS_EXPR'
p5065
S"<class 'gluon.validators.IS_EXPR'>"
p5066
sS'T'
S'<gluon.languages.translator object at 0x1013c6750>'
p5067
sS'IS_IN_SET'
p5068
S"<class 'gluon.validators.IS_IN_SET'>"
p5069
sS'IS_UPLOAD_FILENAME'
p5070
S"<class 'gluon.validators.IS_UPLOAD_FILENAME'>"
p5071
sS'style_content'
p5072
S'\'style="width: 100%"\''
p5073
sS'IS_DECIMAL_IN_RANGE'
p5074
S"<class 'gluon.validators.IS_DECIMAL_IN_RANGE'>"
p5075
sssS'traceback'
p5076
S'Traceback (most recent call last):\n  File "/Users/excon/Sites/dreamscape/gluon/restricted.py", line 194, in restricted\n    exec ccode in environment\n  File "/Users/excon/Sites/dreamscape/applications/welcome/views/default/index.html", line 82, in <module>\nNameError: name \'chars\' is not defined\n'
p5077
s.