(dp1
S'output'
p2
S''
sS'layer'
p3
S'/Users/excon/Sites/dreamscape/applications/welcome/controllers/default.py'
p4
sS'code'
p5
S'# -*- coding: utf-8 -*-\n# this file is released under public domain and you can use without limitations\n\n#########################################################################\n## This is a samples controller\n## - index is the default action of any application\n## - user is required for authentication and authorization\n## - download is for downloading files uploaded in the db (does streaming)\n## - call exposes all registered services (none by default)\n#########################################################################\n\ndef index():\n    """\n    example action using the internationalization operator T and flash\n    rendered by views/default/index.html or views/generic.html\n    """\n    if True:\n        redirect(URL(r=request, f=\'coming_soon\'))\n    return dict()\n    \ndef coming_soon():\n    form = FORM(\'Email:\',\n            INPUT(_type=\'submit\', _value=\'DREAM\'))\n            INPUT(_name=\'email\', requires=IS_EMAIL(error_message=\'Invalid email\')),\n            \n    if form.accepts(request, session):\n        \n        response.flash = \'Your a wonderful dreamer!\'\n    elif form.errors:\n        response.flash = \'Invalid email!\'\n    return dict(form=form)\n\ndef user():\n    """\n    exposes:\n    http://..../[app]/default/user/login\n    http://..../[app]/default/user/logout\n    http://..../[app]/default/user/register\n    http://..../[app]/default/user/profile\n    http://..../[app]/default/user/retrieve_password\n    http://..../[app]/default/user/change_password\n    use @auth.requires_login()\n        @auth.requires_membership(\'group name\')\n        @auth.requires_permission(\'read\',\'table name\',record_id)\n    to decorate functions that need access control\n    """\n    return dict(form=auth())\n\n\ndef download():\n    """\n    allows downloading of uploaded files\n    http://..../[app]/default/download/[filename]\n    """\n    return response.download(request,db)\n\n\ndef call():\n    """\n    exposes services. for example:\n    http://..../[app]/default/call/jsonrpc\n    decorate with @services.jsonrpc the functions to expose\n    supports xml, json, xmlrpc, jsonrpc, amfrpc, rss, csv\n    """\n    return service()\n\n\n@auth.requires_signature()\ndef data():\n    """\n    http://..../[app]/default/data/tables\n    http://..../[app]/default/data/create/[table]\n    http://..../[app]/default/data/read/[table]/[id]\n    http://..../[app]/default/data/update/[table]/[id]\n    http://..../[app]/default/data/delete/[table]/[id]\n    http://..../[app]/default/data/select/[table]\n    http://..../[app]/default/data/search/[table]\n    but URLs bust be signed, i.e. linked with\n      A(\'table\',_href=URL(\'data/tables\',user_signature=True))\n    or with the signed load operator\n      LOAD(\'default\',\'data.load\',args=\'tables\',ajax=True,user_signature=True)\n    """\n    return dict(form=crud())\n\nresponse._vars=response._caller(coming_soon)\n'
p6
sS'snapshot'
p7
(dp8
S'exception'
p9
(dp10
S'__getslice__'
p11
S"<method-wrapper '__getslice__' of exceptions.IndentationError object at 0x1015fc6e0>"
p12
sS'text'
p13
S'"            INPUT(_name=\'email\', requires=IS_EMAIL(error_message=\'Invalid email\')),\\n"'
p14
sS'__str__'
p15
S"<method-wrapper '__str__' of exceptions.IndentationError object at 0x1015fc6e0>"
p16
sS'__reduce__'
p17
S'<built-in method __reduce__ of exceptions.IndentationError object at 0x1015fc6e0>'
p18
sS'__dict__'
p19
S'{}'
p20
sS'__sizeof__'
p21
S'<built-in method __sizeof__ of exceptions.IndentationError object at 0x1015fc6e0>'
p22
sS'__init__'
p23
S"<method-wrapper '__init__' of exceptions.IndentationError object at 0x1015fc6e0>"
p24
sS'__setattr__'
p25
S"<method-wrapper '__setattr__' of exceptions.IndentationError object at 0x1015fc6e0>"
p26
sS'__reduce_ex__'
p27
S'<built-in method __reduce_ex__ of exceptions.IndentationError object at 0x1015fc6e0>'
p28
sS'__new__'
p29
S'<built-in method __new__ of type object at 0x10011bcc0>'
p30
sS'__format__'
p31
S'<built-in method __format__ of exceptions.IndentationError object at 0x1015fc6e0>'
p32
sS'__class__'
p33
S"<type 'exceptions.IndentationError'>"
p34
sS'filename'
p35
S"'/Users/excon/Sites/dreamscape/applications/welcome/controllers/default.py'"
p36
sS'lineno'
p37
S'24'
p38
sS'msg'
p39
S"'unexpected indent'"
p40
sS'__doc__'
p41
S"'Improper indentation.'"
p42
sS'__getitem__'
p43
S"<method-wrapper '__getitem__' of exceptions.IndentationError object at 0x1015fc6e0>"
p44
sS'__setstate__'
p45
S'<built-in method __setstate__ of exceptions.IndentationError object at 0x1015fc6e0>'
p46
sS'__getattribute__'
p47
S"<method-wrapper '__getattribute__' of exceptions.IndentationError object at 0x1015fc6e0>"
p48
sS'print_file_and_line'
p49
S'None'
p50
sS'args'
p51
S'(\'unexpected indent\', (\'/Users/excon/Sites/dreamscape/applications/welcome/controllers/default.py\', 24, 12, "            INPUT(_name=\'email\', requires=IS_EMAIL(error_message=\'Invalid email\')),\\n"))'
p52
sS'__subclasshook__'
p53
S'<built-in method __subclasshook__ of type object at 0x10011bcc0>'
p54
sS'offset'
p55
S'12'
p56
sS'__unicode__'
p57
S'<built-in method __unicode__ of exceptions.IndentationError object at 0x1015fc6e0>'
p58
sS'__delattr__'
p59
S"<method-wrapper '__delattr__' of exceptions.IndentationError object at 0x1015fc6e0>"
p60
sS'__repr__'
p61
S"<method-wrapper '__repr__' of exceptions.IndentationError object at 0x1015fc6e0>"
p62
sS'__hash__'
p63
S"<method-wrapper '__hash__' of exceptions.IndentationError object at 0x1015fc6e0>"
p64
ssS'evalue'
p65
S'unexpected indent (default.py, line 24)'
p66
sS'request'
p67
ccopy_reg
_reconstructor
p68
(cgluon.html
BEAUTIFY
p69
c__builtin__
object
p70
NtRp71
(dp72
S'attributes'
p73
(dp74
sS'components'
p75
(lp76
g68
(cgluon.html
TABLE
p77
g70
NtRp78
(dp79
g73
(dp80
S'level'
p81
I5
ssS'parent'
p82
Nsg75
(lp83
g68
(cgluon.html
TR
p84
g70
NtRp85
(dp86
g73
(dp87
sg82
g78
sg75
(lp88
g68
(cgluon.html
TD
p89
g70
NtRp90
(dp91
g73
(dp92
S'_style'
p93
S'font-weight:bold;'
p94
ssg82
g85
sg75
(lp95
S'ajax'
p96
asbag68
(g89
g70
NtRp97
(dp98
g73
(dp99
S'_valign'
p100
S'top'
p101
ssg82
g85
sg75
(lp102
S':'
asbag68
(g89
g70
NtRp103
(dp104
g73
(dp105
sg82
g85
sg75
(lp106
g68
(g69
g70
NtRp107
(dp108
g73
(dp109
g81
I5
ssg82
g103
sg75
(lp110
S'False'
p111
asbasbasbag68
(g84
g70
NtRp112
(dp113
g73
(dp114
sg82
g78
sg75
(lp115
g68
(g89
g70
NtRp116
(dp117
g73
(dp118
g93
g94
ssg82
g112
sg75
(lp119
S'application'
p120
asbag68
(g89
g70
NtRp121
(dp122
g73
(dp123
g100
g101
ssg82
g112
sg75
(lp124
S':'
asbag68
(g89
g70
NtRp125
(dp126
g73
(dp127
sg82
g112
sg75
(lp128
g68
(g69
g70
NtRp129
(dp130
g73
(dp131
g81
I5
ssg82
g125
sg75
(lp132
S'welcome'
p133
asbasbasbag68
(g84
g70
NtRp134
(dp135
g73
(dp136
sg82
g78
sg75
(lp137
g68
(g89
g70
NtRp138
(dp139
g73
(dp140
g93
g94
ssg82
g134
sg75
(lp141
g51
asbag68
(g89
g70
NtRp142
(dp143
g73
(dp144
g100
g101
ssg82
g134
sg75
(lp145
S':'
asbag68
(g89
g70
NtRp146
(dp147
g73
(dp148
sg82
g134
sg75
(lp149
g68
(g69
g70
NtRp150
(dp151
g73
(dp152
g81
I5
ssg82
g146
sg75
(lp153
g68
(g77
g70
NtRp154
(dp155
g73
(dp156
g81
I4
ssg82
Nsg75
(lp157
sbasbasbasbag68
(g84
g70
NtRp158
(dp159
g73
(dp160
sg82
g78
sg75
(lp161
g68
(g89
g70
NtRp162
(dp163
g73
(dp164
g93
g94
ssg82
g158
sg75
(lp165
S'body'
p166
asbag68
(g89
g70
NtRp167
(dp168
g73
(dp169
g100
g101
ssg82
g158
sg75
(lp170
S':'
asbag68
(g89
g70
NtRp171
(dp172
g73
(dp173
sg82
g158
sg75
(lp174
g68
(g69
g70
NtRp175
(dp176
g73
(dp177
g81
I5
ssg82
g171
sg75
(lp178
S"<open file '<fdopen>', mode 'w+b' at 0x1015dad78>"
p179
asbasbasbag68
(g84
g70
NtRp180
(dp181
g73
(dp182
sg82
g78
sg75
(lp183
g68
(g89
g70
NtRp184
(dp185
g73
(dp186
g93
g94
ssg82
g180
sg75
(lp187
S'client'
p188
asbag68
(g89
g70
NtRp189
(dp190
g73
(dp191
g100
g101
ssg82
g180
sg75
(lp192
S':'
asbag68
(g89
g70
NtRp193
(dp194
g73
(dp195
sg82
g180
sg75
(lp196
g68
(g69
g70
NtRp197
(dp198
g73
(dp199
g81
I5
ssg82
g193
sg75
(lp200
S'127.0.0.1'
p201
asbasbasbag68
(g84
g70
NtRp202
(dp203
g73
(dp204
sg82
g78
sg75
(lp205
g68
(g89
g70
NtRp206
(dp207
g73
(dp208
g93
g94
ssg82
g202
sg75
(lp209
S'controller'
p210
asbag68
(g89
g70
NtRp211
(dp212
g73
(dp213
g100
g101
ssg82
g202
sg75
(lp214
S':'
asbag68
(g89
g70
NtRp215
(dp216
g73
(dp217
sg82
g202
sg75
(lp218
g68
(g69
g70
NtRp219
(dp220
g73
(dp221
g81
I5
ssg82
g215
sg75
(lp222
S'default'
p223
asbasbasbag68
(g84
g70
NtRp224
(dp225
g73
(dp226
sg82
g78
sg75
(lp227
g68
(g89
g70
NtRp228
(dp229
g73
(dp230
g93
g94
ssg82
g224
sg75
(lp231
S'cookies'
p232
asbag68
(g89
g70
NtRp233
(dp234
g73
(dp235
g100
g101
ssg82
g224
sg75
(lp236
S':'
asbag68
(g89
g70
NtRp237
(dp238
g73
(dp239
sg82
g224
sg75
(lp240
g68
(g69
g70
NtRp241
(dp242
g73
(dp243
g81
I5
ssg82
g237
sg75
(lp244
g68
(g77
g70
NtRp245
(dp246
g73
(dp247
g81
I4
ssg82
Nsg75
(lp248
g68
(g84
g70
NtRp249
(dp250
g73
(dp251
sg82
g245
sg75
(lp252
g68
(g89
g70
NtRp253
(dp254
g73
(dp255
g93
g94
ssg82
g249
sg75
(lp256
S'session_id_welcome'
p257
asbag68
(g89
g70
NtRp258
(dp259
g73
(dp260
g100
g101
ssg82
g249
sg75
(lp261
S':'
asbag68
(g89
g70
NtRp262
(dp263
g73
(dp264
sg82
g249
sg75
(lp265
g68
(g69
g70
NtRp266
(dp267
g73
(dp268
g81
I4
ssg82
g262
sg75
(lp269
g68
(g77
g70
NtRp270
(dp271
g73
(dp272
g81
I3
ssg82
Nsg75
(lp273
g68
(g84
g70
NtRp274
(dp275
g73
(dp276
sg82
g270
sg75
(lp277
g68
(g89
g70
NtRp278
(dp279
g73
(dp280
g93
g94
ssg82
g274
sg75
(lp281
S'comment'
p282
asbag68
(g89
g70
NtRp283
(dp284
g73
(dp285
g100
g101
ssg82
g274
sg75
(lp286
S':'
asbag68
(g89
g70
NtRp287
(dp288
g73
(dp289
sg82
g274
sg75
(lp290
g68
(g69
g70
NtRp291
(dp292
g73
(dp293
g81
I3
ssg82
g287
sg75
(lp294
S''
asbasbasbag68
(g84
g70
NtRp295
(dp296
g73
(dp297
sg82
g270
sg75
(lp298
g68
(g89
g70
NtRp299
(dp300
g73
(dp301
g93
g94
ssg82
g295
sg75
(lp302
S'domain'
p303
asbag68
(g89
g70
NtRp304
(dp305
g73
(dp306
g100
g101
ssg82
g295
sg75
(lp307
S':'
asbag68
(g89
g70
NtRp308
(dp309
g73
(dp310
sg82
g295
sg75
(lp311
g68
(g69
g70
NtRp312
(dp313
g73
(dp314
g81
I3
ssg82
g308
sg75
(lp315
S''
asbasbasbag68
(g84
g70
NtRp316
(dp317
g73
(dp318
sg82
g270
sg75
(lp319
g68
(g89
g70
NtRp320
(dp321
g73
(dp322
g93
g94
ssg82
g316
sg75
(lp323
S'expires'
p324
asbag68
(g89
g70
NtRp325
(dp326
g73
(dp327
g100
g101
ssg82
g316
sg75
(lp328
S':'
asbag68
(g89
g70
NtRp329
(dp330
g73
(dp331
sg82
g316
sg75
(lp332
g68
(g69
g70
NtRp333
(dp334
g73
(dp335
g81
I3
ssg82
g329
sg75
(lp336
S''
asbasbasbag68
(g84
g70
NtRp337
(dp338
g73
(dp339
sg82
g270
sg75
(lp340
g68
(g89
g70
NtRp341
(dp342
g73
(dp343
g93
g94
ssg82
g337
sg75
(lp344
S'httponly'
p345
asbag68
(g89
g70
NtRp346
(dp347
g73
(dp348
g100
g101
ssg82
g337
sg75
(lp349
S':'
asbag68
(g89
g70
NtRp350
(dp351
g73
(dp352
sg82
g337
sg75
(lp353
g68
(g69
g70
NtRp354
(dp355
g73
(dp356
g81
I3
ssg82
g350
sg75
(lp357
S''
asbasbasbag68
(g84
g70
NtRp358
(dp359
g73
(dp360
sg82
g270
sg75
(lp361
g68
(g89
g70
NtRp362
(dp363
g73
(dp364
g93
g94
ssg82
g358
sg75
(lp365
S'max-age'
p366
asbag68
(g89
g70
NtRp367
(dp368
g73
(dp369
g100
g101
ssg82
g358
sg75
(lp370
S':'
asbag68
(g89
g70
NtRp371
(dp372
g73
(dp373
sg82
g358
sg75
(lp374
g68
(g69
g70
NtRp375
(dp376
g73
(dp377
g81
I3
ssg82
g371
sg75
(lp378
S''
asbasbasbag68
(g84
g70
NtRp379
(dp380
g73
(dp381
sg82
g270
sg75
(lp382
g68
(g89
g70
NtRp383
(dp384
g73
(dp385
g93
g94
ssg82
g379
sg75
(lp386
S'path'
p387
asbag68
(g89
g70
NtRp388
(dp389
g73
(dp390
g100
g101
ssg82
g379
sg75
(lp391
S':'
asbag68
(g89
g70
NtRp392
(dp393
g73
(dp394
sg82
g379
sg75
(lp395
g68
(g69
g70
NtRp396
(dp397
g73
(dp398
g81
I3
ssg82
g392
sg75
(lp399
S''
asbasbasbag68
(g84
g70
NtRp400
(dp401
g73
(dp402
sg82
g270
sg75
(lp403
g68
(g89
g70
NtRp404
(dp405
g73
(dp406
g93
g94
ssg82
g400
sg75
(lp407
S'secure'
p408
asbag68
(g89
g70
NtRp409
(dp410
g73
(dp411
g100
g101
ssg82
g400
sg75
(lp412
S':'
asbag68
(g89
g70
NtRp413
(dp414
g73
(dp415
sg82
g400
sg75
(lp416
g68
(g69
g70
NtRp417
(dp418
g73
(dp419
g81
I3
ssg82
g413
sg75
(lp420
S''
asbasbasbag68
(g84
g70
NtRp421
(dp422
g73
(dp423
sg82
g270
sg75
(lp424
g68
(g89
g70
NtRp425
(dp426
g73
(dp427
g93
g94
ssg82
g421
sg75
(lp428
S'version'
p429
asbag68
(g89
g70
NtRp430
(dp431
g73
(dp432
g100
g101
ssg82
g421
sg75
(lp433
S':'
asbag68
(g89
g70
NtRp434
(dp435
g73
(dp436
sg82
g421
sg75
(lp437
g68
(g69
g70
NtRp438
(dp439
g73
(dp440
g81
I3
ssg82
g434
sg75
(lp441
S''
asbasbasbasbasbasbasbasbasbasbasbag68
(g84
g70
NtRp442
(dp443
g73
(dp444
sg82
g78
sg75
(lp445
g68
(g89
g70
NtRp446
(dp447
g73
(dp448
g93
g94
ssg82
g442
sg75
(lp449
S'env'
p450
asbag68
(g89
g70
NtRp451
(dp452
g73
(dp453
g100
g101
ssg82
g442
sg75
(lp454
S':'
asbag68
(g89
g70
NtRp455
(dp456
g73
(dp457
sg82
g442
sg75
(lp458
g68
(g69
g70
NtRp459
(dp460
g73
(dp461
g81
I5
ssg82
g455
sg75
(lp462
g68
(g77
g70
NtRp463
(dp464
g73
(dp465
g81
I4
ssg82
Nsg75
(lp466
g68
(g84
g70
NtRp467
(dp468
g73
(dp469
sg82
g463
sg75
(lp470
g68
(g89
g70
NtRp471
(dp472
g73
(dp473
g93
g94
ssg82
g467
sg75
(lp474
S'app_folders'
p475
asbag68
(g89
g70
NtRp476
(dp477
g73
(dp478
g100
g101
ssg82
g467
sg75
(lp479
S':'
asbag68
(g89
g70
NtRp480
(dp481
g73
(dp482
sg82
g467
sg75
(lp483
g68
(g69
g70
NtRp484
(dp485
g73
(dp486
g81
I4
ssg82
g480
sg75
(lp487
S"set(['/Users/excon/Sites/dreamscape/applications/welcome/'])"
p488
asbasbasbag68
(g84
g70
NtRp489
(dp490
g73
(dp491
sg82
g463
sg75
(lp492
g68
(g89
g70
NtRp493
(dp494
g73
(dp495
g93
g94
ssg82
g489
sg75
(lp496
S'applications_parent'
p497
asbag68
(g89
g70
NtRp498
(dp499
g73
(dp500
g100
g101
ssg82
g489
sg75
(lp501
S':'
asbag68
(g89
g70
NtRp502
(dp503
g73
(dp504
sg82
g489
sg75
(lp505
g68
(g69
g70
NtRp506
(dp507
g73
(dp508
g81
I4
ssg82
g502
sg75
(lp509
S'/Users/excon/Sites/dreamscape'
p510
asbasbasbag68
(g84
g70
NtRp511
(dp512
g73
(dp513
sg82
g463
sg75
(lp514
g68
(g89
g70
NtRp515
(dp516
g73
(dp517
g93
g94
ssg82
g511
sg75
(lp518
S'cmd_args'
p519
asbag68
(g89
g70
NtRp520
(dp521
g73
(dp522
g100
g101
ssg82
g511
sg75
(lp523
S':'
asbag68
(g89
g70
NtRp524
(dp525
g73
(dp526
sg82
g511
sg75
(lp527
g68
(g69
g70
NtRp528
(dp529
g73
(dp530
g81
I4
ssg82
g524
sg75
(lp531
g68
(g77
g70
NtRp532
(dp533
g73
(dp534
g81
I3
ssg82
Nsg75
(lp535
sbasbasbasbag68
(g84
g70
NtRp536
(dp537
g73
(dp538
sg82
g463
sg75
(lp539
g68
(g89
g70
NtRp540
(dp541
g73
(dp542
g93
g94
ssg82
g536
sg75
(lp543
S'cmd_options'
p544
asbag68
(g89
g70
NtRp545
(dp546
g73
(dp547
g100
g101
ssg82
g536
sg75
(lp548
S':'
asbag68
(g89
g70
NtRp549
(dp550
g73
(dp551
sg82
g536
sg75
(lp552
g68
(g69
g70
NtRp553
(dp554
g73
(dp555
g81
I4
ssg82
g549
sg75
(lp556
S"<Values at 0x101c08ea8: {'verbose': False, 'ip': '127.0.0.1', 'shutdown_timeout': 5, 'taskbar': False, 'nocron': False, 'pid_filename': 'httpserver.pid', 'maxthreads': None, 'softcron': False, 'server_name': 'dhcp-221-42.cruznet.ucsc.edu', 'bpython': False, 'nogui': False, 'port': 8000, 'extcron': False, 'debuglevel': 30, 'test': None, 'folder': '/Users/excon/Sites/dreamscape', 'config': '', 'import_models': False, 'winservice': '', 'shell': None, 'run': '', 'log_filename': 'httpserver.log', 'args': [''], 'ssl_ca_certificate': None, 'scheduler': None, 'profiler_filename': None, 'ssl_private_key': '', 'password': '<ask>', 'request_queue_size': 5, 'ssl_certificate': '', 'cronjob': False, 'plain': False, 'quiet': False, 'interfaces': None, 'minthreads': None, 'timeout': 10, 'numthreads': None, 'nobanner': False}>"
p557
asbasbasbag68
(g84
g70
NtRp558
(dp559
g73
(dp560
sg82
g463
sg75
(lp561
g68
(g89
g70
NtRp562
(dp563
g73
(dp564
g93
g94
ssg82
g558
sg75
(lp565
S'content_length'
p566
asbag68
(g89
g70
NtRp567
(dp568
g73
(dp569
g100
g101
ssg82
g558
sg75
(lp570
S':'
asbag68
(g89
g70
NtRp571
(dp572
g73
(dp573
sg82
g558
sg75
(lp574
g68
(g69
g70
NtRp575
(dp576
g73
(dp577
g81
I4
ssg82
g571
sg75
(lp578
S'450'
p579
asbasbasbag68
(g84
g70
NtRp580
(dp581
g73
(dp582
sg82
g463
sg75
(lp583
g68
(g89
g70
NtRp584
(dp585
g73
(dp586
g93
g94
ssg82
g580
sg75
(lp587
S'content_type'
p588
asbag68
(g89
g70
NtRp589
(dp590
g73
(dp591
g100
g101
ssg82
g580
sg75
(lp592
S':'
asbag68
(g89
g70
NtRp593
(dp594
g73
(dp595
sg82
g580
sg75
(lp596
g68
(g69
g70
NtRp597
(dp598
g73
(dp599
g81
I4
ssg82
g593
sg75
(lp600
S'multipart/form-data; boundary=---------------------------1019292671580723810704877633'
p601
asbasbasbag68
(g84
g70
NtRp602
(dp603
g73
(dp604
sg82
g463
sg75
(lp605
g68
(g89
g70
NtRp606
(dp607
g73
(dp608
g93
g94
ssg82
g602
sg75
(lp609
S'db_sessions'
p610
asbag68
(g89
g70
NtRp611
(dp612
g73
(dp613
g100
g101
ssg82
g602
sg75
(lp614
S':'
asbag68
(g89
g70
NtRp615
(dp616
g73
(dp617
sg82
g602
sg75
(lp618
g68
(g69
g70
NtRp619
(dp620
g73
(dp621
g81
I4
ssg82
g615
sg75
(lp622
S'set([])'
p623
asbasbasbag68
(g84
g70
NtRp624
(dp625
g73
(dp626
sg82
g463
sg75
(lp627
g68
(g89
g70
NtRp628
(dp629
g73
(dp630
g93
g94
ssg82
g624
sg75
(lp631
S'debugging'
p632
asbag68
(g89
g70
NtRp633
(dp634
g73
(dp635
g100
g101
ssg82
g624
sg75
(lp636
S':'
asbag68
(g89
g70
NtRp637
(dp638
g73
(dp639
sg82
g624
sg75
(lp640
g68
(g69
g70
NtRp641
(dp642
g73
(dp643
g81
I4
ssg82
g637
sg75
(lp644
g111
asbasbasbag68
(g84
g70
NtRp645
(dp646
g73
(dp647
sg82
g463
sg75
(lp648
g68
(g89
g70
NtRp649
(dp650
g73
(dp651
g93
g94
ssg82
g645
sg75
(lp652
S'gluon_parent'
p653
asbag68
(g89
g70
NtRp654
(dp655
g73
(dp656
g100
g101
ssg82
g645
sg75
(lp657
S':'
asbag68
(g89
g70
NtRp658
(dp659
g73
(dp660
sg82
g645
sg75
(lp661
g68
(g69
g70
NtRp662
(dp663
g73
(dp664
g81
I4
ssg82
g658
sg75
(lp665
S'/Users/excon/Sites/dreamscape'
p666
asbasbasbag68
(g84
g70
NtRp667
(dp668
g73
(dp669
sg82
g463
sg75
(lp670
g68
(g89
g70
NtRp671
(dp672
g73
(dp673
g93
g94
ssg82
g667
sg75
(lp674
S'http_accept'
p675
asbag68
(g89
g70
NtRp676
(dp677
g73
(dp678
g100
g101
ssg82
g667
sg75
(lp679
S':'
asbag68
(g89
g70
NtRp680
(dp681
g73
(dp682
sg82
g667
sg75
(lp683
g68
(g69
g70
NtRp684
(dp685
g73
(dp686
g81
I4
ssg82
g680
sg75
(lp687
S'text/html,application/xhtml+xml,application/xml;q=0.9,*/*;q=0.8'
p688
asbasbasbag68
(g84
g70
NtRp689
(dp690
g73
(dp691
sg82
g463
sg75
(lp692
g68
(g89
g70
NtRp693
(dp694
g73
(dp695
g93
g94
ssg82
g689
sg75
(lp696
S'http_accept_charset'
p697
asbag68
(g89
g70
NtRp698
(dp699
g73
(dp700
g100
g101
ssg82
g689
sg75
(lp701
S':'
asbag68
(g89
g70
NtRp702
(dp703
g73
(dp704
sg82
g689
sg75
(lp705
g68
(g69
g70
NtRp706
(dp707
g73
(dp708
g81
I4
ssg82
g702
sg75
(lp709
S'ISO-8859-1,utf-8;q=0.7,*;q=0.7'
p710
asbasbasbag68
(g84
g70
NtRp711
(dp712
g73
(dp713
sg82
g463
sg75
(lp714
g68
(g89
g70
NtRp715
(dp716
g73
(dp717
g93
g94
ssg82
g711
sg75
(lp718
S'http_accept_encoding'
p719
asbag68
(g89
g70
NtRp720
(dp721
g73
(dp722
g100
g101
ssg82
g711
sg75
(lp723
S':'
asbag68
(g89
g70
NtRp724
(dp725
g73
(dp726
sg82
g711
sg75
(lp727
g68
(g69
g70
NtRp728
(dp729
g73
(dp730
g81
I4
ssg82
g724
sg75
(lp731
S'gzip, deflate'
p732
asbasbasbag68
(g84
g70
NtRp733
(dp734
g73
(dp735
sg82
g463
sg75
(lp736
g68
(g89
g70
NtRp737
(dp738
g73
(dp739
g93
g94
ssg82
g733
sg75
(lp740
S'http_accept_language'
p741
asbag68
(g89
g70
NtRp742
(dp743
g73
(dp744
g100
g101
ssg82
g733
sg75
(lp745
S':'
asbag68
(g89
g70
NtRp746
(dp747
g73
(dp748
sg82
g733
sg75
(lp749
g68
(g69
g70
NtRp750
(dp751
g73
(dp752
g81
I4
ssg82
g746
sg75
(lp753
S'en-us,en;q=0.5'
p754
asbasbasbag68
(g84
g70
NtRp755
(dp756
g73
(dp757
sg82
g463
sg75
(lp758
g68
(g89
g70
NtRp759
(dp760
g73
(dp761
g93
g94
ssg82
g755
sg75
(lp762
S'http_cache_control'
p763
asbag68
(g89
g70
NtRp764
(dp765
g73
(dp766
g100
g101
ssg82
g755
sg75
(lp767
S':'
asbag68
(g89
g70
NtRp768
(dp769
g73
(dp770
sg82
g755
sg75
(lp771
g68
(g69
g70
NtRp772
(dp773
g73
(dp774
g81
I4
ssg82
g768
sg75
(lp775
S'max-age=0'
p776
asbasbasbag68
(g84
g70
NtRp777
(dp778
g73
(dp779
sg82
g463
sg75
(lp780
g68
(g89
g70
NtRp781
(dp782
g73
(dp783
g93
g94
ssg82
g777
sg75
(lp784
S'http_connection'
p785
asbag68
(g89
g70
NtRp786
(dp787
g73
(dp788
g100
g101
ssg82
g777
sg75
(lp789
S':'
asbag68
(g89
g70
NtRp790
(dp791
g73
(dp792
sg82
g777
sg75
(lp793
g68
(g69
g70
NtRp794
(dp795
g73
(dp796
g81
I4
ssg82
g790
sg75
(lp797
S'keep-alive'
p798
asbasbasbag68
(g84
g70
NtRp799
(dp800
g73
(dp801
sg82
g463
sg75
(lp802
g68
(g89
g70
NtRp803
(dp804
g73
(dp805
g93
g94
ssg82
g799
sg75
(lp806
S'http_content_length'
p807
asbag68
(g89
g70
NtRp808
(dp809
g73
(dp810
g100
g101
ssg82
g799
sg75
(lp811
S':'
asbag68
(g89
g70
NtRp812
(dp813
g73
(dp814
sg82
g799
sg75
(lp815
g68
(g69
g70
NtRp816
(dp817
g73
(dp818
g81
I4
ssg82
g812
sg75
(lp819
g579
asbasbasbag68
(g84
g70
NtRp820
(dp821
g73
(dp822
sg82
g463
sg75
(lp823
g68
(g89
g70
NtRp824
(dp825
g73
(dp826
g93
g94
ssg82
g820
sg75
(lp827
S'http_content_type'
p828
asbag68
(g89
g70
NtRp829
(dp830
g73
(dp831
g100
g101
ssg82
g820
sg75
(lp832
S':'
asbag68
(g89
g70
NtRp833
(dp834
g73
(dp835
sg82
g820
sg75
(lp836
g68
(g69
g70
NtRp837
(dp838
g73
(dp839
g81
I4
ssg82
g833
sg75
(lp840
g601
asbasbasbag68
(g84
g70
NtRp841
(dp842
g73
(dp843
sg82
g463
sg75
(lp844
g68
(g89
g70
NtRp845
(dp846
g73
(dp847
g93
g94
ssg82
g841
sg75
(lp848
S'http_cookie'
p849
asbag68
(g89
g70
NtRp850
(dp851
g73
(dp852
g100
g101
ssg82
g841
sg75
(lp853
S':'
asbag68
(g89
g70
NtRp854
(dp855
g73
(dp856
sg82
g841
sg75
(lp857
g68
(g69
g70
NtRp858
(dp859
g73
(dp860
g81
I4
ssg82
g854
sg75
(lp861
S'session_id_welcome=127.0.0.1-fa074673-8daf-4dec-b123-b27e79f60a94'
p862
asbasbasbag68
(g84
g70
NtRp863
(dp864
g73
(dp865
sg82
g463
sg75
(lp866
g68
(g89
g70
NtRp867
(dp868
g73
(dp869
g93
g94
ssg82
g863
sg75
(lp870
S'http_host'
p871
asbag68
(g89
g70
NtRp872
(dp873
g73
(dp874
g100
g101
ssg82
g863
sg75
(lp875
S':'
asbag68
(g89
g70
NtRp876
(dp877
g73
(dp878
sg82
g863
sg75
(lp879
g68
(g69
g70
NtRp880
(dp881
g73
(dp882
g81
I4
ssg82
g876
sg75
(lp883
S'127.0.0.1:8000'
p884
asbasbasbag68
(g84
g70
NtRp885
(dp886
g73
(dp887
sg82
g463
sg75
(lp888
g68
(g89
g70
NtRp889
(dp890
g73
(dp891
g93
g94
ssg82
g885
sg75
(lp892
S'http_referer'
p893
asbag68
(g89
g70
NtRp894
(dp895
g73
(dp896
g100
g101
ssg82
g885
sg75
(lp897
S':'
asbag68
(g89
g70
NtRp898
(dp899
g73
(dp900
sg82
g885
sg75
(lp901
g68
(g69
g70
NtRp902
(dp903
g73
(dp904
g81
I4
ssg82
g898
sg75
(lp905
S'http://127.0.0.1:8000/welcome/default/coming_soon'
p906
asbasbasbag68
(g84
g70
NtRp907
(dp908
g73
(dp909
sg82
g463
sg75
(lp910
g68
(g89
g70
NtRp911
(dp912
g73
(dp913
g93
g94
ssg82
g907
sg75
(lp914
S'http_user_agent'
p915
asbag68
(g89
g70
NtRp916
(dp917
g73
(dp918
g100
g101
ssg82
g907
sg75
(lp919
S':'
asbag68
(g89
g70
NtRp920
(dp921
g73
(dp922
sg82
g907
sg75
(lp923
g68
(g69
g70
NtRp924
(dp925
g73
(dp926
g81
I4
ssg82
g920
sg75
(lp927
S'Mozilla/5.0 (Macintosh; Intel Mac OS X 10.6; rv:6.0.2) Gecko/20100101 Firefox/6.0.2'
p928
asbasbasbag68
(g84
g70
NtRp929
(dp930
g73
(dp931
sg82
g463
sg75
(lp932
g68
(g89
g70
NtRp933
(dp934
g73
(dp935
g93
g94
ssg82
g929
sg75
(lp936
S'is_jython'
p937
asbag68
(g89
g70
NtRp938
(dp939
g73
(dp940
g100
g101
ssg82
g929
sg75
(lp941
S':'
asbag68
(g89
g70
NtRp942
(dp943
g73
(dp944
sg82
g929
sg75
(lp945
g68
(g69
g70
NtRp946
(dp947
g73
(dp948
g81
I4
ssg82
g942
sg75
(lp949
g111
asbasbasbag68
(g84
g70
NtRp950
(dp951
g73
(dp952
sg82
g463
sg75
(lp953
g68
(g89
g70
NtRp954
(dp955
g73
(dp956
g93
g94
ssg82
g950
sg75
(lp957
S'path_info'
p958
asbag68
(g89
g70
NtRp959
(dp960
g73
(dp961
g100
g101
ssg82
g950
sg75
(lp962
S':'
asbag68
(g89
g70
NtRp963
(dp964
g73
(dp965
sg82
g950
sg75
(lp966
g68
(g69
g70
NtRp967
(dp968
g73
(dp969
g81
I4
ssg82
g963
sg75
(lp970
S'/welcome/default/coming_soon'
p971
asbasbasbag68
(g84
g70
NtRp972
(dp973
g73
(dp974
sg82
g463
sg75
(lp975
g68
(g89
g70
NtRp976
(dp977
g73
(dp978
g93
g94
ssg82
g972
sg75
(lp979
S'query_string'
p980
asbag68
(g89
g70
NtRp981
(dp982
g73
(dp983
g100
g101
ssg82
g972
sg75
(lp984
S':'
asbag68
(g89
g70
NtRp985
(dp986
g73
(dp987
sg82
g972
sg75
(lp988
g68
(g69
g70
NtRp989
(dp990
g73
(dp991
g81
I4
ssg82
g985
sg75
(lp992
S''
asbasbasbag68
(g84
g70
NtRp993
(dp994
g73
(dp995
sg82
g463
sg75
(lp996
g68
(g89
g70
NtRp997
(dp998
g73
(dp999
g93
g94
ssg82
g993
sg75
(lp1000
S'remote_addr'
p1001
asbag68
(g89
g70
NtRp1002
(dp1003
g73
(dp1004
g100
g101
ssg82
g993
sg75
(lp1005
S':'
asbag68
(g89
g70
NtRp1006
(dp1007
g73
(dp1008
sg82
g993
sg75
(lp1009
g68
(g69
g70
NtRp1010
(dp1011
g73
(dp1012
g81
I4
ssg82
g1006
sg75
(lp1013
g201
asbasbasbag68
(g84
g70
NtRp1014
(dp1015
g73
(dp1016
sg82
g463
sg75
(lp1017
g68
(g89
g70
NtRp1018
(dp1019
g73
(dp1020
g93
g94
ssg82
g1014
sg75
(lp1021
S'remote_port'
p1022
asbag68
(g89
g70
NtRp1023
(dp1024
g73
(dp1025
g100
g101
ssg82
g1014
sg75
(lp1026
S':'
asbag68
(g89
g70
NtRp1027
(dp1028
g73
(dp1029
sg82
g1014
sg75
(lp1030
g68
(g69
g70
NtRp1031
(dp1032
g73
(dp1033
g81
I4
ssg82
g1027
sg75
(lp1034
S'50360'
p1035
asbasbasbag68
(g84
g70
NtRp1036
(dp1037
g73
(dp1038
sg82
g463
sg75
(lp1039
g68
(g89
g70
NtRp1040
(dp1041
g73
(dp1042
g93
g94
ssg82
g1036
sg75
(lp1043
S'request_method'
p1044
asbag68
(g89
g70
NtRp1045
(dp1046
g73
(dp1047
g100
g101
ssg82
g1036
sg75
(lp1048
S':'
asbag68
(g89
g70
NtRp1049
(dp1050
g73
(dp1051
sg82
g1036
sg75
(lp1052
g68
(g69
g70
NtRp1053
(dp1054
g73
(dp1055
g81
I4
ssg82
g1049
sg75
(lp1056
S'POST'
p1057
asbasbasbag68
(g84
g70
NtRp1058
(dp1059
g73
(dp1060
sg82
g463
sg75
(lp1061
g68
(g89
g70
NtRp1062
(dp1063
g73
(dp1064
g93
g94
ssg82
g1058
sg75
(lp1065
S'script_name'
p1066
asbag68
(g89
g70
NtRp1067
(dp1068
g73
(dp1069
g100
g101
ssg82
g1058
sg75
(lp1070
S':'
asbag68
(g89
g70
NtRp1071
(dp1072
g73
(dp1073
sg82
g1058
sg75
(lp1074
g68
(g69
g70
NtRp1075
(dp1076
g73
(dp1077
g81
I4
ssg82
g1071
sg75
(lp1078
S''
asbasbasbag68
(g84
g70
NtRp1079
(dp1080
g73
(dp1081
sg82
g463
sg75
(lp1082
g68
(g89
g70
NtRp1083
(dp1084
g73
(dp1085
g93
g94
ssg82
g1079
sg75
(lp1086
S'server_name'
p1087
asbag68
(g89
g70
NtRp1088
(dp1089
g73
(dp1090
g100
g101
ssg82
g1079
sg75
(lp1091
S':'
asbag68
(g89
g70
NtRp1092
(dp1093
g73
(dp1094
sg82
g1079
sg75
(lp1095
g68
(g69
g70
NtRp1096
(dp1097
g73
(dp1098
g81
I4
ssg82
g1092
sg75
(lp1099
S'dhcp-221-42.cruznet.ucsc.edu'
p1100
asbasbasbag68
(g84
g70
NtRp1101
(dp1102
g73
(dp1103
sg82
g463
sg75
(lp1104
g68
(g89
g70
NtRp1105
(dp1106
g73
(dp1107
g93
g94
ssg82
g1101
sg75
(lp1108
S'server_port'
p1109
asbag68
(g89
g70
NtRp1110
(dp1111
g73
(dp1112
g100
g101
ssg82
g1101
sg75
(lp1113
S':'
asbag68
(g89
g70
NtRp1114
(dp1115
g73
(dp1116
sg82
g1101
sg75
(lp1117
g68
(g69
g70
NtRp1118
(dp1119
g73
(dp1120
g81
I4
ssg82
g1114
sg75
(lp1121
S'8000'
p1122
asbasbasbag68
(g84
g70
NtRp1123
(dp1124
g73
(dp1125
sg82
g463
sg75
(lp1126
g68
(g89
g70
NtRp1127
(dp1128
g73
(dp1129
g93
g94
ssg82
g1123
sg75
(lp1130
S'server_protocol'
p1131
asbag68
(g89
g70
NtRp1132
(dp1133
g73
(dp1134
g100
g101
ssg82
g1123
sg75
(lp1135
S':'
asbag68
(g89
g70
NtRp1136
(dp1137
g73
(dp1138
sg82
g1123
sg75
(lp1139
g68
(g69
g70
NtRp1140
(dp1141
g73
(dp1142
g81
I4
ssg82
g1136
sg75
(lp1143
S'HTTP/1.1'
p1144
asbasbasbag68
(g84
g70
NtRp1145
(dp1146
g73
(dp1147
sg82
g463
sg75
(lp1148
g68
(g89
g70
NtRp1149
(dp1150
g73
(dp1151
g93
g94
ssg82
g1145
sg75
(lp1152
S'server_software'
p1153
asbag68
(g89
g70
NtRp1154
(dp1155
g73
(dp1156
g100
g101
ssg82
g1145
sg75
(lp1157
S':'
asbag68
(g89
g70
NtRp1158
(dp1159
g73
(dp1160
sg82
g1145
sg75
(lp1161
g68
(g69
g70
NtRp1162
(dp1163
g73
(dp1164
g81
I4
ssg82
g1158
sg75
(lp1165
S'Rocket 1.2.4'
p1166
asbasbasbag68
(g84
g70
NtRp1167
(dp1168
g73
(dp1169
sg82
g463
sg75
(lp1170
g68
(g89
g70
NtRp1171
(dp1172
g73
(dp1173
g93
g94
ssg82
g1167
sg75
(lp1174
S'web2py_crontype'
p1175
asbag68
(g89
g70
NtRp1176
(dp1177
g73
(dp1178
g100
g101
ssg82
g1167
sg75
(lp1179
S':'
asbag68
(g89
g70
NtRp1180
(dp1181
g73
(dp1182
sg82
g1167
sg75
(lp1183
g68
(g69
g70
NtRp1184
(dp1185
g73
(dp1186
g81
I4
ssg82
g1180
sg75
(lp1187
S'hard'
p1188
asbasbasbag68
(g84
g70
NtRp1189
(dp1190
g73
(dp1191
sg82
g463
sg75
(lp1192
g68
(g89
g70
NtRp1193
(dp1194
g73
(dp1195
g93
g94
ssg82
g1189
sg75
(lp1196
S'web2py_path'
p1197
asbag68
(g89
g70
NtRp1198
(dp1199
g73
(dp1200
g100
g101
ssg82
g1189
sg75
(lp1201
S':'
asbag68
(g89
g70
NtRp1202
(dp1203
g73
(dp1204
sg82
g1189
sg75
(lp1205
g68
(g69
g70
NtRp1206
(dp1207
g73
(dp1208
g81
I4
ssg82
g1202
sg75
(lp1209
g510
asbasbasbag68
(g84
g70
NtRp1210
(dp1211
g73
(dp1212
sg82
g463
sg75
(lp1213
g68
(g89
g70
NtRp1214
(dp1215
g73
(dp1216
g93
g94
ssg82
g1210
sg75
(lp1217
S'web2py_version'
p1218
asbag68
(g89
g70
NtRp1219
(dp1220
g73
(dp1221
g100
g101
ssg82
g1210
sg75
(lp1222
S':'
asbag68
(g89
g70
NtRp1223
(dp1224
g73
(dp1225
sg82
g1210
sg75
(lp1226
g68
(g69
g70
NtRp1227
(dp1228
g73
(dp1229
g81
I4
ssg82
g1223
sg75
(lp1230
g68
(g77
g70
NtRp1231
(dp1232
g73
(dp1233
g81
I3
ssg82
Nsg75
(lp1234
g68
(g84
g70
NtRp1235
(dp1236
g73
(dp1237
sg82
g1231
sg75
(lp1238
g68
(g89
g70
NtRp1239
(dp1240
g73
(dp1241
sg82
g1235
sg75
(lp1242
g68
(g69
g70
NtRp1243
(dp1244
g73
(dp1245
g81
I3
ssg82
g1239
sg75
(lp1246
S'1'
asbasbasbag68
(g84
g70
NtRp1247
(dp1248
g73
(dp1249
sg82
g1231
sg75
(lp1250
g68
(g89
g70
NtRp1251
(dp1252
g73
(dp1253
sg82
g1247
sg75
(lp1254
g68
(g69
g70
NtRp1255
(dp1256
g73
(dp1257
g81
I3
ssg82
g1251
sg75
(lp1258
S'99'
p1259
asbasbasbag68
(g84
g70
NtRp1260
(dp1261
g73
(dp1262
sg82
g1231
sg75
(lp1263
g68
(g89
g70
NtRp1264
(dp1265
g73
(dp1266
sg82
g1260
sg75
(lp1267
g68
(g69
g70
NtRp1268
(dp1269
g73
(dp1270
g81
I3
ssg82
g1264
sg75
(lp1271
S'2'
asbasbasbag68
(g84
g70
NtRp1272
(dp1273
g73
(dp1274
sg82
g1231
sg75
(lp1275
g68
(g89
g70
NtRp1276
(dp1277
g73
(dp1278
sg82
g1272
sg75
(lp1279
g68
(g69
g70
NtRp1280
(dp1281
g73
(dp1282
g81
I3
ssg82
g1276
sg75
(lp1283
S'datetime.datetime(2011, 9, 26, 6, 55, 33)'
p1284
asbasbasbag68
(g84
g70
NtRp1285
(dp1286
g73
(dp1287
sg82
g1231
sg75
(lp1288
g68
(g89
g70
NtRp1289
(dp1290
g73
(dp1291
sg82
g1285
sg75
(lp1292
g68
(g69
g70
NtRp1293
(dp1294
g73
(dp1295
g81
I3
ssg82
g1289
sg75
(lp1296
S'stable'
p1297
asbasbasbasbasbasbasbag68
(g84
g70
NtRp1298
(dp1299
g73
(dp1300
sg82
g463
sg75
(lp1301
g68
(g89
g70
NtRp1302
(dp1303
g73
(dp1304
g93
g94
ssg82
g1298
sg75
(lp1305
S'wsgi_errors'
p1306
asbag68
(g89
g70
NtRp1307
(dp1308
g73
(dp1309
g100
g101
ssg82
g1298
sg75
(lp1310
S':'
asbag68
(g89
g70
NtRp1311
(dp1312
g73
(dp1313
sg82
g1298
sg75
(lp1314
g68
(g69
g70
NtRp1315
(dp1316
g73
(dp1317
g81
I4
ssg82
g1311
sg75
(lp1318
S"<open file '<stderr>', mode 'w' at 0x100416140>"
p1319
asbasbasbag68
(g84
g70
NtRp1320
(dp1321
g73
(dp1322
sg82
g463
sg75
(lp1323
g68
(g89
g70
NtRp1324
(dp1325
g73
(dp1326
g93
g94
ssg82
g1320
sg75
(lp1327
S'wsgi_file_wrapper'
p1328
asbag68
(g89
g70
NtRp1329
(dp1330
g73
(dp1331
g100
g101
ssg82
g1320
sg75
(lp1332
S':'
asbag68
(g89
g70
NtRp1333
(dp1334
g73
(dp1335
sg82
g1320
sg75
(lp1336
g68
(g69
g70
NtRp1337
(dp1338
g73
(dp1339
g81
I4
ssg82
g1333
sg75
(lp1340
S'<class wsgiref.util.FileWrapper at 0x1014a1bf0>'
p1341
asbasbasbag68
(g84
g70
NtRp1342
(dp1343
g73
(dp1344
sg82
g463
sg75
(lp1345
g68
(g89
g70
NtRp1346
(dp1347
g73
(dp1348
g93
g94
ssg82
g1342
sg75
(lp1349
S'wsgi_input'
p1350
asbag68
(g89
g70
NtRp1351
(dp1352
g73
(dp1353
g100
g101
ssg82
g1342
sg75
(lp1354
S':'
asbag68
(g89
g70
NtRp1355
(dp1356
g73
(dp1357
sg82
g1342
sg75
(lp1358
g68
(g69
g70
NtRp1359
(dp1360
g73
(dp1361
g81
I4
ssg82
g1355
sg75
(lp1362
S'<socket._fileobject object at 0x10154d0c8>'
p1363
asbasbasbag68
(g84
g70
NtRp1364
(dp1365
g73
(dp1366
sg82
g463
sg75
(lp1367
g68
(g89
g70
NtRp1368
(dp1369
g73
(dp1370
g93
g94
ssg82
g1364
sg75
(lp1371
S'wsgi_multiprocess'
p1372
asbag68
(g89
g70
NtRp1373
(dp1374
g73
(dp1375
g100
g101
ssg82
g1364
sg75
(lp1376
S':'
asbag68
(g89
g70
NtRp1377
(dp1378
g73
(dp1379
sg82
g1364
sg75
(lp1380
g68
(g69
g70
NtRp1381
(dp1382
g73
(dp1383
g81
I4
ssg82
g1377
sg75
(lp1384
g111
asbasbasbag68
(g84
g70
NtRp1385
(dp1386
g73
(dp1387
sg82
g463
sg75
(lp1388
g68
(g89
g70
NtRp1389
(dp1390
g73
(dp1391
g93
g94
ssg82
g1385
sg75
(lp1392
S'wsgi_multithread'
p1393
asbag68
(g89
g70
NtRp1394
(dp1395
g73
(dp1396
g100
g101
ssg82
g1385
sg75
(lp1397
S':'
asbag68
(g89
g70
NtRp1398
(dp1399
g73
(dp1400
sg82
g1385
sg75
(lp1401
g68
(g69
g70
NtRp1402
(dp1403
g73
(dp1404
g81
I4
ssg82
g1398
sg75
(lp1405
S'True'
p1406
asbasbasbag68
(g84
g70
NtRp1407
(dp1408
g73
(dp1409
sg82
g463
sg75
(lp1410
g68
(g89
g70
NtRp1411
(dp1412
g73
(dp1413
g93
g94
ssg82
g1407
sg75
(lp1414
S'wsgi_run_once'
p1415
asbag68
(g89
g70
NtRp1416
(dp1417
g73
(dp1418
g100
g101
ssg82
g1407
sg75
(lp1419
S':'
asbag68
(g89
g70
NtRp1420
(dp1421
g73
(dp1422
sg82
g1407
sg75
(lp1423
g68
(g69
g70
NtRp1424
(dp1425
g73
(dp1426
g81
I4
ssg82
g1420
sg75
(lp1427
g111
asbasbasbag68
(g84
g70
NtRp1428
(dp1429
g73
(dp1430
sg82
g463
sg75
(lp1431
g68
(g89
g70
NtRp1432
(dp1433
g73
(dp1434
g93
g94
ssg82
g1428
sg75
(lp1435
S'wsgi_url_scheme'
p1436
asbag68
(g89
g70
NtRp1437
(dp1438
g73
(dp1439
g100
g101
ssg82
g1428
sg75
(lp1440
S':'
asbag68
(g89
g70
NtRp1441
(dp1442
g73
(dp1443
sg82
g1428
sg75
(lp1444
g68
(g69
g70
NtRp1445
(dp1446
g73
(dp1447
g81
I4
ssg82
g1441
sg75
(lp1448
S'http'
p1449
asbasbasbag68
(g84
g70
NtRp1450
(dp1451
g73
(dp1452
sg82
g463
sg75
(lp1453
g68
(g89
g70
NtRp1454
(dp1455
g73
(dp1456
g93
g94
ssg82
g1450
sg75
(lp1457
S'wsgi_version'
p1458
asbag68
(g89
g70
NtRp1459
(dp1460
g73
(dp1461
g100
g101
ssg82
g1450
sg75
(lp1462
S':'
asbag68
(g89
g70
NtRp1463
(dp1464
g73
(dp1465
sg82
g1450
sg75
(lp1466
g68
(g69
g70
NtRp1467
(dp1468
g73
(dp1469
g81
I4
ssg82
g1463
sg75
(lp1470
g68
(g77
g70
NtRp1471
(dp1472
g73
(dp1473
g81
I3
ssg82
Nsg75
(lp1474
g68
(g84
g70
NtRp1475
(dp1476
g73
(dp1477
sg82
g1471
sg75
(lp1478
g68
(g89
g70
NtRp1479
(dp1480
g73
(dp1481
sg82
g1475
sg75
(lp1482
g68
(g69
g70
NtRp1483
(dp1484
g73
(dp1485
g81
I3
ssg82
g1479
sg75
(lp1486
S'1'
asbasbasbag68
(g84
g70
NtRp1487
(dp1488
g73
(dp1489
sg82
g1471
sg75
(lp1490
g68
(g89
g70
NtRp1491
(dp1492
g73
(dp1493
sg82
g1487
sg75
(lp1494
g68
(g69
g70
NtRp1495
(dp1496
g73
(dp1497
g81
I3
ssg82
g1491
sg75
(lp1498
S'0'
asbasbasbasbasbasbasbasbasbasbasbag68
(g84
g70
NtRp1499
(dp1500
g73
(dp1501
sg82
g78
sg75
(lp1502
g68
(g89
g70
NtRp1503
(dp1504
g73
(dp1505
g93
g94
ssg82
g1499
sg75
(lp1506
S'extension'
p1507
asbag68
(g89
g70
NtRp1508
(dp1509
g73
(dp1510
g100
g101
ssg82
g1499
sg75
(lp1511
S':'
asbag68
(g89
g70
NtRp1512
(dp1513
g73
(dp1514
sg82
g1499
sg75
(lp1515
g68
(g69
g70
NtRp1516
(dp1517
g73
(dp1518
g81
I5
ssg82
g1512
sg75
(lp1519
S'html'
p1520
asbasbasbag68
(g84
g70
NtRp1521
(dp1522
g73
(dp1523
sg82
g78
sg75
(lp1524
g68
(g89
g70
NtRp1525
(dp1526
g73
(dp1527
g93
g94
ssg82
g1521
sg75
(lp1528
S'folder'
p1529
asbag68
(g89
g70
NtRp1530
(dp1531
g73
(dp1532
g100
g101
ssg82
g1521
sg75
(lp1533
S':'
asbag68
(g89
g70
NtRp1534
(dp1535
g73
(dp1536
sg82
g1521
sg75
(lp1537
g68
(g69
g70
NtRp1538
(dp1539
g73
(dp1540
g81
I5
ssg82
g1534
sg75
(lp1541
S'/Users/excon/Sites/dreamscape/applications/welcome/'
p1542
asbasbasbag68
(g84
g70
NtRp1543
(dp1544
g73
(dp1545
sg82
g78
sg75
(lp1546
g68
(g89
g70
NtRp1547
(dp1548
g73
(dp1549
g93
g94
ssg82
g1543
sg75
(lp1550
S'function'
p1551
asbag68
(g89
g70
NtRp1552
(dp1553
g73
(dp1554
g100
g101
ssg82
g1543
sg75
(lp1555
S':'
asbag68
(g89
g70
NtRp1556
(dp1557
g73
(dp1558
sg82
g1543
sg75
(lp1559
g68
(g69
g70
NtRp1560
(dp1561
g73
(dp1562
g81
I5
ssg82
g1556
sg75
(lp1563
S'coming_soon'
p1564
asbasbasbag68
(g84
g70
NtRp1565
(dp1566
g73
(dp1567
sg82
g78
sg75
(lp1568
g68
(g89
g70
NtRp1569
(dp1570
g73
(dp1571
g93
g94
ssg82
g1565
sg75
(lp1572
S'get_vars'
p1573
asbag68
(g89
g70
NtRp1574
(dp1575
g73
(dp1576
g100
g101
ssg82
g1565
sg75
(lp1577
S':'
asbag68
(g89
g70
NtRp1578
(dp1579
g73
(dp1580
sg82
g1565
sg75
(lp1581
g68
(g69
g70
NtRp1582
(dp1583
g73
(dp1584
g81
I5
ssg82
g1578
sg75
(lp1585
g68
(g77
g70
NtRp1586
(dp1587
g73
(dp1588
g81
I4
ssg82
Nsg75
(lp1589
sbasbasbasbag68
(g84
g70
NtRp1590
(dp1591
g73
(dp1592
sg82
g78
sg75
(lp1593
g68
(g89
g70
NtRp1594
(dp1595
g73
(dp1596
g93
g94
ssg82
g1590
sg75
(lp1597
S'global_settings'
p1598
asbag68
(g89
g70
NtRp1599
(dp1600
g73
(dp1601
g100
g101
ssg82
g1590
sg75
(lp1602
S':'
asbag68
(g89
g70
NtRp1603
(dp1604
g73
(dp1605
sg82
g1590
sg75
(lp1606
g68
(g69
g70
NtRp1607
(dp1608
g73
(dp1609
g81
I5
ssg82
g1603
sg75
(lp1610
g68
(g77
g70
NtRp1611
(dp1612
g73
(dp1613
g81
I4
ssg82
Nsg75
(lp1614
g68
(g84
g70
NtRp1615
(dp1616
g73
(dp1617
sg82
g1611
sg75
(lp1618
g68
(g89
g70
NtRp1619
(dp1620
g73
(dp1621
g93
g94
ssg82
g1615
sg75
(lp1622
g475
asbag68
(g89
g70
NtRp1623
(dp1624
g73
(dp1625
g100
g101
ssg82
g1615
sg75
(lp1626
S':'
asbag68
(g89
g70
NtRp1627
(dp1628
g73
(dp1629
sg82
g1615
sg75
(lp1630
g68
(g69
g70
NtRp1631
(dp1632
g73
(dp1633
g81
I4
ssg82
g1627
sg75
(lp1634
S"set(['/Users/excon/Sites/dreamscape/applications/welcome/'])"
p1635
asbasbasbag68
(g84
g70
NtRp1636
(dp1637
g73
(dp1638
sg82
g1611
sg75
(lp1639
g68
(g89
g70
NtRp1640
(dp1641
g73
(dp1642
g93
g94
ssg82
g1636
sg75
(lp1643
g497
asbag68
(g89
g70
NtRp1644
(dp1645
g73
(dp1646
g100
g101
ssg82
g1636
sg75
(lp1647
S':'
asbag68
(g89
g70
NtRp1648
(dp1649
g73
(dp1650
sg82
g1636
sg75
(lp1651
g68
(g69
g70
NtRp1652
(dp1653
g73
(dp1654
g81
I4
ssg82
g1648
sg75
(lp1655
g510
asbasbasbag68
(g84
g70
NtRp1656
(dp1657
g73
(dp1658
sg82
g1611
sg75
(lp1659
g68
(g89
g70
NtRp1660
(dp1661
g73
(dp1662
g93
g94
ssg82
g1656
sg75
(lp1663
g519
asbag68
(g89
g70
NtRp1664
(dp1665
g73
(dp1666
g100
g101
ssg82
g1656
sg75
(lp1667
S':'
asbag68
(g89
g70
NtRp1668
(dp1669
g73
(dp1670
sg82
g1656
sg75
(lp1671
g68
(g69
g70
NtRp1672
(dp1673
g73
(dp1674
g81
I4
ssg82
g1668
sg75
(lp1675
g68
(g77
g70
NtRp1676
(dp1677
g73
(dp1678
g81
I3
ssg82
Nsg75
(lp1679
sbasbasbasbag68
(g84
g70
NtRp1680
(dp1681
g73
(dp1682
sg82
g1611
sg75
(lp1683
g68
(g89
g70
NtRp1684
(dp1685
g73
(dp1686
g93
g94
ssg82
g1680
sg75
(lp1687
g544
asbag68
(g89
g70
NtRp1688
(dp1689
g73
(dp1690
g100
g101
ssg82
g1680
sg75
(lp1691
S':'
asbag68
(g89
g70
NtRp1692
(dp1693
g73
(dp1694
sg82
g1680
sg75
(lp1695
g68
(g69
g70
NtRp1696
(dp1697
g73
(dp1698
g81
I4
ssg82
g1692
sg75
(lp1699
S"<Values at 0x101c08ea8: {'verbose': False, 'ip': '127.0.0.1', 'shutdown_timeout': 5, 'taskbar': False, 'nocron': False, 'pid_filename': 'httpserver.pid', 'maxthreads': None, 'softcron': False, 'server_name': 'dhcp-221-42.cruznet.ucsc.edu', 'bpython': False, 'nogui': False, 'port': 8000, 'extcron': False, 'debuglevel': 30, 'test': None, 'folder': '/Users/excon/Sites/dreamscape', 'config': '', 'import_models': False, 'winservice': '', 'shell': None, 'run': '', 'log_filename': 'httpserver.log', 'args': [''], 'ssl_ca_certificate': None, 'scheduler': None, 'profiler_filename': None, 'ssl_private_key': '', 'password': '<ask>', 'request_queue_size': 5, 'ssl_certificate': '', 'cronjob': False, 'plain': False, 'quiet': False, 'interfaces': None, 'minthreads': None, 'timeout': 10, 'numthreads': None, 'nobanner': False}>"
p1700
asbasbasbag68
(g84
g70
NtRp1701
(dp1702
g73
(dp1703
sg82
g1611
sg75
(lp1704
g68
(g89
g70
NtRp1705
(dp1706
g73
(dp1707
g93
g94
ssg82
g1701
sg75
(lp1708
g610
asbag68
(g89
g70
NtRp1709
(dp1710
g73
(dp1711
g100
g101
ssg82
g1701
sg75
(lp1712
S':'
asbag68
(g89
g70
NtRp1713
(dp1714
g73
(dp1715
sg82
g1701
sg75
(lp1716
g68
(g69
g70
NtRp1717
(dp1718
g73
(dp1719
g81
I4
ssg82
g1713
sg75
(lp1720
S'set([])'
p1721
asbasbasbag68
(g84
g70
NtRp1722
(dp1723
g73
(dp1724
sg82
g1611
sg75
(lp1725
g68
(g89
g70
NtRp1726
(dp1727
g73
(dp1728
g93
g94
ssg82
g1722
sg75
(lp1729
g632
asbag68
(g89
g70
NtRp1730
(dp1731
g73
(dp1732
g100
g101
ssg82
g1722
sg75
(lp1733
S':'
asbag68
(g89
g70
NtRp1734
(dp1735
g73
(dp1736
sg82
g1722
sg75
(lp1737
g68
(g69
g70
NtRp1738
(dp1739
g73
(dp1740
g81
I4
ssg82
g1734
sg75
(lp1741
g111
asbasbasbag68
(g84
g70
NtRp1742
(dp1743
g73
(dp1744
sg82
g1611
sg75
(lp1745
g68
(g89
g70
NtRp1746
(dp1747
g73
(dp1748
g93
g94
ssg82
g1742
sg75
(lp1749
g653
asbag68
(g89
g70
NtRp1750
(dp1751
g73
(dp1752
g100
g101
ssg82
g1742
sg75
(lp1753
S':'
asbag68
(g89
g70
NtRp1754
(dp1755
g73
(dp1756
sg82
g1742
sg75
(lp1757
g68
(g69
g70
NtRp1758
(dp1759
g73
(dp1760
g81
I4
ssg82
g1754
sg75
(lp1761
g666
asbasbasbag68
(g84
g70
NtRp1762
(dp1763
g73
(dp1764
sg82
g1611
sg75
(lp1765
g68
(g89
g70
NtRp1766
(dp1767
g73
(dp1768
g93
g94
ssg82
g1762
sg75
(lp1769
g937
asbag68
(g89
g70
NtRp1770
(dp1771
g73
(dp1772
g100
g101
ssg82
g1762
sg75
(lp1773
S':'
asbag68
(g89
g70
NtRp1774
(dp1775
g73
(dp1776
sg82
g1762
sg75
(lp1777
g68
(g69
g70
NtRp1778
(dp1779
g73
(dp1780
g81
I4
ssg82
g1774
sg75
(lp1781
g111
asbasbasbag68
(g84
g70
NtRp1782
(dp1783
g73
(dp1784
sg82
g1611
sg75
(lp1785
g68
(g89
g70
NtRp1786
(dp1787
g73
(dp1788
g93
g94
ssg82
g1782
sg75
(lp1789
g1175
asbag68
(g89
g70
NtRp1790
(dp1791
g73
(dp1792
g100
g101
ssg82
g1782
sg75
(lp1793
S':'
asbag68
(g89
g70
NtRp1794
(dp1795
g73
(dp1796
sg82
g1782
sg75
(lp1797
g68
(g69
g70
NtRp1798
(dp1799
g73
(dp1800
g81
I4
ssg82
g1794
sg75
(lp1801
g1188
asbasbasbag68
(g84
g70
NtRp1802
(dp1803
g73
(dp1804
sg82
g1611
sg75
(lp1805
g68
(g89
g70
NtRp1806
(dp1807
g73
(dp1808
g93
g94
ssg82
g1802
sg75
(lp1809
g1218
asbag68
(g89
g70
NtRp1810
(dp1811
g73
(dp1812
g100
g101
ssg82
g1802
sg75
(lp1813
S':'
asbag68
(g89
g70
NtRp1814
(dp1815
g73
(dp1816
sg82
g1802
sg75
(lp1817
g68
(g69
g70
NtRp1818
(dp1819
g73
(dp1820
g81
I4
ssg82
g1814
sg75
(lp1821
g68
(g77
g70
NtRp1822
(dp1823
g73
(dp1824
g81
I3
ssg82
Nsg75
(lp1825
g68
(g84
g70
NtRp1826
(dp1827
g73
(dp1828
sg82
g1822
sg75
(lp1829
g68
(g89
g70
NtRp1830
(dp1831
g73
(dp1832
sg82
g1826
sg75
(lp1833
g68
(g69
g70
NtRp1834
(dp1835
g73
(dp1836
g81
I3
ssg82
g1830
sg75
(lp1837
S'1'
asbasbasbag68
(g84
g70
NtRp1838
(dp1839
g73
(dp1840
sg82
g1822
sg75
(lp1841
g68
(g89
g70
NtRp1842
(dp1843
g73
(dp1844
sg82
g1838
sg75
(lp1845
g68
(g69
g70
NtRp1846
(dp1847
g73
(dp1848
g81
I3
ssg82
g1842
sg75
(lp1849
S'99'
p1850
asbasbasbag68
(g84
g70
NtRp1851
(dp1852
g73
(dp1853
sg82
g1822
sg75
(lp1854
g68
(g89
g70
NtRp1855
(dp1856
g73
(dp1857
sg82
g1851
sg75
(lp1858
g68
(g69
g70
NtRp1859
(dp1860
g73
(dp1861
g81
I3
ssg82
g1855
sg75
(lp1862
S'2'
asbasbasbag68
(g84
g70
NtRp1863
(dp1864
g73
(dp1865
sg82
g1822
sg75
(lp1866
g68
(g89
g70
NtRp1867
(dp1868
g73
(dp1869
sg82
g1863
sg75
(lp1870
g68
(g69
g70
NtRp1871
(dp1872
g73
(dp1873
g81
I3
ssg82
g1867
sg75
(lp1874
S'datetime.datetime(2011, 9, 26, 6, 55, 33)'
p1875
asbasbasbag68
(g84
g70
NtRp1876
(dp1877
g73
(dp1878
sg82
g1822
sg75
(lp1879
g68
(g89
g70
NtRp1880
(dp1881
g73
(dp1882
sg82
g1876
sg75
(lp1883
g68
(g69
g70
NtRp1884
(dp1885
g73
(dp1886
g81
I3
ssg82
g1880
sg75
(lp1887
g1297
asbasbasbasbasbasbasbasbasbasbasbag68
(g84
g70
NtRp1888
(dp1889
g73
(dp1890
sg82
g78
sg75
(lp1891
g68
(g89
g70
NtRp1892
(dp1893
g73
(dp1894
g93
g94
ssg82
g1888
sg75
(lp1895
S'is_https'
p1896
asbag68
(g89
g70
NtRp1897
(dp1898
g73
(dp1899
g100
g101
ssg82
g1888
sg75
(lp1900
S':'
asbag68
(g89
g70
NtRp1901
(dp1902
g73
(dp1903
sg82
g1888
sg75
(lp1904
g68
(g69
g70
NtRp1905
(dp1906
g73
(dp1907
g81
I5
ssg82
g1901
sg75
(lp1908
g111
asbasbasbag68
(g84
g70
NtRp1909
(dp1910
g73
(dp1911
sg82
g78
sg75
(lp1912
g68
(g89
g70
NtRp1913
(dp1914
g73
(dp1915
g93
g94
ssg82
g1909
sg75
(lp1916
S'is_local'
p1917
asbag68
(g89
g70
NtRp1918
(dp1919
g73
(dp1920
g100
g101
ssg82
g1909
sg75
(lp1921
S':'
asbag68
(g89
g70
NtRp1922
(dp1923
g73
(dp1924
sg82
g1909
sg75
(lp1925
g68
(g69
g70
NtRp1926
(dp1927
g73
(dp1928
g81
I5
ssg82
g1922
sg75
(lp1929
g1406
asbasbasbag68
(g84
g70
NtRp1930
(dp1931
g73
(dp1932
sg82
g78
sg75
(lp1933
g68
(g89
g70
NtRp1934
(dp1935
g73
(dp1936
g93
g94
ssg82
g1930
sg75
(lp1937
S'is_restful'
p1938
asbag68
(g89
g70
NtRp1939
(dp1940
g73
(dp1941
g100
g101
ssg82
g1930
sg75
(lp1942
S':'
asbag68
(g89
g70
NtRp1943
(dp1944
g73
(dp1945
sg82
g1930
sg75
(lp1946
g68
(g69
g70
NtRp1947
(dp1948
g73
(dp1949
g81
I5
ssg82
g1943
sg75
(lp1950
g111
asbasbasbag68
(g84
g70
NtRp1951
(dp1952
g73
(dp1953
sg82
g78
sg75
(lp1954
g68
(g89
g70
NtRp1955
(dp1956
g73
(dp1957
g93
g94
ssg82
g1951
sg75
(lp1958
S'now'
p1959
asbag68
(g89
g70
NtRp1960
(dp1961
g73
(dp1962
g100
g101
ssg82
g1951
sg75
(lp1963
S':'
asbag68
(g89
g70
NtRp1964
(dp1965
g73
(dp1966
sg82
g1951
sg75
(lp1967
g68
(g69
g70
NtRp1968
(dp1969
g73
(dp1970
g81
I5
ssg82
g1964
sg75
(lp1971
S'datetime.datetime(2011, 9, 28, 13, 49, 25, 168878)'
p1972
asbasbasbag68
(g84
g70
NtRp1973
(dp1974
g73
(dp1975
sg82
g78
sg75
(lp1976
g68
(g89
g70
NtRp1977
(dp1978
g73
(dp1979
g93
g94
ssg82
g1973
sg75
(lp1980
S'post_vars'
p1981
asbag68
(g89
g70
NtRp1982
(dp1983
g73
(dp1984
g100
g101
ssg82
g1973
sg75
(lp1985
S':'
asbag68
(g89
g70
NtRp1986
(dp1987
g73
(dp1988
sg82
g1973
sg75
(lp1989
g68
(g69
g70
NtRp1990
(dp1991
g73
(dp1992
g81
I5
ssg82
g1986
sg75
(lp1993
g68
(g77
g70
NtRp1994
(dp1995
g73
(dp1996
g81
I4
ssg82
Nsg75
(lp1997
g68
(g84
g70
NtRp1998
(dp1999
g73
(dp2000
sg82
g1994
sg75
(lp2001
g68
(g89
g70
NtRp2002
(dp2003
g73
(dp2004
g93
g94
ssg82
g1998
sg75
(lp2005
S'email'
p2006
asbag68
(g89
g70
NtRp2007
(dp2008
g73
(dp2009
g100
g101
ssg82
g1998
sg75
(lp2010
S':'
asbag68
(g89
g70
NtRp2011
(dp2012
g73
(dp2013
sg82
g1998
sg75
(lp2014
g68
(g69
g70
NtRp2015
(dp2016
g73
(dp2017
g81
I4
ssg82
g2011
sg75
(lp2018
S'joe@test.com'
p2019
asbasbasbasbasbasbasbag68
(g84
g70
NtRp2020
(dp2021
g73
(dp2022
sg82
g78
sg75
(lp2023
g68
(g89
g70
NtRp2024
(dp2025
g73
(dp2026
g93
g94
ssg82
g2020
sg75
(lp2027
S'url'
p2028
asbag68
(g89
g70
NtRp2029
(dp2030
g73
(dp2031
g100
g101
ssg82
g2020
sg75
(lp2032
S':'
asbag68
(g89
g70
NtRp2033
(dp2034
g73
(dp2035
sg82
g2020
sg75
(lp2036
g68
(g69
g70
NtRp2037
(dp2038
g73
(dp2039
g81
I5
ssg82
g2033
sg75
(lp2040
S'/welcome/default/coming_soon'
p2041
asbasbasbag68
(g84
g70
NtRp2042
(dp2043
g73
(dp2044
sg82
g78
sg75
(lp2045
g68
(g89
g70
NtRp2046
(dp2047
g73
(dp2048
g93
g94
ssg82
g2042
sg75
(lp2049
S'utcnow'
p2050
asbag68
(g89
g70
NtRp2051
(dp2052
g73
(dp2053
g100
g101
ssg82
g2042
sg75
(lp2054
S':'
asbag68
(g89
g70
NtRp2055
(dp2056
g73
(dp2057
sg82
g2042
sg75
(lp2058
g68
(g69
g70
NtRp2059
(dp2060
g73
(dp2061
g81
I5
ssg82
g2055
sg75
(lp2062
S'datetime.datetime(2011, 9, 28, 20, 49, 25, 168901)'
p2063
asbasbasbag68
(g84
g70
NtRp2064
(dp2065
g73
(dp2066
sg82
g78
sg75
(lp2067
g68
(g89
g70
NtRp2068
(dp2069
g73
(dp2070
g93
g94
ssg82
g2064
sg75
(lp2071
S'uuid'
p2072
asbag68
(g89
g70
NtRp2073
(dp2074
g73
(dp2075
g100
g101
ssg82
g2064
sg75
(lp2076
S':'
asbag68
(g89
g70
NtRp2077
(dp2078
g73
(dp2079
sg82
g2064
sg75
(lp2080
g68
(g69
g70
NtRp2081
(dp2082
g73
(dp2083
g81
I5
ssg82
g2077
sg75
(lp2084
S'welcome/127.0.0.1.2011-09-28.13-49-25.e1749be9-d22f-4245-8bd6-f114fc8eb504'
p2085
asbasbasbag68
(g84
g70
NtRp2086
(dp2087
g73
(dp2088
sg82
g78
sg75
(lp2089
g68
(g89
g70
NtRp2090
(dp2091
g73
(dp2092
g93
g94
ssg82
g2086
sg75
(lp2093
S'vars'
p2094
asbag68
(g89
g70
NtRp2095
(dp2096
g73
(dp2097
g100
g101
ssg82
g2086
sg75
(lp2098
S':'
asbag68
(g89
g70
NtRp2099
(dp2100
g73
(dp2101
sg82
g2086
sg75
(lp2102
g68
(g69
g70
NtRp2103
(dp2104
g73
(dp2105
g81
I5
ssg82
g2099
sg75
(lp2106
g68
(g77
g70
NtRp2107
(dp2108
g73
(dp2109
g81
I4
ssg82
Nsg75
(lp2110
g68
(g84
g70
NtRp2111
(dp2112
g73
(dp2113
sg82
g2107
sg75
(lp2114
g68
(g89
g70
NtRp2115
(dp2116
g73
(dp2117
g93
g94
ssg82
g2111
sg75
(lp2118
g2006
asbag68
(g89
g70
NtRp2119
(dp2120
g73
(dp2121
g100
g101
ssg82
g2111
sg75
(lp2122
S':'
asbag68
(g89
g70
NtRp2123
(dp2124
g73
(dp2125
sg82
g2111
sg75
(lp2126
g68
(g69
g70
NtRp2127
(dp2128
g73
(dp2129
g81
I4
ssg82
g2123
sg75
(lp2130
g2019
asbasbasbasbasbasbasbag68
(g84
g70
NtRp2131
(dp2132
g73
(dp2133
sg82
g78
sg75
(lp2134
g68
(g89
g70
NtRp2135
(dp2136
g73
(dp2137
g93
g94
ssg82
g2131
sg75
(lp2138
S'wsgi'
p2139
asbag68
(g89
g70
NtRp2140
(dp2141
g73
(dp2142
g100
g101
ssg82
g2131
sg75
(lp2143
S':'
asbag68
(g89
g70
NtRp2144
(dp2145
g73
(dp2146
sg82
g2131
sg75
(lp2147
g68
(g69
g70
NtRp2148
(dp2149
g73
(dp2150
g81
I5
ssg82
g2144
sg75
(lp2151
g68
(g77
g70
NtRp2152
(dp2153
g73
(dp2154
g81
I4
ssg82
Nsg75
(lp2155
g68
(g84
g70
NtRp2156
(dp2157
g73
(dp2158
sg82
g2152
sg75
(lp2159
g68
(g89
g70
NtRp2160
(dp2161
g73
(dp2162
g93
g94
ssg82
g2156
sg75
(lp2163
S'environ'
p2164
asbag68
(g89
g70
NtRp2165
(dp2166
g73
(dp2167
g100
g101
ssg82
g2156
sg75
(lp2168
S':'
asbag68
(g89
g70
NtRp2169
(dp2170
g73
(dp2171
sg82
g2156
sg75
(lp2172
g68
(g69
g70
NtRp2173
(dp2174
g73
(dp2175
g81
I4
ssg82
g2169
sg75
(lp2176
g68
(g77
g70
NtRp2177
(dp2178
g73
(dp2179
g81
I3
ssg82
Nsg75
(lp2180
g68
(g84
g70
NtRp2181
(dp2182
g73
(dp2183
sg82
g2177
sg75
(lp2184
g68
(g89
g70
NtRp2185
(dp2186
g73
(dp2187
g93
g94
ssg82
g2181
sg75
(lp2188
S'CONTENT_LENGTH'
p2189
asbag68
(g89
g70
NtRp2190
(dp2191
g73
(dp2192
g100
g101
ssg82
g2181
sg75
(lp2193
S':'
asbag68
(g89
g70
NtRp2194
(dp2195
g73
(dp2196
sg82
g2181
sg75
(lp2197
g68
(g69
g70
NtRp2198
(dp2199
g73
(dp2200
g81
I3
ssg82
g2194
sg75
(lp2201
g579
asbasbasbag68
(g84
g70
NtRp2202
(dp2203
g73
(dp2204
sg82
g2177
sg75
(lp2205
g68
(g89
g70
NtRp2206
(dp2207
g73
(dp2208
g93
g94
ssg82
g2202
sg75
(lp2209
S'CONTENT_TYPE'
p2210
asbag68
(g89
g70
NtRp2211
(dp2212
g73
(dp2213
g100
g101
ssg82
g2202
sg75
(lp2214
S':'
asbag68
(g89
g70
NtRp2215
(dp2216
g73
(dp2217
sg82
g2202
sg75
(lp2218
g68
(g69
g70
NtRp2219
(dp2220
g73
(dp2221
g81
I3
ssg82
g2215
sg75
(lp2222
g601
asbasbasbag68
(g84
g70
NtRp2223
(dp2224
g73
(dp2225
sg82
g2177
sg75
(lp2226
g68
(g89
g70
NtRp2227
(dp2228
g73
(dp2229
g93
g94
ssg82
g2223
sg75
(lp2230
S'HTTP_ACCEPT'
p2231
asbag68
(g89
g70
NtRp2232
(dp2233
g73
(dp2234
g100
g101
ssg82
g2223
sg75
(lp2235
S':'
asbag68
(g89
g70
NtRp2236
(dp2237
g73
(dp2238
sg82
g2223
sg75
(lp2239
g68
(g69
g70
NtRp2240
(dp2241
g73
(dp2242
g81
I3
ssg82
g2236
sg75
(lp2243
g688
asbasbasbag68
(g84
g70
NtRp2244
(dp2245
g73
(dp2246
sg82
g2177
sg75
(lp2247
g68
(g89
g70
NtRp2248
(dp2249
g73
(dp2250
g93
g94
ssg82
g2244
sg75
(lp2251
S'HTTP_ACCEPT_CHARSET'
p2252
asbag68
(g89
g70
NtRp2253
(dp2254
g73
(dp2255
g100
g101
ssg82
g2244
sg75
(lp2256
S':'
asbag68
(g89
g70
NtRp2257
(dp2258
g73
(dp2259
sg82
g2244
sg75
(lp2260
g68
(g69
g70
NtRp2261
(dp2262
g73
(dp2263
g81
I3
ssg82
g2257
sg75
(lp2264
g710
asbasbasbag68
(g84
g70
NtRp2265
(dp2266
g73
(dp2267
sg82
g2177
sg75
(lp2268
g68
(g89
g70
NtRp2269
(dp2270
g73
(dp2271
g93
g94
ssg82
g2265
sg75
(lp2272
S'HTTP_ACCEPT_ENCODING'
p2273
asbag68
(g89
g70
NtRp2274
(dp2275
g73
(dp2276
g100
g101
ssg82
g2265
sg75
(lp2277
S':'
asbag68
(g89
g70
NtRp2278
(dp2279
g73
(dp2280
sg82
g2265
sg75
(lp2281
g68
(g69
g70
NtRp2282
(dp2283
g73
(dp2284
g81
I3
ssg82
g2278
sg75
(lp2285
g732
asbasbasbag68
(g84
g70
NtRp2286
(dp2287
g73
(dp2288
sg82
g2177
sg75
(lp2289
g68
(g89
g70
NtRp2290
(dp2291
g73
(dp2292
g93
g94
ssg82
g2286
sg75
(lp2293
S'HTTP_ACCEPT_LANGUAGE'
p2294
asbag68
(g89
g70
NtRp2295
(dp2296
g73
(dp2297
g100
g101
ssg82
g2286
sg75
(lp2298
S':'
asbag68
(g89
g70
NtRp2299
(dp2300
g73
(dp2301
sg82
g2286
sg75
(lp2302
g68
(g69
g70
NtRp2303
(dp2304
g73
(dp2305
g81
I3
ssg82
g2299
sg75
(lp2306
g754
asbasbasbag68
(g84
g70
NtRp2307
(dp2308
g73
(dp2309
sg82
g2177
sg75
(lp2310
g68
(g89
g70
NtRp2311
(dp2312
g73
(dp2313
g93
g94
ssg82
g2307
sg75
(lp2314
S'HTTP_CACHE_CONTROL'
p2315
asbag68
(g89
g70
NtRp2316
(dp2317
g73
(dp2318
g100
g101
ssg82
g2307
sg75
(lp2319
S':'
asbag68
(g89
g70
NtRp2320
(dp2321
g73
(dp2322
sg82
g2307
sg75
(lp2323
g68
(g69
g70
NtRp2324
(dp2325
g73
(dp2326
g81
I3
ssg82
g2320
sg75
(lp2327
g776
asbasbasbag68
(g84
g70
NtRp2328
(dp2329
g73
(dp2330
sg82
g2177
sg75
(lp2331
g68
(g89
g70
NtRp2332
(dp2333
g73
(dp2334
g93
g94
ssg82
g2328
sg75
(lp2335
S'HTTP_CONNECTION'
p2336
asbag68
(g89
g70
NtRp2337
(dp2338
g73
(dp2339
g100
g101
ssg82
g2328
sg75
(lp2340
S':'
asbag68
(g89
g70
NtRp2341
(dp2342
g73
(dp2343
sg82
g2328
sg75
(lp2344
g68
(g69
g70
NtRp2345
(dp2346
g73
(dp2347
g81
I3
ssg82
g2341
sg75
(lp2348
g798
asbasbasbag68
(g84
g70
NtRp2349
(dp2350
g73
(dp2351
sg82
g2177
sg75
(lp2352
g68
(g89
g70
NtRp2353
(dp2354
g73
(dp2355
g93
g94
ssg82
g2349
sg75
(lp2356
S'HTTP_CONTENT_LENGTH'
p2357
asbag68
(g89
g70
NtRp2358
(dp2359
g73
(dp2360
g100
g101
ssg82
g2349
sg75
(lp2361
S':'
asbag68
(g89
g70
NtRp2362
(dp2363
g73
(dp2364
sg82
g2349
sg75
(lp2365
g68
(g69
g70
NtRp2366
(dp2367
g73
(dp2368
g81
I3
ssg82
g2362
sg75
(lp2369
g579
asbasbasbag68
(g84
g70
NtRp2370
(dp2371
g73
(dp2372
sg82
g2177
sg75
(lp2373
g68
(g89
g70
NtRp2374
(dp2375
g73
(dp2376
g93
g94
ssg82
g2370
sg75
(lp2377
S'HTTP_CONTENT_TYPE'
p2378
asbag68
(g89
g70
NtRp2379
(dp2380
g73
(dp2381
g100
g101
ssg82
g2370
sg75
(lp2382
S':'
asbag68
(g89
g70
NtRp2383
(dp2384
g73
(dp2385
sg82
g2370
sg75
(lp2386
g68
(g69
g70
NtRp2387
(dp2388
g73
(dp2389
g81
I3
ssg82
g2383
sg75
(lp2390
g601
asbasbasbag68
(g84
g70
NtRp2391
(dp2392
g73
(dp2393
sg82
g2177
sg75
(lp2394
g68
(g89
g70
NtRp2395
(dp2396
g73
(dp2397
g93
g94
ssg82
g2391
sg75
(lp2398
S'HTTP_COOKIE'
p2399
asbag68
(g89
g70
NtRp2400
(dp2401
g73
(dp2402
g100
g101
ssg82
g2391
sg75
(lp2403
S':'
asbag68
(g89
g70
NtRp2404
(dp2405
g73
(dp2406
sg82
g2391
sg75
(lp2407
g68
(g69
g70
NtRp2408
(dp2409
g73
(dp2410
g81
I3
ssg82
g2404
sg75
(lp2411
g862
asbasbasbag68
(g84
g70
NtRp2412
(dp2413
g73
(dp2414
sg82
g2177
sg75
(lp2415
g68
(g89
g70
NtRp2416
(dp2417
g73
(dp2418
g93
g94
ssg82
g2412
sg75
(lp2419
S'HTTP_HOST'
p2420
asbag68
(g89
g70
NtRp2421
(dp2422
g73
(dp2423
g100
g101
ssg82
g2412
sg75
(lp2424
S':'
asbag68
(g89
g70
NtRp2425
(dp2426
g73
(dp2427
sg82
g2412
sg75
(lp2428
g68
(g69
g70
NtRp2429
(dp2430
g73
(dp2431
g81
I3
ssg82
g2425
sg75
(lp2432
g884
asbasbasbag68
(g84
g70
NtRp2433
(dp2434
g73
(dp2435
sg82
g2177
sg75
(lp2436
g68
(g89
g70
NtRp2437
(dp2438
g73
(dp2439
g93
g94
ssg82
g2433
sg75
(lp2440
S'HTTP_REFERER'
p2441
asbag68
(g89
g70
NtRp2442
(dp2443
g73
(dp2444
g100
g101
ssg82
g2433
sg75
(lp2445
S':'
asbag68
(g89
g70
NtRp2446
(dp2447
g73
(dp2448
sg82
g2433
sg75
(lp2449
g68
(g69
g70
NtRp2450
(dp2451
g73
(dp2452
g81
I3
ssg82
g2446
sg75
(lp2453
g906
asbasbasbag68
(g84
g70
NtRp2454
(dp2455
g73
(dp2456
sg82
g2177
sg75
(lp2457
g68
(g89
g70
NtRp2458
(dp2459
g73
(dp2460
g93
g94
ssg82
g2454
sg75
(lp2461
S'HTTP_USER_AGENT'
p2462
asbag68
(g89
g70
NtRp2463
(dp2464
g73
(dp2465
g100
g101
ssg82
g2454
sg75
(lp2466
S':'
asbag68
(g89
g70
NtRp2467
(dp2468
g73
(dp2469
sg82
g2454
sg75
(lp2470
g68
(g69
g70
NtRp2471
(dp2472
g73
(dp2473
g81
I3
ssg82
g2467
sg75
(lp2474
g928
asbasbasbag68
(g84
g70
NtRp2475
(dp2476
g73
(dp2477
sg82
g2177
sg75
(lp2478
g68
(g89
g70
NtRp2479
(dp2480
g73
(dp2481
g93
g94
ssg82
g2475
sg75
(lp2482
S'PATH_INFO'
p2483
asbag68
(g89
g70
NtRp2484
(dp2485
g73
(dp2486
g100
g101
ssg82
g2475
sg75
(lp2487
S':'
asbag68
(g89
g70
NtRp2488
(dp2489
g73
(dp2490
sg82
g2475
sg75
(lp2491
g68
(g69
g70
NtRp2492
(dp2493
g73
(dp2494
g81
I3
ssg82
g2488
sg75
(lp2495
g971
asbasbasbag68
(g84
g70
NtRp2496
(dp2497
g73
(dp2498
sg82
g2177
sg75
(lp2499
g68
(g89
g70
NtRp2500
(dp2501
g73
(dp2502
g93
g94
ssg82
g2496
sg75
(lp2503
S'QUERY_STRING'
p2504
asbag68
(g89
g70
NtRp2505
(dp2506
g73
(dp2507
g100
g101
ssg82
g2496
sg75
(lp2508
S':'
asbag68
(g89
g70
NtRp2509
(dp2510
g73
(dp2511
sg82
g2496
sg75
(lp2512
g68
(g69
g70
NtRp2513
(dp2514
g73
(dp2515
g81
I3
ssg82
g2509
sg75
(lp2516
S''
asbasbasbag68
(g84
g70
NtRp2517
(dp2518
g73
(dp2519
sg82
g2177
sg75
(lp2520
g68
(g89
g70
NtRp2521
(dp2522
g73
(dp2523
g93
g94
ssg82
g2517
sg75
(lp2524
S'REMOTE_ADDR'
p2525
asbag68
(g89
g70
NtRp2526
(dp2527
g73
(dp2528
g100
g101
ssg82
g2517
sg75
(lp2529
S':'
asbag68
(g89
g70
NtRp2530
(dp2531
g73
(dp2532
sg82
g2517
sg75
(lp2533
g68
(g69
g70
NtRp2534
(dp2535
g73
(dp2536
g81
I3
ssg82
g2530
sg75
(lp2537
g201
asbasbasbag68
(g84
g70
NtRp2538
(dp2539
g73
(dp2540
sg82
g2177
sg75
(lp2541
g68
(g89
g70
NtRp2542
(dp2543
g73
(dp2544
g93
g94
ssg82
g2538
sg75
(lp2545
S'REMOTE_PORT'
p2546
asbag68
(g89
g70
NtRp2547
(dp2548
g73
(dp2549
g100
g101
ssg82
g2538
sg75
(lp2550
S':'
asbag68
(g89
g70
NtRp2551
(dp2552
g73
(dp2553
sg82
g2538
sg75
(lp2554
g68
(g69
g70
NtRp2555
(dp2556
g73
(dp2557
g81
I3
ssg82
g2551
sg75
(lp2558
g1035
asbasbasbag68
(g84
g70
NtRp2559
(dp2560
g73
(dp2561
sg82
g2177
sg75
(lp2562
g68
(g89
g70
NtRp2563
(dp2564
g73
(dp2565
g93
g94
ssg82
g2559
sg75
(lp2566
S'REQUEST_METHOD'
p2567
asbag68
(g89
g70
NtRp2568
(dp2569
g73
(dp2570
g100
g101
ssg82
g2559
sg75
(lp2571
S':'
asbag68
(g89
g70
NtRp2572
(dp2573
g73
(dp2574
sg82
g2559
sg75
(lp2575
g68
(g69
g70
NtRp2576
(dp2577
g73
(dp2578
g81
I3
ssg82
g2572
sg75
(lp2579
g1057
asbasbasbag68
(g84
g70
NtRp2580
(dp2581
g73
(dp2582
sg82
g2177
sg75
(lp2583
g68
(g89
g70
NtRp2584
(dp2585
g73
(dp2586
g93
g94
ssg82
g2580
sg75
(lp2587
S'SCRIPT_NAME'
p2588
asbag68
(g89
g70
NtRp2589
(dp2590
g73
(dp2591
g100
g101
ssg82
g2580
sg75
(lp2592
S':'
asbag68
(g89
g70
NtRp2593
(dp2594
g73
(dp2595
sg82
g2580
sg75
(lp2596
g68
(g69
g70
NtRp2597
(dp2598
g73
(dp2599
g81
I3
ssg82
g2593
sg75
(lp2600
S''
asbasbasbag68
(g84
g70
NtRp2601
(dp2602
g73
(dp2603
sg82
g2177
sg75
(lp2604
g68
(g89
g70
NtRp2605
(dp2606
g73
(dp2607
g93
g94
ssg82
g2601
sg75
(lp2608
S'SERVER_NAME'
p2609
asbag68
(g89
g70
NtRp2610
(dp2611
g73
(dp2612
g100
g101
ssg82
g2601
sg75
(lp2613
S':'
asbag68
(g89
g70
NtRp2614
(dp2615
g73
(dp2616
sg82
g2601
sg75
(lp2617
g68
(g69
g70
NtRp2618
(dp2619
g73
(dp2620
g81
I3
ssg82
g2614
sg75
(lp2621
g1100
asbasbasbag68
(g84
g70
NtRp2622
(dp2623
g73
(dp2624
sg82
g2177
sg75
(lp2625
g68
(g89
g70
NtRp2626
(dp2627
g73
(dp2628
g93
g94
ssg82
g2622
sg75
(lp2629
S'SERVER_PORT'
p2630
asbag68
(g89
g70
NtRp2631
(dp2632
g73
(dp2633
g100
g101
ssg82
g2622
sg75
(lp2634
S':'
asbag68
(g89
g70
NtRp2635
(dp2636
g73
(dp2637
sg82
g2622
sg75
(lp2638
g68
(g69
g70
NtRp2639
(dp2640
g73
(dp2641
g81
I3
ssg82
g2635
sg75
(lp2642
g1122
asbasbasbag68
(g84
g70
NtRp2643
(dp2644
g73
(dp2645
sg82
g2177
sg75
(lp2646
g68
(g89
g70
NtRp2647
(dp2648
g73
(dp2649
g93
g94
ssg82
g2643
sg75
(lp2650
S'SERVER_PROTOCOL'
p2651
asbag68
(g89
g70
NtRp2652
(dp2653
g73
(dp2654
g100
g101
ssg82
g2643
sg75
(lp2655
S':'
asbag68
(g89
g70
NtRp2656
(dp2657
g73
(dp2658
sg82
g2643
sg75
(lp2659
g68
(g69
g70
NtRp2660
(dp2661
g73
(dp2662
g81
I3
ssg82
g2656
sg75
(lp2663
g1144
asbasbasbag68
(g84
g70
NtRp2664
(dp2665
g73
(dp2666
sg82
g2177
sg75
(lp2667
g68
(g89
g70
NtRp2668
(dp2669
g73
(dp2670
g93
g94
ssg82
g2664
sg75
(lp2671
S'SERVER_SOFTWARE'
p2672
asbag68
(g89
g70
NtRp2673
(dp2674
g73
(dp2675
g100
g101
ssg82
g2664
sg75
(lp2676
S':'
asbag68
(g89
g70
NtRp2677
(dp2678
g73
(dp2679
sg82
g2664
sg75
(lp2680
g68
(g69
g70
NtRp2681
(dp2682
g73
(dp2683
g81
I3
ssg82
g2677
sg75
(lp2684
g1166
asbasbasbag68
(g84
g70
NtRp2685
(dp2686
g73
(dp2687
sg82
g2177
sg75
(lp2688
g68
(g89
g70
NtRp2689
(dp2690
g73
(dp2691
g93
g94
ssg82
g2685
sg75
(lp2692
S'wsgi.errors'
p2693
asbag68
(g89
g70
NtRp2694
(dp2695
g73
(dp2696
g100
g101
ssg82
g2685
sg75
(lp2697
S':'
asbag68
(g89
g70
NtRp2698
(dp2699
g73
(dp2700
sg82
g2685
sg75
(lp2701
g68
(g69
g70
NtRp2702
(dp2703
g73
(dp2704
g81
I3
ssg82
g2698
sg75
(lp2705
S"<open file '<stderr>', mode 'w' at 0x100416140>"
p2706
asbasbasbag68
(g84
g70
NtRp2707
(dp2708
g73
(dp2709
sg82
g2177
sg75
(lp2710
g68
(g89
g70
NtRp2711
(dp2712
g73
(dp2713
g93
g94
ssg82
g2707
sg75
(lp2714
S'wsgi.file_wrapper'
p2715
asbag68
(g89
g70
NtRp2716
(dp2717
g73
(dp2718
g100
g101
ssg82
g2707
sg75
(lp2719
S':'
asbag68
(g89
g70
NtRp2720
(dp2721
g73
(dp2722
sg82
g2707
sg75
(lp2723
g68
(g69
g70
NtRp2724
(dp2725
g73
(dp2726
g81
I3
ssg82
g2720
sg75
(lp2727
S'<class wsgiref.util.FileWrapper at 0x1014a1bf0>'
p2728
asbasbasbag68
(g84
g70
NtRp2729
(dp2730
g73
(dp2731
sg82
g2177
sg75
(lp2732
g68
(g89
g70
NtRp2733
(dp2734
g73
(dp2735
g93
g94
ssg82
g2729
sg75
(lp2736
S'wsgi.input'
p2737
asbag68
(g89
g70
NtRp2738
(dp2739
g73
(dp2740
g100
g101
ssg82
g2729
sg75
(lp2741
S':'
asbag68
(g89
g70
NtRp2742
(dp2743
g73
(dp2744
sg82
g2729
sg75
(lp2745
g68
(g69
g70
NtRp2746
(dp2747
g73
(dp2748
g81
I3
ssg82
g2742
sg75
(lp2749
S"<open file '<fdopen>', mode 'w+b' at 0x1015dad78>"
p2750
asbasbasbag68
(g84
g70
NtRp2751
(dp2752
g73
(dp2753
sg82
g2177
sg75
(lp2754
g68
(g89
g70
NtRp2755
(dp2756
g73
(dp2757
g93
g94
ssg82
g2751
sg75
(lp2758
S'wsgi.multiprocess'
p2759
asbag68
(g89
g70
NtRp2760
(dp2761
g73
(dp2762
g100
g101
ssg82
g2751
sg75
(lp2763
S':'
asbag68
(g89
g70
NtRp2764
(dp2765
g73
(dp2766
sg82
g2751
sg75
(lp2767
g68
(g69
g70
NtRp2768
(dp2769
g73
(dp2770
g81
I3
ssg82
g2764
sg75
(lp2771
g111
asbasbasbag68
(g84
g70
NtRp2772
(dp2773
g73
(dp2774
sg82
g2177
sg75
(lp2775
g68
(g89
g70
NtRp2776
(dp2777
g73
(dp2778
g93
g94
ssg82
g2772
sg75
(lp2779
S'wsgi.multithread'
p2780
asbag68
(g89
g70
NtRp2781
(dp2782
g73
(dp2783
g100
g101
ssg82
g2772
sg75
(lp2784
S':'
asbag68
(g89
g70
NtRp2785
(dp2786
g73
(dp2787
sg82
g2772
sg75
(lp2788
g68
(g69
g70
NtRp2789
(dp2790
g73
(dp2791
g81
I3
ssg82
g2785
sg75
(lp2792
g1406
asbasbasbag68
(g84
g70
NtRp2793
(dp2794
g73
(dp2795
sg82
g2177
sg75
(lp2796
g68
(g89
g70
NtRp2797
(dp2798
g73
(dp2799
g93
g94
ssg82
g2793
sg75
(lp2800
S'wsgi.run_once'
p2801
asbag68
(g89
g70
NtRp2802
(dp2803
g73
(dp2804
g100
g101
ssg82
g2793
sg75
(lp2805
S':'
asbag68
(g89
g70
NtRp2806
(dp2807
g73
(dp2808
sg82
g2793
sg75
(lp2809
g68
(g69
g70
NtRp2810
(dp2811
g73
(dp2812
g81
I3
ssg82
g2806
sg75
(lp2813
g111
asbasbasbag68
(g84
g70
NtRp2814
(dp2815
g73
(dp2816
sg82
g2177
sg75
(lp2817
g68
(g89
g70
NtRp2818
(dp2819
g73
(dp2820
g93
g94
ssg82
g2814
sg75
(lp2821
S'wsgi.url_scheme'
p2822
asbag68
(g89
g70
NtRp2823
(dp2824
g73
(dp2825
g100
g101
ssg82
g2814
sg75
(lp2826
S':'
asbag68
(g89
g70
NtRp2827
(dp2828
g73
(dp2829
sg82
g2814
sg75
(lp2830
g68
(g69
g70
NtRp2831
(dp2832
g73
(dp2833
g81
I3
ssg82
g2827
sg75
(lp2834
g1449
asbasbasbag68
(g84
g70
NtRp2835
(dp2836
g73
(dp2837
sg82
g2177
sg75
(lp2838
g68
(g89
g70
NtRp2839
(dp2840
g73
(dp2841
g93
g94
ssg82
g2835
sg75
(lp2842
S'wsgi.version'
p2843
asbag68
(g89
g70
NtRp2844
(dp2845
g73
(dp2846
g100
g101
ssg82
g2835
sg75
(lp2847
S':'
asbag68
(g89
g70
NtRp2848
(dp2849
g73
(dp2850
sg82
g2835
sg75
(lp2851
g68
(g69
g70
NtRp2852
(dp2853
g73
(dp2854
g81
I3
ssg82
g2848
sg75
(lp2855
S'1'
asbasbasbasbasbasbasbasbasbasbasbasbasbsS'frames'
p2856
(lp2857
(dp2858
S'file'
p2859
S'/Users/excon/Sites/dreamscape/gluon/restricted.py'
p2860
sS'dump'
p2861
(dp2862
S'code'
p2863
S"'# -*- coding: utf-8 -*-\\n# this file is released ...))\\n\\nresponse._vars=response._caller(coming_soon)\\n'"
p2864
sS'layer'
p2865
S"'/Users/excon/Sites/dreamscape/applications/welcome/controllers/default.py'"
p2866
sS'global compile2'
p2867
S'<function compile2 at 0x101414b18>'
p2868
sS'ccode'
p2869
S'undefined'
p2870
ssS'lnum'
p2871
I193
sS'lines'
p2872
(dp2873
I192
S'        else:'
p2874
sI193
S'            ccode = compile2(code,layer)'
p2875
sI194
S'        exec ccode in environment'
p2876
sI195
S'    except HTTP:'
p2877
sI196
S'        raise'
p2878
sI197
S'    except Exception, error:'
p2879
sI188
S"    environment['__file__'] = layer"
p2880
sI189
S'    try:'
p2881
sI190
S'        if type(code) == types.CodeType:'
p2882
sI191
S'            ccode = code'
p2883
ssS'call'
p2884
S"(code='# -*- coding: utf-8 -*-\\n# this file is released ...))\\n\\nresponse._vars=response._caller(coming_soon)\\n', environment={'A': <class 'gluon.html.A'>, 'Auth': <class 'gluon.tools.Auth'>, 'B': <class 'gluon.html.B'>, 'BEAUTIFY': <class 'gluon.html.BEAUTIFY'>, 'BODY': <class 'gluon.html.BODY'>, 'BR': <class 'gluon.html.BR'>, 'BUTTON': <class 'gluon.html.BUTTON'>, 'CAT': <class 'gluon.html.CAT'>, 'CENTER': <class 'gluon.html.CENTER'>, 'CLEANUP': <class 'gluon.validators.CLEANUP'>, ...}, layer='/Users/excon/Sites/dreamscape/applications/welcome/controllers/default.py')"
p2885
sS'func'
p2886
S'restricted'
p2887
sa(dp2888
g2859
S'/Users/excon/Sites/dreamscape/gluon/restricted.py'
p2889
sg2861
(dp2890
S'builtincompile'
p2891
S'<built-in function compile>'
p2892
sS'code'
p2893
S"'# -*- coding: utf-8 -*-\\n# this file is released ...))\\n\\nresponse._vars=response._caller(coming_soon)\\n'"
p2894
sS'code.rstrip'
p2895
S'<built-in method rstrip of str object at 0x100e2b800>'
p2896
sS').replace'
p2897
g2870
sS'layer'
p2898
S"'/Users/excon/Sites/dreamscape/applications/welcome/controllers/default.py'"
p2899
ssg2871
I179
sg2872
(dp2900
I174
S''
sI175
S'def compile2(code,layer):'
p2901
sI176
S'    """'
p2902
sI177
S"    The +'\\n' is necessary else compile fails when code ends in a comment."
p2903
sI178
S'    """'
p2904
sI179
S"    return compile(code.rstrip().replace('\\r\\n','\\n')+'\\n', layer, 'exec')"
p2905
sI180
S''
sI181
S"def restricted(code, environment=None, layer='Unknown'):"
p2906
sI182
S'    """'
p2907
sI183
S'    runs code in environment and returns the output. if an exception occurs'
p2908
ssg2884
S"(code='# -*- coding: utf-8 -*-\\n# this file is released ...))\\n\\nresponse._vars=response._caller(coming_soon)\\n', layer='/Users/excon/Sites/dreamscape/applications/welcome/controllers/default.py')"
p2909
sg2886
S'compile2'
p2910
sasS'pyver'
p2911
S'Python 2.6.1: /usr/bin/python'
p2912
sS'session'
p2913
g68
(g69
g70
NtRp2914
(dp2915
g73
(dp2916
sg75
(lp2917
g68
(g77
g70
NtRp2918
(dp2919
g73
(dp2920
g81
I5
ssg82
Nsg75
(lp2921
sbasbsS'etype'
p2922
S"<type 'exceptions.IndentationError'>"
p2923
sS'date'
p2924
S'Wed Sep 28 13:49:25 2011'
p2925
sS'response'
p2926
g68
(g69
g70
NtRp2927
(dp2928
g73
(dp2929
sg75
(lp2930
g68
(g77
g70
NtRp2931
(dp2932
g73
(dp2933
g81
I5
ssg82
Nsg75
(lp2934
g68
(g84
g70
NtRp2935
(dp2936
g73
(dp2937
sg82
g2931
sg75
(lp2938
g68
(g89
g70
NtRp2939
(dp2940
g73
(dp2941
g93
g94
ssg82
g2935
sg75
(lp2942
g166
asbag68
(g89
g70
NtRp2943
(dp2944
g73
(dp2945
g100
g101
ssg82
g2935
sg75
(lp2946
S':'
asbag68
(g89
g70
NtRp2947
(dp2948
g73
(dp2949
sg82
g2935
sg75
(lp2950
g68
(g69
g70
NtRp2951
(dp2952
g73
(dp2953
g81
I5
ssg82
g2947
sg75
(lp2954
S'<cStringIO.StringO object at 0x1015c5960>'
p2955
asbasbasbag68
(g84
g70
NtRp2956
(dp2957
g73
(dp2958
sg82
g2931
sg75
(lp2959
g68
(g89
g70
NtRp2960
(dp2961
g73
(dp2962
g93
g94
ssg82
g2956
sg75
(lp2963
g232
asbag68
(g89
g70
NtRp2964
(dp2965
g73
(dp2966
g100
g101
ssg82
g2956
sg75
(lp2967
S':'
asbag68
(g89
g70
NtRp2968
(dp2969
g73
(dp2970
sg82
g2956
sg75
(lp2971
g68
(g69
g70
NtRp2972
(dp2973
g73
(dp2974
g81
I5
ssg82
g2968
sg75
(lp2975
g68
(g77
g70
NtRp2976
(dp2977
g73
(dp2978
g81
I4
ssg82
Nsg75
(lp2979
g68
(g84
g70
NtRp2980
(dp2981
g73
(dp2982
sg82
g2976
sg75
(lp2983
g68
(g89
g70
NtRp2984
(dp2985
g73
(dp2986
g93
g94
ssg82
g2980
sg75
(lp2987
S'session_id_welcome'
p2988
asbag68
(g89
g70
NtRp2989
(dp2990
g73
(dp2991
g100
g101
ssg82
g2980
sg75
(lp2992
S':'
asbag68
(g89
g70
NtRp2993
(dp2994
g73
(dp2995
sg82
g2980
sg75
(lp2996
g68
(g69
g70
NtRp2997
(dp2998
g73
(dp2999
g81
I4
ssg82
g2993
sg75
(lp3000
g68
(g77
g70
NtRp3001
(dp3002
g73
(dp3003
g81
I3
ssg82
Nsg75
(lp3004
g68
(g84
g70
NtRp3005
(dp3006
g73
(dp3007
sg82
g3001
sg75
(lp3008
g68
(g89
g70
NtRp3009
(dp3010
g73
(dp3011
g93
g94
ssg82
g3005
sg75
(lp3012
g282
asbag68
(g89
g70
NtRp3013
(dp3014
g73
(dp3015
g100
g101
ssg82
g3005
sg75
(lp3016
S':'
asbag68
(g89
g70
NtRp3017
(dp3018
g73
(dp3019
sg82
g3005
sg75
(lp3020
g68
(g69
g70
NtRp3021
(dp3022
g73
(dp3023
g81
I3
ssg82
g3017
sg75
(lp3024
S''
asbasbasbag68
(g84
g70
NtRp3025
(dp3026
g73
(dp3027
sg82
g3001
sg75
(lp3028
g68
(g89
g70
NtRp3029
(dp3030
g73
(dp3031
g93
g94
ssg82
g3025
sg75
(lp3032
g303
asbag68
(g89
g70
NtRp3033
(dp3034
g73
(dp3035
g100
g101
ssg82
g3025
sg75
(lp3036
S':'
asbag68
(g89
g70
NtRp3037
(dp3038
g73
(dp3039
sg82
g3025
sg75
(lp3040
g68
(g69
g70
NtRp3041
(dp3042
g73
(dp3043
g81
I3
ssg82
g3037
sg75
(lp3044
S''
asbasbasbag68
(g84
g70
NtRp3045
(dp3046
g73
(dp3047
sg82
g3001
sg75
(lp3048
g68
(g89
g70
NtRp3049
(dp3050
g73
(dp3051
g93
g94
ssg82
g3045
sg75
(lp3052
g324
asbag68
(g89
g70
NtRp3053
(dp3054
g73
(dp3055
g100
g101
ssg82
g3045
sg75
(lp3056
S':'
asbag68
(g89
g70
NtRp3057
(dp3058
g73
(dp3059
sg82
g3045
sg75
(lp3060
g68
(g69
g70
NtRp3061
(dp3062
g73
(dp3063
g81
I3
ssg82
g3057
sg75
(lp3064
S''
asbasbasbag68
(g84
g70
NtRp3065
(dp3066
g73
(dp3067
sg82
g3001
sg75
(lp3068
g68
(g89
g70
NtRp3069
(dp3070
g73
(dp3071
g93
g94
ssg82
g3065
sg75
(lp3072
g345
asbag68
(g89
g70
NtRp3073
(dp3074
g73
(dp3075
g100
g101
ssg82
g3065
sg75
(lp3076
S':'
asbag68
(g89
g70
NtRp3077
(dp3078
g73
(dp3079
sg82
g3065
sg75
(lp3080
g68
(g69
g70
NtRp3081
(dp3082
g73
(dp3083
g81
I3
ssg82
g3077
sg75
(lp3084
S''
asbasbasbag68
(g84
g70
NtRp3085
(dp3086
g73
(dp3087
sg82
g3001
sg75
(lp3088
g68
(g89
g70
NtRp3089
(dp3090
g73
(dp3091
g93
g94
ssg82
g3085
sg75
(lp3092
g366
asbag68
(g89
g70
NtRp3093
(dp3094
g73
(dp3095
g100
g101
ssg82
g3085
sg75
(lp3096
S':'
asbag68
(g89
g70
NtRp3097
(dp3098
g73
(dp3099
sg82
g3085
sg75
(lp3100
g68
(g69
g70
NtRp3101
(dp3102
g73
(dp3103
g81
I3
ssg82
g3097
sg75
(lp3104
S''
asbasbasbag68
(g84
g70
NtRp3105
(dp3106
g73
(dp3107
sg82
g3001
sg75
(lp3108
g68
(g89
g70
NtRp3109
(dp3110
g73
(dp3111
g93
g94
ssg82
g3105
sg75
(lp3112
g387
asbag68
(g89
g70
NtRp3113
(dp3114
g73
(dp3115
g100
g101
ssg82
g3105
sg75
(lp3116
S':'
asbag68
(g89
g70
NtRp3117
(dp3118
g73
(dp3119
sg82
g3105
sg75
(lp3120
g68
(g69
g70
NtRp3121
(dp3122
g73
(dp3123
g81
I3
ssg82
g3117
sg75
(lp3124
S'/'
asbasbasbag68
(g84
g70
NtRp3125
(dp3126
g73
(dp3127
sg82
g3001
sg75
(lp3128
g68
(g89
g70
NtRp3129
(dp3130
g73
(dp3131
g93
g94
ssg82
g3125
sg75
(lp3132
g408
asbag68
(g89
g70
NtRp3133
(dp3134
g73
(dp3135
g100
g101
ssg82
g3125
sg75
(lp3136
S':'
asbag68
(g89
g70
NtRp3137
(dp3138
g73
(dp3139
sg82
g3125
sg75
(lp3140
g68
(g69
g70
NtRp3141
(dp3142
g73
(dp3143
g81
I3
ssg82
g3137
sg75
(lp3144
S''
asbasbasbag68
(g84
g70
NtRp3145
(dp3146
g73
(dp3147
sg82
g3001
sg75
(lp3148
g68
(g89
g70
NtRp3149
(dp3150
g73
(dp3151
g93
g94
ssg82
g3145
sg75
(lp3152
g429
asbag68
(g89
g70
NtRp3153
(dp3154
g73
(dp3155
g100
g101
ssg82
g3145
sg75
(lp3156
S':'
asbag68
(g89
g70
NtRp3157
(dp3158
g73
(dp3159
sg82
g3145
sg75
(lp3160
g68
(g69
g70
NtRp3161
(dp3162
g73
(dp3163
g81
I3
ssg82
g3157
sg75
(lp3164
S''
asbasbasbasbasbasbasbasbasbasbasbag68
(g84
g70
NtRp3165
(dp3166
g73
(dp3167
sg82
g2931
sg75
(lp3168
g68
(g89
g70
NtRp3169
(dp3170
g73
(dp3171
g93
g94
ssg82
g3165
sg75
(lp3172
S'files'
p3173
asbag68
(g89
g70
NtRp3174
(dp3175
g73
(dp3176
g100
g101
ssg82
g3165
sg75
(lp3177
S':'
asbag68
(g89
g70
NtRp3178
(dp3179
g73
(dp3180
sg82
g3165
sg75
(lp3181
g68
(g69
g70
NtRp3182
(dp3183
g73
(dp3184
g81
I5
ssg82
g3178
sg75
(lp3185
g68
(g77
g70
NtRp3186
(dp3187
g73
(dp3188
g81
I4
ssg82
Nsg75
(lp3189
sbasbasbasbag68
(g84
g70
NtRp3190
(dp3191
g73
(dp3192
sg82
g2931
sg75
(lp3193
g68
(g89
g70
NtRp3194
(dp3195
g73
(dp3196
g93
g94
ssg82
g3190
sg75
(lp3197
S'flash'
p3198
asbag68
(g89
g70
NtRp3199
(dp3200
g73
(dp3201
g100
g101
ssg82
g3190
sg75
(lp3202
S':'
asbag68
(g89
g70
NtRp3203
(dp3204
g73
(dp3205
sg82
g3190
sg75
(lp3206
g68
(g69
g70
NtRp3207
(dp3208
g73
(dp3209
g81
I5
ssg82
g3203
sg75
(lp3210
S''
asbasbasbag68
(g84
g70
NtRp3211
(dp3212
g73
(dp3213
sg82
g2931
sg75
(lp3214
g68
(g89
g70
NtRp3215
(dp3216
g73
(dp3217
g93
g94
ssg82
g3211
sg75
(lp3218
S'generic_patterns'
p3219
asbag68
(g89
g70
NtRp3220
(dp3221
g73
(dp3222
g100
g101
ssg82
g3211
sg75
(lp3223
S':'
asbag68
(g89
g70
NtRp3224
(dp3225
g73
(dp3226
sg82
g3211
sg75
(lp3227
g68
(g69
g70
NtRp3228
(dp3229
g73
(dp3230
g81
I5
ssg82
g3224
sg75
(lp3231
g68
(g77
g70
NtRp3232
(dp3233
g73
(dp3234
g81
I4
ssg82
Nsg75
(lp3235
g68
(g84
g70
NtRp3236
(dp3237
g73
(dp3238
sg82
g3232
sg75
(lp3239
g68
(g89
g70
NtRp3240
(dp3241
g73
(dp3242
sg82
g3236
sg75
(lp3243
g68
(g69
g70
NtRp3244
(dp3245
g73
(dp3246
g81
I4
ssg82
g3240
sg75
(lp3247
S'*'
asbasbasbasbasbasbasbag68
(g84
g70
NtRp3248
(dp3249
g73
(dp3250
sg82
g2931
sg75
(lp3251
g68
(g89
g70
NtRp3252
(dp3253
g73
(dp3254
g93
g94
ssg82
g3248
sg75
(lp3255
S'headers'
p3256
asbag68
(g89
g70
NtRp3257
(dp3258
g73
(dp3259
g100
g101
ssg82
g3248
sg75
(lp3260
S':'
asbag68
(g89
g70
NtRp3261
(dp3262
g73
(dp3263
sg82
g3248
sg75
(lp3264
g68
(g69
g70
NtRp3265
(dp3266
g73
(dp3267
g81
I5
ssg82
g3261
sg75
(lp3268
g68
(g77
g70
NtRp3269
(dp3270
g73
(dp3271
g81
I4
ssg82
Nsg75
(lp3272
g68
(g84
g70
NtRp3273
(dp3274
g73
(dp3275
sg82
g3269
sg75
(lp3276
g68
(g89
g70
NtRp3277
(dp3278
g73
(dp3279
g93
g94
ssg82
g3273
sg75
(lp3280
S'Cache-Control'
p3281
asbag68
(g89
g70
NtRp3282
(dp3283
g73
(dp3284
g100
g101
ssg82
g3273
sg75
(lp3285
S':'
asbag68
(g89
g70
NtRp3286
(dp3287
g73
(dp3288
sg82
g3273
sg75
(lp3289
g68
(g69
g70
NtRp3290
(dp3291
g73
(dp3292
g81
I4
ssg82
g3286
sg75
(lp3293
S'no-store, no-cache, must-revalidate, post-check=0, pre-check=0'
p3294
asbasbasbag68
(g84
g70
NtRp3295
(dp3296
g73
(dp3297
sg82
g3269
sg75
(lp3298
g68
(g89
g70
NtRp3299
(dp3300
g73
(dp3301
g93
g94
ssg82
g3295
sg75
(lp3302
S'Content-Type'
p3303
asbag68
(g89
g70
NtRp3304
(dp3305
g73
(dp3306
g100
g101
ssg82
g3295
sg75
(lp3307
S':'
asbag68
(g89
g70
NtRp3308
(dp3309
g73
(dp3310
sg82
g3295
sg75
(lp3311
g68
(g69
g70
NtRp3312
(dp3313
g73
(dp3314
g81
I4
ssg82
g3308
sg75
(lp3315
S'text/html; charset=utf-8'
p3316
asbasbasbag68
(g84
g70
NtRp3317
(dp3318
g73
(dp3319
sg82
g3269
sg75
(lp3320
g68
(g89
g70
NtRp3321
(dp3322
g73
(dp3323
g93
g94
ssg82
g3317
sg75
(lp3324
S'Expires'
p3325
asbag68
(g89
g70
NtRp3326
(dp3327
g73
(dp3328
g100
g101
ssg82
g3317
sg75
(lp3329
S':'
asbag68
(g89
g70
NtRp3330
(dp3331
g73
(dp3332
sg82
g3317
sg75
(lp3333
g68
(g69
g70
NtRp3334
(dp3335
g73
(dp3336
g81
I4
ssg82
g3330
sg75
(lp3337
S'Wed, 28 Sep 2011 20:49:25 GMT'
p3338
asbasbasbag68
(g84
g70
NtRp3339
(dp3340
g73
(dp3341
sg82
g3269
sg75
(lp3342
g68
(g89
g70
NtRp3343
(dp3344
g73
(dp3345
g93
g94
ssg82
g3339
sg75
(lp3346
S'Pragma'
p3347
asbag68
(g89
g70
NtRp3348
(dp3349
g73
(dp3350
g100
g101
ssg82
g3339
sg75
(lp3351
S':'
asbag68
(g89
g70
NtRp3352
(dp3353
g73
(dp3354
sg82
g3339
sg75
(lp3355
g68
(g69
g70
NtRp3356
(dp3357
g73
(dp3358
g81
I4
ssg82
g3352
sg75
(lp3359
S'no-cache'
p3360
asbasbasbag68
(g84
g70
NtRp3361
(dp3362
g73
(dp3363
sg82
g3269
sg75
(lp3364
g68
(g89
g70
NtRp3365
(dp3366
g73
(dp3367
g93
g94
ssg82
g3361
sg75
(lp3368
S'X-Powered-By'
p3369
asbag68
(g89
g70
NtRp3370
(dp3371
g73
(dp3372
g100
g101
ssg82
g3361
sg75
(lp3373
S':'
asbag68
(g89
g70
NtRp3374
(dp3375
g73
(dp3376
sg82
g3361
sg75
(lp3377
g68
(g69
g70
NtRp3378
(dp3379
g73
(dp3380
g81
I4
ssg82
g3374
sg75
(lp3381
S'web2py'
p3382
asbasbasbasbasbasbasbag68
(g84
g70
NtRp3383
(dp3384
g73
(dp3385
sg82
g2931
sg75
(lp3386
g68
(g89
g70
NtRp3387
(dp3388
g73
(dp3389
g93
g94
ssg82
g3383
sg75
(lp3390
S'menu'
p3391
asbag68
(g89
g70
NtRp3392
(dp3393
g73
(dp3394
g100
g101
ssg82
g3383
sg75
(lp3395
S':'
asbag68
(g89
g70
NtRp3396
(dp3397
g73
(dp3398
sg82
g3383
sg75
(lp3399
g68
(g69
g70
NtRp3400
(dp3401
g73
(dp3402
g81
I5
ssg82
g3396
sg75
(lp3403
g68
(g77
g70
NtRp3404
(dp3405
g73
(dp3406
g81
I4
ssg82
Nsg75
(lp3407
g68
(g84
g70
NtRp3408
(dp3409
g73
(dp3410
sg82
g3404
sg75
(lp3411
g68
(g89
g70
NtRp3412
(dp3413
g73
(dp3414
sg82
g3408
sg75
(lp3415
g68
(g69
g70
NtRp3416
(dp3417
g73
(dp3418
g81
I4
ssg82
g3412
sg75
(lp3419
g68
(g77
g70
NtRp3420
(dp3421
g73
(dp3422
g81
I3
ssg82
Nsg75
(lp3423
g68
(g84
g70
NtRp3424
(dp3425
g73
(dp3426
sg82
g3420
sg75
(lp3427
g68
(g89
g70
NtRp3428
(dp3429
g73
(dp3430
sg82
g3424
sg75
(lp3431
g68
(g69
g70
NtRp3432
(dp3433
g73
(dp3434
g81
I3
ssg82
g3428
sg75
(lp3435
cgluon.languages
lazyT_unpickle
p3436
(S's\x04\x00\x00\x00Home'
tRp3437
asbasbasbag68
(g84
g70
NtRp3438
(dp3439
g73
(dp3440
sg82
g3420
sg75
(lp3441
g68
(g89
g70
NtRp3442
(dp3443
g73
(dp3444
sg82
g3438
sg75
(lp3445
g68
(g69
g70
NtRp3446
(dp3447
g73
(dp3448
g81
I3
ssg82
g3442
sg75
(lp3449
g111
asbasbasbag68
(g84
g70
NtRp3450
(dp3451
g73
(dp3452
sg82
g3420
sg75
(lp3453
g68
(g89
g70
NtRp3454
(dp3455
g73
(dp3456
sg82
g3450
sg75
(lp3457
g68
(g69
g70
NtRp3458
(dp3459
g73
(dp3460
g81
I3
ssg82
g3454
sg75
(lp3461
S'/welcome/default/index'
p3462
asbasbasbag68
(g84
g70
NtRp3463
(dp3464
g73
(dp3465
sg82
g3420
sg75
(lp3466
g68
(g89
g70
NtRp3467
(dp3468
g73
(dp3469
sg82
g3463
sg75
(lp3470
g68
(g69
g70
NtRp3471
(dp3472
g73
(dp3473
g81
I3
ssg82
g3467
sg75
(lp3474
g68
(g77
g70
NtRp3475
(dp3476
g73
(dp3477
g81
I2
ssg82
Nsg75
(lp3478
sbasbasbasbasbasbasbasbag68
(g84
g70
NtRp3479
(dp3480
g73
(dp3481
sg82
g3404
sg75
(lp3482
g68
(g89
g70
NtRp3483
(dp3484
g73
(dp3485
sg82
g3479
sg75
(lp3486
g68
(g69
g70
NtRp3487
(dp3488
g73
(dp3489
g81
I4
ssg82
g3483
sg75
(lp3490
g68
(g77
g70
NtRp3491
(dp3492
g73
(dp3493
g81
I3
ssg82
Nsg75
(lp3494
g68
(g84
g70
NtRp3495
(dp3496
g73
(dp3497
sg82
g3491
sg75
(lp3498
g68
(g89
g70
NtRp3499
(dp3500
g73
(dp3501
sg82
g3495
sg75
(lp3502
g68
(g69
g70
NtRp3503
(dp3504
g73
(dp3505
g81
I3
ssg82
g3499
sg75
(lp3506
g3436
(S's\x08\x00\x00\x00This App'
tRp3507
asbasbasbag68
(g84
g70
NtRp3508
(dp3509
g73
(dp3510
sg82
g3491
sg75
(lp3511
g68
(g89
g70
NtRp3512
(dp3513
g73
(dp3514
sg82
g3508
sg75
(lp3515
g68
(g69
g70
NtRp3516
(dp3517
g73
(dp3518
g81
I3
ssg82
g3512
sg75
(lp3519
g111
asbasbasbag68
(g84
g70
NtRp3520
(dp3521
g73
(dp3522
sg82
g3491
sg75
(lp3523
g68
(g89
g70
NtRp3524
(dp3525
g73
(dp3526
sg82
g3520
sg75
(lp3527
g68
(g69
g70
NtRp3528
(dp3529
g73
(dp3530
g81
I3
ssg82
g3524
sg75
(lp3531
S'/admin/default/design/welcome'
p3532
asbasbasbag68
(g84
g70
NtRp3533
(dp3534
g73
(dp3535
sg82
g3491
sg75
(lp3536
g68
(g89
g70
NtRp3537
(dp3538
g73
(dp3539
sg82
g3533
sg75
(lp3540
g68
(g69
g70
NtRp3541
(dp3542
g73
(dp3543
g81
I3
ssg82
g3537
sg75
(lp3544
g68
(g77
g70
NtRp3545
(dp3546
g73
(dp3547
g81
I2
ssg82
Nsg75
(lp3548
g68
(g84
g70
NtRp3549
(dp3550
g73
(dp3551
sg82
g3545
sg75
(lp3552
g68
(g89
g70
NtRp3553
(dp3554
g73
(dp3555
sg82
g3549
sg75
(lp3556
g68
(g69
g70
NtRp3557
(dp3558
g73
(dp3559
g81
I2
ssg82
g3553
sg75
(lp3560
g68
(g77
g70
NtRp3561
(dp3562
g73
(dp3563
g81
I1
ssg82
Nsg75
(lp3564
g68
(g84
g70
NtRp3565
(dp3566
g73
(dp3567
sg82
g3561
sg75
(lp3568
g68
(g89
g70
NtRp3569
(dp3570
g73
(dp3571
sg82
g3565
sg75
(lp3572
g68
(g69
g70
NtRp3573
(dp3574
g73
(dp3575
g81
I1
ssg82
g3569
sg75
(lp3576
g3436
(S's\n\x00\x00\x00Controller'
tRp3577
asbasbasbag68
(g84
g70
NtRp3578
(dp3579
g73
(dp3580
sg82
g3561
sg75
(lp3581
g68
(g89
g70
NtRp3582
(dp3583
g73
(dp3584
sg82
g3578
sg75
(lp3585
g68
(g69
g70
NtRp3586
(dp3587
g73
(dp3588
g81
I1
ssg82
g3582
sg75
(lp3589
I00
asbasbasbag68
(g84
g70
NtRp3590
(dp3591
g73
(dp3592
sg82
g3561
sg75
(lp3593
g68
(g89
g70
NtRp3594
(dp3595
g73
(dp3596
sg82
g3590
sg75
(lp3597
g68
(g69
g70
NtRp3598
(dp3599
g73
(dp3600
g81
I1
ssg82
g3594
sg75
(lp3601
S'/admin/default/edit/welcome/controllers/default.py'
p3602
asbasbasbasbasbasbasbag68
(g84
g70
NtRp3603
(dp3604
g73
(dp3605
sg82
g3545
sg75
(lp3606
g68
(g89
g70
NtRp3607
(dp3608
g73
(dp3609
sg82
g3603
sg75
(lp3610
g68
(g69
g70
NtRp3611
(dp3612
g73
(dp3613
g81
I2
ssg82
g3607
sg75
(lp3614
g68
(g77
g70
NtRp3615
(dp3616
g73
(dp3617
g81
I1
ssg82
Nsg75
(lp3618
g68
(g84
g70
NtRp3619
(dp3620
g73
(dp3621
sg82
g3615
sg75
(lp3622
g68
(g89
g70
NtRp3623
(dp3624
g73
(dp3625
sg82
g3619
sg75
(lp3626
g68
(g69
g70
NtRp3627
(dp3628
g73
(dp3629
g81
I1
ssg82
g3623
sg75
(lp3630
g3436
(S's\x04\x00\x00\x00View'
tRp3631
asbasbasbag68
(g84
g70
NtRp3632
(dp3633
g73
(dp3634
sg82
g3615
sg75
(lp3635
g68
(g89
g70
NtRp3636
(dp3637
g73
(dp3638
sg82
g3632
sg75
(lp3639
g68
(g69
g70
NtRp3640
(dp3641
g73
(dp3642
g81
I1
ssg82
g3636
sg75
(lp3643
I00
asbasbasbag68
(g84
g70
NtRp3644
(dp3645
g73
(dp3646
sg82
g3615
sg75
(lp3647
g68
(g89
g70
NtRp3648
(dp3649
g73
(dp3650
sg82
g3644
sg75
(lp3651
g68
(g69
g70
NtRp3652
(dp3653
g73
(dp3654
g81
I1
ssg82
g3648
sg75
(lp3655
S'/admin/default/edit/welcome/views/default/coming_soon.html'
p3656
asbasbasbasbasbasbasbag68
(g84
g70
NtRp3657
(dp3658
g73
(dp3659
sg82
g3545
sg75
(lp3660
g68
(g89
g70
NtRp3661
(dp3662
g73
(dp3663
sg82
g3657
sg75
(lp3664
g68
(g69
g70
NtRp3665
(dp3666
g73
(dp3667
g81
I2
ssg82
g3661
sg75
(lp3668
g68
(g77
g70
NtRp3669
(dp3670
g73
(dp3671
g81
I1
ssg82
Nsg75
(lp3672
g68
(g84
g70
NtRp3673
(dp3674
g73
(dp3675
sg82
g3669
sg75
(lp3676
g68
(g89
g70
NtRp3677
(dp3678
g73
(dp3679
sg82
g3673
sg75
(lp3680
g68
(g69
g70
NtRp3681
(dp3682
g73
(dp3683
g81
I1
ssg82
g3677
sg75
(lp3684
g3436
(S's\x06\x00\x00\x00Layout'
tRp3685
asbasbasbag68
(g84
g70
NtRp3686
(dp3687
g73
(dp3688
sg82
g3669
sg75
(lp3689
g68
(g89
g70
NtRp3690
(dp3691
g73
(dp3692
sg82
g3686
sg75
(lp3693
g68
(g69
g70
NtRp3694
(dp3695
g73
(dp3696
g81
I1
ssg82
g3690
sg75
(lp3697
I00
asbasbasbag68
(g84
g70
NtRp3698
(dp3699
g73
(dp3700
sg82
g3669
sg75
(lp3701
g68
(g89
g70
NtRp3702
(dp3703
g73
(dp3704
sg82
g3698
sg75
(lp3705
g68
(g69
g70
NtRp3706
(dp3707
g73
(dp3708
g81
I1
ssg82
g3702
sg75
(lp3709
S'/admin/default/edit/welcome/views/layout.html'
p3710
asbasbasbasbasbasbasbag68
(g84
g70
NtRp3711
(dp3712
g73
(dp3713
sg82
g3545
sg75
(lp3714
g68
(g89
g70
NtRp3715
(dp3716
g73
(dp3717
sg82
g3711
sg75
(lp3718
g68
(g69
g70
NtRp3719
(dp3720
g73
(dp3721
g81
I2
ssg82
g3715
sg75
(lp3722
g68
(g77
g70
NtRp3723
(dp3724
g73
(dp3725
g81
I1
ssg82
Nsg75
(lp3726
g68
(g84
g70
NtRp3727
(dp3728
g73
(dp3729
sg82
g3723
sg75
(lp3730
g68
(g89
g70
NtRp3731
(dp3732
g73
(dp3733
sg82
g3727
sg75
(lp3734
g68
(g69
g70
NtRp3735
(dp3736
g73
(dp3737
g81
I1
ssg82
g3731
sg75
(lp3738
g3436
(S's\n\x00\x00\x00Stylesheet'
tRp3739
asbasbasbag68
(g84
g70
NtRp3740
(dp3741
g73
(dp3742
sg82
g3723
sg75
(lp3743
g68
(g89
g70
NtRp3744
(dp3745
g73
(dp3746
sg82
g3740
sg75
(lp3747
g68
(g69
g70
NtRp3748
(dp3749
g73
(dp3750
g81
I1
ssg82
g3744
sg75
(lp3751
I00
asbasbasbag68
(g84
g70
NtRp3752
(dp3753
g73
(dp3754
sg82
g3723
sg75
(lp3755
g68
(g89
g70
NtRp3756
(dp3757
g73
(dp3758
sg82
g3752
sg75
(lp3759
g68
(g69
g70
NtRp3760
(dp3761
g73
(dp3762
g81
I1
ssg82
g3756
sg75
(lp3763
S'/admin/default/edit/welcome/static/base.css'
p3764
asbasbasbasbasbasbasbag68
(g84
g70
NtRp3765
(dp3766
g73
(dp3767
sg82
g3545
sg75
(lp3768
g68
(g89
g70
NtRp3769
(dp3770
g73
(dp3771
sg82
g3765
sg75
(lp3772
g68
(g69
g70
NtRp3773
(dp3774
g73
(dp3775
g81
I2
ssg82
g3769
sg75
(lp3776
g68
(g77
g70
NtRp3777
(dp3778
g73
(dp3779
g81
I1
ssg82
Nsg75
(lp3780
g68
(g84
g70
NtRp3781
(dp3782
g73
(dp3783
sg82
g3777
sg75
(lp3784
g68
(g89
g70
NtRp3785
(dp3786
g73
(dp3787
sg82
g3781
sg75
(lp3788
g68
(g69
g70
NtRp3789
(dp3790
g73
(dp3791
g81
I1
ssg82
g3785
sg75
(lp3792
g3436
(S's\x08\x00\x00\x00DB Model'
tRp3793
asbasbasbag68
(g84
g70
NtRp3794
(dp3795
g73
(dp3796
sg82
g3777
sg75
(lp3797
g68
(g89
g70
NtRp3798
(dp3799
g73
(dp3800
sg82
g3794
sg75
(lp3801
g68
(g69
g70
NtRp3802
(dp3803
g73
(dp3804
g81
I1
ssg82
g3798
sg75
(lp3805
I00
asbasbasbag68
(g84
g70
NtRp3806
(dp3807
g73
(dp3808
sg82
g3777
sg75
(lp3809
g68
(g89
g70
NtRp3810
(dp3811
g73
(dp3812
sg82
g3806
sg75
(lp3813
g68
(g69
g70
NtRp3814
(dp3815
g73
(dp3816
g81
I1
ssg82
g3810
sg75
(lp3817
S'/admin/default/edit/welcome/models/db.py'
p3818
asbasbasbasbasbasbasbag68
(g84
g70
NtRp3819
(dp3820
g73
(dp3821
sg82
g3545
sg75
(lp3822
g68
(g89
g70
NtRp3823
(dp3824
g73
(dp3825
sg82
g3819
sg75
(lp3826
g68
(g69
g70
NtRp3827
(dp3828
g73
(dp3829
g81
I2
ssg82
g3823
sg75
(lp3830
g68
(g77
g70
NtRp3831
(dp3832
g73
(dp3833
g81
I1
ssg82
Nsg75
(lp3834
g68
(g84
g70
NtRp3835
(dp3836
g73
(dp3837
sg82
g3831
sg75
(lp3838
g68
(g89
g70
NtRp3839
(dp3840
g73
(dp3841
sg82
g3835
sg75
(lp3842
g68
(g69
g70
NtRp3843
(dp3844
g73
(dp3845
g81
I1
ssg82
g3839
sg75
(lp3846
g3436
(S's\n\x00\x00\x00Menu Model'
tRp3847
asbasbasbag68
(g84
g70
NtRp3848
(dp3849
g73
(dp3850
sg82
g3831
sg75
(lp3851
g68
(g89
g70
NtRp3852
(dp3853
g73
(dp3854
sg82
g3848
sg75
(lp3855
g68
(g69
g70
NtRp3856
(dp3857
g73
(dp3858
g81
I1
ssg82
g3852
sg75
(lp3859
I00
asbasbasbag68
(g84
g70
NtRp3860
(dp3861
g73
(dp3862
sg82
g3831
sg75
(lp3863
g68
(g89
g70
NtRp3864
(dp3865
g73
(dp3866
sg82
g3860
sg75
(lp3867
g68
(g69
g70
NtRp3868
(dp3869
g73
(dp3870
g81
I1
ssg82
g3864
sg75
(lp3871
S'/admin/default/edit/welcome/models/menu.py'
p3872
asbasbasbasbasbasbasbag68
(g84
g70
NtRp3873
(dp3874
g73
(dp3875
sg82
g3545
sg75
(lp3876
g68
(g89
g70
NtRp3877
(dp3878
g73
(dp3879
sg82
g3873
sg75
(lp3880
g68
(g69
g70
NtRp3881
(dp3882
g73
(dp3883
g81
I2
ssg82
g3877
sg75
(lp3884
g68
(g77
g70
NtRp3885
(dp3886
g73
(dp3887
g81
I1
ssg82
Nsg75
(lp3888
g68
(g84
g70
NtRp3889
(dp3890
g73
(dp3891
sg82
g3885
sg75
(lp3892
g68
(g89
g70
NtRp3893
(dp3894
g73
(dp3895
sg82
g3889
sg75
(lp3896
g68
(g69
g70
NtRp3897
(dp3898
g73
(dp3899
g81
I1
ssg82
g3893
sg75
(lp3900
g3436
(S's\x08\x00\x00\x00Database'
tRp3901
asbasbasbag68
(g84
g70
NtRp3902
(dp3903
g73
(dp3904
sg82
g3885
sg75
(lp3905
g68
(g89
g70
NtRp3906
(dp3907
g73
(dp3908
sg82
g3902
sg75
(lp3909
g68
(g69
g70
NtRp3910
(dp3911
g73
(dp3912
g81
I1
ssg82
g3906
sg75
(lp3913
I00
asbasbasbag68
(g84
g70
NtRp3914
(dp3915
g73
(dp3916
sg82
g3885
sg75
(lp3917
g68
(g89
g70
NtRp3918
(dp3919
g73
(dp3920
sg82
g3914
sg75
(lp3921
g68
(g69
g70
NtRp3922
(dp3923
g73
(dp3924
g81
I1
ssg82
g3918
sg75
(lp3925
S'/welcome/appadmin/index'
p3926
asbasbasbasbasbasbasbag68
(g84
g70
NtRp3927
(dp3928
g73
(dp3929
sg82
g3545
sg75
(lp3930
g68
(g89
g70
NtRp3931
(dp3932
g73
(dp3933
sg82
g3927
sg75
(lp3934
g68
(g69
g70
NtRp3935
(dp3936
g73
(dp3937
g81
I2
ssg82
g3931
sg75
(lp3938
g68
(g77
g70
NtRp3939
(dp3940
g73
(dp3941
g81
I1
ssg82
Nsg75
(lp3942
g68
(g84
g70
NtRp3943
(dp3944
g73
(dp3945
sg82
g3939
sg75
(lp3946
g68
(g89
g70
NtRp3947
(dp3948
g73
(dp3949
sg82
g3943
sg75
(lp3950
g68
(g69
g70
NtRp3951
(dp3952
g73
(dp3953
g81
I1
ssg82
g3947
sg75
(lp3954
g3436
(S's\x06\x00\x00\x00Errors'
tRp3955
asbasbasbag68
(g84
g70
NtRp3956
(dp3957
g73
(dp3958
sg82
g3939
sg75
(lp3959
g68
(g89
g70
NtRp3960
(dp3961
g73
(dp3962
sg82
g3956
sg75
(lp3963
g68
(g69
g70
NtRp3964
(dp3965
g73
(dp3966
g81
I1
ssg82
g3960
sg75
(lp3967
I00
asbasbasbag68
(g84
g70
NtRp3968
(dp3969
g73
(dp3970
sg82
g3939
sg75
(lp3971
g68
(g89
g70
NtRp3972
(dp3973
g73
(dp3974
sg82
g3968
sg75
(lp3975
g68
(g69
g70
NtRp3976
(dp3977
g73
(dp3978
g81
I1
ssg82
g3972
sg75
(lp3979
S'/admin/default/errors/welcome'
p3980
asbasbasbasbasbasbasbag68
(g84
g70
NtRp3981
(dp3982
g73
(dp3983
sg82
g3545
sg75
(lp3984
g68
(g89
g70
NtRp3985
(dp3986
g73
(dp3987
sg82
g3981
sg75
(lp3988
g68
(g69
g70
NtRp3989
(dp3990
g73
(dp3991
g81
I2
ssg82
g3985
sg75
(lp3992
g68
(g77
g70
NtRp3993
(dp3994
g73
(dp3995
g81
I1
ssg82
Nsg75
(lp3996
g68
(g84
g70
NtRp3997
(dp3998
g73
(dp3999
sg82
g3993
sg75
(lp4000
g68
(g89
g70
NtRp4001
(dp4002
g73
(dp4003
sg82
g3997
sg75
(lp4004
g68
(g69
g70
NtRp4005
(dp4006
g73
(dp4007
g81
I1
ssg82
g4001
sg75
(lp4008
g3436
(S's\x05\x00\x00\x00About'
tRp4009
asbasbasbag68
(g84
g70
NtRp4010
(dp4011
g73
(dp4012
sg82
g3993
sg75
(lp4013
g68
(g89
g70
NtRp4014
(dp4015
g73
(dp4016
sg82
g4010
sg75
(lp4017
g68
(g69
g70
NtRp4018
(dp4019
g73
(dp4020
g81
I1
ssg82
g4014
sg75
(lp4021
I00
asbasbasbag68
(g84
g70
NtRp4022
(dp4023
g73
(dp4024
sg82
g3993
sg75
(lp4025
g68
(g89
g70
NtRp4026
(dp4027
g73
(dp4028
sg82
g4022
sg75
(lp4029
g68
(g69
g70
NtRp4030
(dp4031
g73
(dp4032
g81
I1
ssg82
g4026
sg75
(lp4033
S'/admin/default/about/welcome'
p4034
asbasbasbasbasbasbasbasbasbasbasbasbasbasbasbag68
(g84
g70
NtRp4035
(dp4036
g73
(dp4037
sg82
g3404
sg75
(lp4038
g68
(g89
g70
NtRp4039
(dp4040
g73
(dp4041
sg82
g4035
sg75
(lp4042
g68
(g69
g70
NtRp4043
(dp4044
g73
(dp4045
g81
I4
ssg82
g4039
sg75
(lp4046
g68
(g77
g70
NtRp4047
(dp4048
g73
(dp4049
g81
I3
ssg82
Nsg75
(lp4050
g68
(g84
g70
NtRp4051
(dp4052
g73
(dp4053
sg82
g4047
sg75
(lp4054
g68
(g89
g70
NtRp4055
(dp4056
g73
(dp4057
sg82
g4051
sg75
(lp4058
g68
(g69
g70
NtRp4059
(dp4060
g73
(dp4061
g81
I3
ssg82
g4055
sg75
(lp4062
g3436
(S's\t\x00\x00\x00Resources'
tRp4063
asbasbasbag68
(g84
g70
NtRp4064
(dp4065
g73
(dp4066
sg82
g4047
sg75
(lp4067
g68
(g89
g70
NtRp4068
(dp4069
g73
(dp4070
sg82
g4064
sg75
(lp4071
g68
(g69
g70
NtRp4072
(dp4073
g73
(dp4074
g81
I3
ssg82
g4068
sg75
(lp4075
g111
asbasbasbag68
(g84
g70
NtRp4076
(dp4077
g73
(dp4078
sg82
g4047
sg75
(lp4079
g68
(g89
g70
NtRp4080
(dp4081
g73
(dp4082
sg82
g4076
sg75
(lp4083
g68
(g69
g70
NtRp4084
(dp4085
g73
(dp4086
g81
I3
ssg82
g4080
sg75
(lp4087
S'None'
p4088
asbasbasbag68
(g84
g70
NtRp4089
(dp4090
g73
(dp4091
sg82
g4047
sg75
(lp4092
g68
(g89
g70
NtRp4093
(dp4094
g73
(dp4095
sg82
g4089
sg75
(lp4096
g68
(g69
g70
NtRp4097
(dp4098
g73
(dp4099
g81
I3
ssg82
g4093
sg75
(lp4100
g68
(g77
g70
NtRp4101
(dp4102
g73
(dp4103
g81
I2
ssg82
Nsg75
(lp4104
g68
(g84
g70
NtRp4105
(dp4106
g73
(dp4107
sg82
g4101
sg75
(lp4108
g68
(g89
g70
NtRp4109
(dp4110
g73
(dp4111
sg82
g4105
sg75
(lp4112
g68
(g69
g70
NtRp4113
(dp4114
g73
(dp4115
g81
I2
ssg82
g4109
sg75
(lp4116
g68
(g77
g70
NtRp4117
(dp4118
g73
(dp4119
g81
I1
ssg82
Nsg75
(lp4120
g68
(g84
g70
NtRp4121
(dp4122
g73
(dp4123
sg82
g4117
sg75
(lp4124
g68
(g89
g70
NtRp4125
(dp4126
g73
(dp4127
sg82
g4121
sg75
(lp4128
g68
(g69
g70
NtRp4129
(dp4130
g73
(dp4131
g81
I1
ssg82
g4125
sg75
(lp4132
g3436
(S's\r\x00\x00\x00Documentation'
tRp4133
asbasbasbag68
(g84
g70
NtRp4134
(dp4135
g73
(dp4136
sg82
g4117
sg75
(lp4137
g68
(g89
g70
NtRp4138
(dp4139
g73
(dp4140
sg82
g4134
sg75
(lp4141
g68
(g69
g70
NtRp4142
(dp4143
g73
(dp4144
g81
I1
ssg82
g4138
sg75
(lp4145
I00
asbasbasbag68
(g84
g70
NtRp4146
(dp4147
g73
(dp4148
sg82
g4117
sg75
(lp4149
g68
(g89
g70
NtRp4150
(dp4151
g73
(dp4152
sg82
g4146
sg75
(lp4153
g68
(g69
g70
NtRp4154
(dp4155
g73
(dp4156
g81
I1
ssg82
g4150
sg75
(lp4157
S'http://www.web2py.com/book'
p4158
asbasbasbag68
(g84
g70
NtRp4159
(dp4160
g73
(dp4161
sg82
g4117
sg75
(lp4162
g68
(g89
g70
NtRp4163
(dp4164
g73
(dp4165
sg82
g4159
sg75
(lp4166
g68
(g69
g70
NtRp4167
(dp4168
g73
(dp4169
g81
I1
ssg82
g4163
sg75
(lp4170
(lp4171
(g3436
(S's\x07\x00\x00\x00Preface'
tRp4172
I00
S'http://www.web2py.com/book/default/chapter/00'
p4173
tp4174
a(g3436
(S's\x0c\x00\x00\x00Introduction'
tRp4175
I00
S'http://www.web2py.com/book/default/chapter/01'
p4176
tp4177
a(g3436
(S's\x06\x00\x00\x00Python'
tRp4178
I00
S'http://www.web2py.com/book/default/chapter/02'
p4179
tp4180
a(g3436
(S's\x08\x00\x00\x00Overview'
tRp4181
I00
S'http://www.web2py.com/book/default/chapter/03'
p4182
tp4183
a(g3436
(S's\x08\x00\x00\x00The Core'
tRp4184
I00
S'http://www.web2py.com/book/default/chapter/04'
p4185
tp4186
a(g3436
(S's\t\x00\x00\x00The Views'
tRp4187
I00
S'http://www.web2py.com/book/default/chapter/05'
p4188
tp4189
a(g3436
(S's\x08\x00\x00\x00Database'
tRp4190
I00
S'http://www.web2py.com/book/default/chapter/06'
p4191
tp4192
a(g3436
(S's\x14\x00\x00\x00Forms and Validators'
tRp4193
I00
S'http://www.web2py.com/book/default/chapter/07'
p4194
tp4195
a(g3436
(S's\x0e\x00\x00\x00Access Control'
tRp4196
I00
S'http://www.web2py.com/book/default/chapter/08'
p4197
tp4198
a(g3436
(S's\x08\x00\x00\x00Services'
tRp4199
I00
S'http://www.web2py.com/book/default/chapter/09'
p4200
tp4201
a(g3436
(S's\x0c\x00\x00\x00Ajax Recipes'
tRp4202
I00
S'http://www.web2py.com/book/default/chapter/10'
p4203
tp4204
a(g3436
(S's\x12\x00\x00\x00Deployment Recipes'
tRp4205
I00
S'http://www.web2py.com/book/default/chapter/11'
p4206
tp4207
a(g3436
(S's\r\x00\x00\x00Other Recipes'
tRp4208
I00
S'http://www.web2py.com/book/default/chapter/12'
p4209
tp4210
a(g3436
(S's\r\x00\x00\x00Buy this book'
tRp4211
I00
S'http://stores.lulu.com/web2py'
p4212
tp4213
aasbasbasbasbasbasbasbag68
(g84
g70
NtRp4214
(dp4215
g73
(dp4216
sg82
g4101
sg75
(lp4217
g68
(g89
g70
NtRp4218
(dp4219
g73
(dp4220
sg82
g4214
sg75
(lp4221
g68
(g69
g70
NtRp4222
(dp4223
g73
(dp4224
g81
I2
ssg82
g4218
sg75
(lp4225
g68
(g77
g70
NtRp4226
(dp4227
g73
(dp4228
g81
I1
ssg82
Nsg75
(lp4229
g68
(g84
g70
NtRp4230
(dp4231
g73
(dp4232
sg82
g4226
sg75
(lp4233
g68
(g89
g70
NtRp4234
(dp4235
g73
(dp4236
sg82
g4230
sg75
(lp4237
g68
(g69
g70
NtRp4238
(dp4239
g73
(dp4240
g81
I1
ssg82
g4234
sg75
(lp4241
g3436
(S's\t\x00\x00\x00Community'
tRp4242
asbasbasbag68
(g84
g70
NtRp4243
(dp4244
g73
(dp4245
sg82
g4226
sg75
(lp4246
g68
(g89
g70
NtRp4247
(dp4248
g73
(dp4249
sg82
g4243
sg75
(lp4250
g68
(g69
g70
NtRp4251
(dp4252
g73
(dp4253
g81
I1
ssg82
g4247
sg75
(lp4254
I00
asbasbasbag68
(g84
g70
NtRp4255
(dp4256
g73
(dp4257
sg82
g4226
sg75
(lp4258
g68
(g89
g70
NtRp4259
(dp4260
g73
(dp4261
sg82
g4255
sg75
(lp4262
g68
(g69
g70
NtRp4263
(dp4264
g73
(dp4265
g81
I1
ssg82
g4259
sg75
(lp4266
Nasbasbasbag68
(g84
g70
NtRp4267
(dp4268
g73
(dp4269
sg82
g4226
sg75
(lp4270
g68
(g89
g70
NtRp4271
(dp4272
g73
(dp4273
sg82
g4267
sg75
(lp4274
g68
(g69
g70
NtRp4275
(dp4276
g73
(dp4277
g81
I1
ssg82
g4271
sg75
(lp4278
(lp4279
(g3436
(S's\x06\x00\x00\x00Groups'
tRp4280
I00
S'http://www.web2py.com/examples/default/usergroups'
p4281
tp4282
a(g3436
(S's\x07\x00\x00\x00Twitter'
tRp4283
I00
S'http://twitter.com/web2py'
p4284
tp4285
a(g3436
(S's\t\x00\x00\x00Live chat'
tRp4286
I00
S'http://mibbit.com/?channel=%23web2py&server=irc.mibbit.net'
p4287
tp4288
a(g3436
(S's\n\x00\x00\x00User Voice'
tRp4289
I00
S'http://web2py.uservoice.com/'
p4290
tp4291
aasbasbasbasbasbasbasbag68
(g84
g70
NtRp4292
(dp4293
g73
(dp4294
sg82
g4101
sg75
(lp4295
g68
(g89
g70
NtRp4296
(dp4297
g73
(dp4298
sg82
g4292
sg75
(lp4299
g68
(g69
g70
NtRp4300
(dp4301
g73
(dp4302
g81
I2
ssg82
g4296
sg75
(lp4303
g68
(g77
g70
NtRp4304
(dp4305
g73
(dp4306
g81
I1
ssg82
Nsg75
(lp4307
g68
(g84
g70
NtRp4308
(dp4309
g73
(dp4310
sg82
g4304
sg75
(lp4311
g68
(g89
g70
NtRp4312
(dp4313
g73
(dp4314
sg82
g4308
sg75
(lp4315
g68
(g69
g70
NtRp4316
(dp4317
g73
(dp4318
g81
I1
ssg82
g4312
sg75
(lp4319
g3436
(S's\x06\x00\x00\x00Web2py'
tRp4320
asbasbasbag68
(g84
g70
NtRp4321
(dp4322
g73
(dp4323
sg82
g4304
sg75
(lp4324
g68
(g89
g70
NtRp4325
(dp4326
g73
(dp4327
sg82
g4321
sg75
(lp4328
g68
(g69
g70
NtRp4329
(dp4330
g73
(dp4331
g81
I1
ssg82
g4325
sg75
(lp4332
I00
asbasbasbag68
(g84
g70
NtRp4333
(dp4334
g73
(dp4335
sg82
g4304
sg75
(lp4336
g68
(g89
g70
NtRp4337
(dp4338
g73
(dp4339
sg82
g4333
sg75
(lp4340
g68
(g69
g70
NtRp4341
(dp4342
g73
(dp4343
g81
I1
ssg82
g4337
sg75
(lp4344
S'http://www.web2py.com'
p4345
asbasbasbag68
(g84
g70
NtRp4346
(dp4347
g73
(dp4348
sg82
g4304
sg75
(lp4349
g68
(g89
g70
NtRp4350
(dp4351
g73
(dp4352
sg82
g4346
sg75
(lp4353
g68
(g69
g70
NtRp4354
(dp4355
g73
(dp4356
g81
I1
ssg82
g4350
sg75
(lp4357
(lp4358
(g3436
(S's\x08\x00\x00\x00Download'
tRp4359
I00
S'http://www.web2py.com/examples/default/download'
p4360
tp4361
a(g3436
(S's\x07\x00\x00\x00Support'
tRp4362
I00
S'http://www.web2py.com/examples/default/support'
p4363
tp4364
a(g3436
(S's\x0e\x00\x00\x00Quick Examples'
tRp4365
I00
S'http://web2py.com/examples/default/examples'
p4366
tp4367
a(g3436
(S's\x03\x00\x00\x00FAQ'
tRp4368
I00
S'http://web2py.com/AlterEgo'
p4369
tp4370
a(g3436
(S's\x11\x00\x00\x00Free Applications'
tRp4371
I00
S'http://web2py.com/appliances'
p4372
tp4373
a(g3436
(S's\x07\x00\x00\x00Plugins'
tRp4374
I00
S'http://web2py.com/plugins'
p4375
tp4376
a(g3436
(S's\x07\x00\x00\x00Recipes'
tRp4377
I00
S'http://web2pyslices.com/'
p4378
tp4379
a(g3436
(S's\x04\x00\x00\x00Demo'
tRp4380
I00
S'http://web2py.com/demo_admin'
p4381
tp4382
a(g3436
(S's\x08\x00\x00\x00Semantic'
tRp4383
I00
S'http://web2py.com/semantic'
p4384
tp4385
a(g3436
(S's\x07\x00\x00\x00Layouts'
tRp4386
I00
S'http://web2py.com/layouts'
p4387
tp4388
a(g3436
(S's\x06\x00\x00\x00Videos'
tRp4389
I00
S'http://www.web2py.com/examples/default/videos/'
p4390
tp4391
aasbasbasbasbasbasbasbasbasbasbasbasbasbasbasbasbasbasbasbag68
(g84
g70
NtRp4392
(dp4393
g73
(dp4394
sg82
g2931
sg75
(lp4395
g68
(g89
g70
NtRp4396
(dp4397
g73
(dp4398
g93
g94
ssg82
g4392
sg75
(lp4399
S'meta'
p4400
asbag68
(g89
g70
NtRp4401
(dp4402
g73
(dp4403
g100
g101
ssg82
g4392
sg75
(lp4404
S':'
asbag68
(g89
g70
NtRp4405
(dp4406
g73
(dp4407
sg82
g4392
sg75
(lp4408
g68
(g69
g70
NtRp4409
(dp4410
g73
(dp4411
g81
I5
ssg82
g4405
sg75
(lp4412
g68
(g77
g70
NtRp4413
(dp4414
g73
(dp4415
g81
I4
ssg82
Nsg75
(lp4416
g68
(g84
g70
NtRp4417
(dp4418
g73
(dp4419
sg82
g4413
sg75
(lp4420
g68
(g89
g70
NtRp4421
(dp4422
g73
(dp4423
g93
g94
ssg82
g4417
sg75
(lp4424
S'author'
p4425
asbag68
(g89
g70
NtRp4426
(dp4427
g73
(dp4428
g100
g101
ssg82
g4417
sg75
(lp4429
S':'
asbag68
(g89
g70
NtRp4430
(dp4431
g73
(dp4432
sg82
g4417
sg75
(lp4433
g68
(g69
g70
NtRp4434
(dp4435
g73
(dp4436
g81
I4
ssg82
g4430
sg75
(lp4437
S'Your Name <you@example.com>'
p4438
asbasbasbag68
(g84
g70
NtRp4439
(dp4440
g73
(dp4441
sg82
g4413
sg75
(lp4442
g68
(g89
g70
NtRp4443
(dp4444
g73
(dp4445
g93
g94
ssg82
g4439
sg75
(lp4446
S'copyright'
p4447
asbag68
(g89
g70
NtRp4448
(dp4449
g73
(dp4450
g100
g101
ssg82
g4439
sg75
(lp4451
S':'
asbag68
(g89
g70
NtRp4452
(dp4453
g73
(dp4454
sg82
g4439
sg75
(lp4455
g68
(g69
g70
NtRp4456
(dp4457
g73
(dp4458
g81
I4
ssg82
g4452
sg75
(lp4459
S'Copyright 2011'
p4460
asbasbasbag68
(g84
g70
NtRp4461
(dp4462
g73
(dp4463
sg82
g4413
sg75
(lp4464
g68
(g89
g70
NtRp4465
(dp4466
g73
(dp4467
g93
g94
ssg82
g4461
sg75
(lp4468
S'description'
p4469
asbag68
(g89
g70
NtRp4470
(dp4471
g73
(dp4472
g100
g101
ssg82
g4461
sg75
(lp4473
S':'
asbag68
(g89
g70
NtRp4474
(dp4475
g73
(dp4476
sg82
g4461
sg75
(lp4477
g68
(g69
g70
NtRp4478
(dp4479
g73
(dp4480
g81
I4
ssg82
g4474
sg75
(lp4481
S'a cool new app'
p4482
asbasbasbag68
(g84
g70
NtRp4483
(dp4484
g73
(dp4485
sg82
g4413
sg75
(lp4486
g68
(g89
g70
NtRp4487
(dp4488
g73
(dp4489
g93
g94
ssg82
g4483
sg75
(lp4490
S'generator'
p4491
asbag68
(g89
g70
NtRp4492
(dp4493
g73
(dp4494
g100
g101
ssg82
g4483
sg75
(lp4495
S':'
asbag68
(g89
g70
NtRp4496
(dp4497
g73
(dp4498
sg82
g4483
sg75
(lp4499
g68
(g69
g70
NtRp4500
(dp4501
g73
(dp4502
g81
I4
ssg82
g4496
sg75
(lp4503
S'Web2py Web Framework'
p4504
asbasbasbag68
(g84
g70
NtRp4505
(dp4506
g73
(dp4507
sg82
g4413
sg75
(lp4508
g68
(g89
g70
NtRp4509
(dp4510
g73
(dp4511
g93
g94
ssg82
g4505
sg75
(lp4512
S'keywords'
p4513
asbag68
(g89
g70
NtRp4514
(dp4515
g73
(dp4516
g100
g101
ssg82
g4505
sg75
(lp4517
S':'
asbag68
(g89
g70
NtRp4518
(dp4519
g73
(dp4520
sg82
g4505
sg75
(lp4521
g68
(g69
g70
NtRp4522
(dp4523
g73
(dp4524
g81
I4
ssg82
g4518
sg75
(lp4525
S'web2py, python, framework'
p4526
asbasbasbasbasbasbasbag68
(g84
g70
NtRp4527
(dp4528
g73
(dp4529
sg82
g2931
sg75
(lp4530
g68
(g89
g70
NtRp4531
(dp4532
g73
(dp4533
g93
g94
ssg82
g4527
sg75
(lp4534
S'postprocessing'
p4535
asbag68
(g89
g70
NtRp4536
(dp4537
g73
(dp4538
g100
g101
ssg82
g4527
sg75
(lp4539
S':'
asbag68
(g89
g70
NtRp4540
(dp4541
g73
(dp4542
sg82
g4527
sg75
(lp4543
g68
(g69
g70
NtRp4544
(dp4545
g73
(dp4546
g81
I5
ssg82
g4540
sg75
(lp4547
g68
(g77
g70
NtRp4548
(dp4549
g73
(dp4550
g81
I4
ssg82
Nsg75
(lp4551
sbasbasbasbag68
(g84
g70
NtRp4552
(dp4553
g73
(dp4554
sg82
g2931
sg75
(lp4555
g68
(g89
g70
NtRp4556
(dp4557
g73
(dp4558
g93
g94
ssg82
g4552
sg75
(lp4559
S'session_file'
p4560
asbag68
(g89
g70
NtRp4561
(dp4562
g73
(dp4563
g100
g101
ssg82
g4552
sg75
(lp4564
S':'
asbag68
(g89
g70
NtRp4565
(dp4566
g73
(dp4567
sg82
g4552
sg75
(lp4568
g68
(g69
g70
NtRp4569
(dp4570
g73
(dp4571
g81
I5
ssg82
g4565
sg75
(lp4572
S"<open file '/Users/excon/Sites/dreamscape/applications/welcome/sessions/127.0.0.1-fa074673-8daf-4dec-b123-b27e79f60a94', mode 'rb+' at 0x1015da250>"
p4573
asbasbasbag68
(g84
g70
NtRp4574
(dp4575
g73
(dp4576
sg82
g2931
sg75
(lp4577
g68
(g89
g70
NtRp4578
(dp4579
g73
(dp4580
g93
g94
ssg82
g4574
sg75
(lp4581
S'session_filename'
p4582
asbag68
(g89
g70
NtRp4583
(dp4584
g73
(dp4585
g100
g101
ssg82
g4574
sg75
(lp4586
S':'
asbag68
(g89
g70
NtRp4587
(dp4588
g73
(dp4589
sg82
g4574
sg75
(lp4590
g68
(g69
g70
NtRp4591
(dp4592
g73
(dp4593
g81
I5
ssg82
g4587
sg75
(lp4594
S'/Users/excon/Sites/dreamscape/applications/welcome/sessions/127.0.0.1-fa074673-8daf-4dec-b123-b27e79f60a94'
p4595
asbasbasbag68
(g84
g70
NtRp4596
(dp4597
g73
(dp4598
sg82
g2931
sg75
(lp4599
g68
(g89
g70
NtRp4600
(dp4601
g73
(dp4602
g93
g94
ssg82
g4596
sg75
(lp4603
S'session_id'
p4604
asbag68
(g89
g70
NtRp4605
(dp4606
g73
(dp4607
g100
g101
ssg82
g4596
sg75
(lp4608
S':'
asbag68
(g89
g70
NtRp4609
(dp4610
g73
(dp4611
sg82
g4596
sg75
(lp4612
g68
(g69
g70
NtRp4613
(dp4614
g73
(dp4615
g81
I5
ssg82
g4609
sg75
(lp4616
S'127.0.0.1-fa074673-8daf-4dec-b123-b27e79f60a94'
p4617
asbasbasbag68
(g84
g70
NtRp4618
(dp4619
g73
(dp4620
sg82
g2931
sg75
(lp4621
g68
(g89
g70
NtRp4622
(dp4623
g73
(dp4624
g93
g94
ssg82
g4618
sg75
(lp4625
S'session_id_name'
p4626
asbag68
(g89
g70
NtRp4627
(dp4628
g73
(dp4629
g100
g101
ssg82
g4618
sg75
(lp4630
S':'
asbag68
(g89
g70
NtRp4631
(dp4632
g73
(dp4633
sg82
g4618
sg75
(lp4634
g68
(g69
g70
NtRp4635
(dp4636
g73
(dp4637
g81
I5
ssg82
g4631
sg75
(lp4638
g2988
asbasbasbag68
(g84
g70
NtRp4639
(dp4640
g73
(dp4641
sg82
g2931
sg75
(lp4642
g68
(g89
g70
NtRp4643
(dp4644
g73
(dp4645
g93
g94
ssg82
g4639
sg75
(lp4646
S'session_locked'
p4647
asbag68
(g89
g70
NtRp4648
(dp4649
g73
(dp4650
g100
g101
ssg82
g4639
sg75
(lp4651
S':'
asbag68
(g89
g70
NtRp4652
(dp4653
g73
(dp4654
sg82
g4639
sg75
(lp4655
g68
(g69
g70
NtRp4656
(dp4657
g73
(dp4658
g81
I5
ssg82
g4652
sg75
(lp4659
g1406
asbasbasbag68
(g84
g70
NtRp4660
(dp4661
g73
(dp4662
sg82
g2931
sg75
(lp4663
g68
(g89
g70
NtRp4664
(dp4665
g73
(dp4666
g93
g94
ssg82
g4660
sg75
(lp4667
S'session_new'
p4668
asbag68
(g89
g70
NtRp4669
(dp4670
g73
(dp4671
g100
g101
ssg82
g4660
sg75
(lp4672
S':'
asbag68
(g89
g70
NtRp4673
(dp4674
g73
(dp4675
sg82
g4660
sg75
(lp4676
g68
(g69
g70
NtRp4677
(dp4678
g73
(dp4679
g81
I5
ssg82
g4673
sg75
(lp4680
g111
asbasbasbag68
(g84
g70
NtRp4681
(dp4682
g73
(dp4683
sg82
g2931
sg75
(lp4684
g68
(g89
g70
NtRp4685
(dp4686
g73
(dp4687
g93
g94
ssg82
g4681
sg75
(lp4688
S'status'
p4689
asbag68
(g89
g70
NtRp4690
(dp4691
g73
(dp4692
g100
g101
ssg82
g4681
sg75
(lp4693
S':'
asbag68
(g89
g70
NtRp4694
(dp4695
g73
(dp4696
sg82
g4681
sg75
(lp4697
g68
(g69
g70
NtRp4698
(dp4699
g73
(dp4700
g81
I5
ssg82
g4694
sg75
(lp4701
S'200'
p4702
asbasbasbag68
(g84
g70
NtRp4703
(dp4704
g73
(dp4705
sg82
g2931
sg75
(lp4706
g68
(g89
g70
NtRp4707
(dp4708
g73
(dp4709
g93
g94
ssg82
g4703
sg75
(lp4710
S'subtitle'
p4711
asbag68
(g89
g70
NtRp4712
(dp4713
g73
(dp4714
g100
g101
ssg82
g4703
sg75
(lp4715
S':'
asbag68
(g89
g70
NtRp4716
(dp4717
g73
(dp4718
sg82
g4703
sg75
(lp4719
g68
(g69
g70
NtRp4720
(dp4721
g73
(dp4722
g81
I5
ssg82
g4716
sg75
(lp4723
g3436
(S's\r\x00\x00\x00customize me!'
tRp4724
asbasbasbag68
(g84
g70
NtRp4725
(dp4726
g73
(dp4727
sg82
g2931
sg75
(lp4728
g68
(g89
g70
NtRp4729
(dp4730
g73
(dp4731
g93
g94
ssg82
g4725
sg75
(lp4732
S'title'
p4733
asbag68
(g89
g70
NtRp4734
(dp4735
g73
(dp4736
g100
g101
ssg82
g4725
sg75
(lp4737
S':'
asbag68
(g89
g70
NtRp4738
(dp4739
g73
(dp4740
sg82
g4725
sg75
(lp4741
g68
(g69
g70
NtRp4742
(dp4743
g73
(dp4744
g81
I5
ssg82
g4738
sg75
(lp4745
g133
asbasbasbag68
(g84
g70
NtRp4746
(dp4747
g73
(dp4748
sg82
g2931
sg75
(lp4749
g68
(g89
g70
NtRp4750
(dp4751
g73
(dp4752
g93
g94
ssg82
g4746
sg75
(lp4753
g2072
asbag68
(g89
g70
NtRp4754
(dp4755
g73
(dp4756
g100
g101
ssg82
g4746
sg75
(lp4757
S':'
asbag68
(g89
g70
NtRp4758
(dp4759
g73
(dp4760
sg82
g4746
sg75
(lp4761
g68
(g69
g70
NtRp4762
(dp4763
g73
(dp4764
g81
I5
ssg82
g4758
sg75
(lp4765
g2085
asbasbasbag68
(g84
g70
NtRp4766
(dp4767
g73
(dp4768
sg82
g2931
sg75
(lp4769
g68
(g89
g70
NtRp4770
(dp4771
g73
(dp4772
g93
g94
ssg82
g4766
sg75
(lp4773
S'view'
p4774
asbag68
(g89
g70
NtRp4775
(dp4776
g73
(dp4777
g100
g101
ssg82
g4766
sg75
(lp4778
S':'
asbag68
(g89
g70
NtRp4779
(dp4780
g73
(dp4781
sg82
g4766
sg75
(lp4782
g68
(g69
g70
NtRp4783
(dp4784
g73
(dp4785
g81
I5
ssg82
g4779
sg75
(lp4786
S'default/coming_soon.html'
p4787
asbasbasbasbasbsS'locals'
p4788
(dp4789
g3
S"'/Users/excon/Sites/dreamscape/applications/welcome/controllers/default.py'"
p4790
sg5
S"'# -*- coding: utf-8 -*-\\n# this file is released ...))\\n\\nresponse._vars=response._caller(coming_soon)\\n'"
p4791
sssS'traceback'
p4792
S'Traceback (most recent call last):\n  File "/Users/excon/Sites/dreamscape/gluon/restricted.py", line 193, in restricted\n    ccode = compile2(code,layer)\n  File "/Users/excon/Sites/dreamscape/gluon/restricted.py", line 179, in compile2\n    return compile(code.rstrip().replace(\'\\r\\n\',\'\\n\')+\'\\n\', layer, \'exec\')\n  File "/Users/excon/Sites/dreamscape/applications/welcome/controllers/default.py", line 24\n    INPUT(_name=\'email\', requires=IS_EMAIL(error_message=\'Invalid email\')),\n   ^\nIndentationError: unexpected indent\n'
p4793
s.