(dp1
S'output'
p2
S''
sS'layer'
p3
S'/Users/excon/Sites/dreamscape/applications/welcome/controllers/default.py'
p4
sS'code'
p5
S'# -*- coding: utf-8 -*-\n# this file is released under public domain and you can use without limitations\n\n#########################################################################\n## This is a samples controller\n## - index is the default action of any application\n## - user is required for authentication and authorization\n## - download is for downloading files uploaded in the db (does streaming)\n## - call exposes all registered services (none by default)\n#########################################################################\n\nCOMING_SOON = False\n\ndef index():\n    """\n    example action using the internationalization operator T and flash\n    rendered by views/default/index.html or views/generic.html\n    """\n    if COMING_SOON:\n        redirect(URL(r=request, f=\'coming_soon\'))\n        \n    return dict()\n    \ndef coming_soon():\n    form = SQLFORM.factory(db.invitation, submit_button=\'DREAM\', formstyle=\'table3cols\')\n            \n    if form.process().accepted:\n        db.invitation.insert(email=form.vars.email)\n        response.flash = \'You have wonderful dreams!\'\n    elif form.errors:\n        response.flash = \'Invalid Email\'\n    else:\n        response.flash = \'Type your email\'\n        \n    return dict(form=form)\n\n@auth.requires_login()\ndef dream():\n    form = SQLFORM.factory(db.invitation, submit_button=\'Add Dream\', formstyle=\'table3cols\')\n    return dict(form=form)\n\ndef user():\n    """\n    exposes:\n    http://..../[app]/default/user/login\n    http://..../[app]/default/user/logout\n    http://..../[app]/default/user/register\n    http://..../[app]/default/user/profile\n    http://..../[app]/default/user/retrieve_password\n    http://..../[app]/default/user/change_password\n    use @auth.requires_login()\n        @auth.requires_membership(\'group name\')\n        @auth.requires_permission(\'read\',\'table name\',record_id)\n    to decorate functions that need access control\n    """\n    if COMING_SOON:\n        redirect(URL(r=request, f=\'coming_soon\'))\n        \n    return dict(form=auth(next=URL(r=request, f=\'coming_soon\')))\n\n\ndef download():\n    """\n    allows downloading of uploaded files\n    http://..../[app]/default/download/[filename]\n    """\n    if COMING_SOON:\n        redirect(URL(r=request, f=\'coming_soon\'))\n    return response.download(request,db)\n\n\ndef call():\n    """\n    exposes services. for example:\n    http://..../[app]/default/call/jsonrpc\n    decorate with @services.jsonrpc the functions to expose\n    supports xml, json, xmlrpc, jsonrpc, amfrpc, rss, csv\n    """\n    if COMING_SOON:\n        redirect(URL(r=request, f=\'coming_soon\'))\n    return service()\n\n\n@auth.requires_signature()\ndef data():\n    """\n    http://..../[app]/default/data/tables\n    http://..../[app]/default/data/create/[table]\n    http://..../[app]/default/data/read/[table]/[id]\n    http://..../[app]/default/data/update/[table]/[id]\n    http://..../[app]/default/data/delete/[table]/[id]\n    http://..../[app]/default/data/select/[table]\n    http://..../[app]/default/data/search/[table]\n    but URLs bust be signed, i.e. linked with\n      A(\'table\',_href=URL(\'data/tables\',user_signature=True))\n    or with the signed load operator\n      LOAD(\'default\',\'data.load\',args=\'tables\',ajax=True,user_signature=True)\n    """\n    if COMING_SOON:\n        redirect(URL(r=request, f=\'coming_soon\'))\n    return dict(form=crud())\n\nresponse._vars=response._caller(user)\n'
p6
sS'snapshot'
p7
(dp8
S'exception'
p9
(dp10
S'__hash__'
p11
S"<method-wrapper '__hash__' of exceptions.TypeError object at 0x101008758>"
p12
sS'__setattr__'
p13
S"<method-wrapper '__setattr__' of exceptions.TypeError object at 0x101008758>"
p14
sS'__reduce_ex__'
p15
S'<built-in method __reduce_ex__ of exceptions.TypeError object at 0x101008758>'
p16
sS'__getslice__'
p17
S"<method-wrapper '__getslice__' of exceptions.TypeError object at 0x101008758>"
p18
sS'__getitem__'
p19
S"<method-wrapper '__getitem__' of exceptions.TypeError object at 0x101008758>"
p20
sS'__setstate__'
p21
S'<built-in method __setstate__ of exceptions.TypeError object at 0x101008758>'
p22
sS'args'
p23
S'("__call__() got an unexpected keyword argument \'next\'",)'
p24
sS'__reduce__'
p25
S'<built-in method __reduce__ of exceptions.TypeError object at 0x101008758>'
p26
sS'__str__'
p27
S"<method-wrapper '__str__' of exceptions.TypeError object at 0x101008758>"
p28
sS'__format__'
p29
S'<built-in method __format__ of exceptions.TypeError object at 0x101008758>'
p30
sS'__getattribute__'
p31
S"<method-wrapper '__getattribute__' of exceptions.TypeError object at 0x101008758>"
p32
sS'__class__'
p33
S"<type 'exceptions.TypeError'>"
p34
sS'__unicode__'
p35
S'<built-in method __unicode__ of exceptions.TypeError object at 0x101008758>'
p36
sS'__delattr__'
p37
S"<method-wrapper '__delattr__' of exceptions.TypeError object at 0x101008758>"
p38
sS'__subclasshook__'
p39
S'<built-in method __subclasshook__ of type object at 0x10011a2c0>'
p40
sS'__repr__'
p41
S"<method-wrapper '__repr__' of exceptions.TypeError object at 0x101008758>"
p42
sS'__dict__'
p43
S'{}'
p44
sS'__sizeof__'
p45
S'<built-in method __sizeof__ of exceptions.TypeError object at 0x101008758>'
p46
sS'__doc__'
p47
S"'Inappropriate argument type.'"
p48
sS'__init__'
p49
S"<method-wrapper '__init__' of exceptions.TypeError object at 0x101008758>"
p50
sS'__new__'
p51
S'<built-in method __new__ of type object at 0x10011a2c0>'
p52
ssS'evalue'
p53
S"__call__() got an unexpected keyword argument 'next'"
p54
sS'request'
p55
ccopy_reg
_reconstructor
p56
(cgluon.html
BEAUTIFY
p57
c__builtin__
object
p58
NtRp59
(dp60
S'attributes'
p61
(dp62
sS'components'
p63
(lp64
g56
(cgluon.html
TABLE
p65
g58
NtRp66
(dp67
g61
(dp68
S'level'
p69
I5
ssS'parent'
p70
Nsg63
(lp71
g56
(cgluon.html
TR
p72
g58
NtRp73
(dp74
g61
(dp75
sg70
g66
sg63
(lp76
g56
(cgluon.html
TD
p77
g58
NtRp78
(dp79
g61
(dp80
S'_style'
p81
S'font-weight:bold;'
p82
ssg70
g73
sg63
(lp83
S'ajax'
p84
asbag56
(g77
g58
NtRp85
(dp86
g61
(dp87
S'_valign'
p88
S'top'
p89
ssg70
g73
sg63
(lp90
S':'
asbag56
(g77
g58
NtRp91
(dp92
g61
(dp93
sg70
g73
sg63
(lp94
g56
(g57
g58
NtRp95
(dp96
g61
(dp97
g69
I5
ssg70
g91
sg63
(lp98
S'False'
p99
asbasbasbag56
(g72
g58
NtRp100
(dp101
g61
(dp102
sg70
g66
sg63
(lp103
g56
(g77
g58
NtRp104
(dp105
g61
(dp106
g81
g82
ssg70
g100
sg63
(lp107
S'application'
p108
asbag56
(g77
g58
NtRp109
(dp110
g61
(dp111
g88
g89
ssg70
g100
sg63
(lp112
S':'
asbag56
(g77
g58
NtRp113
(dp114
g61
(dp115
sg70
g100
sg63
(lp116
g56
(g57
g58
NtRp117
(dp118
g61
(dp119
g69
I5
ssg70
g113
sg63
(lp120
S'welcome'
p121
asbasbasbag56
(g72
g58
NtRp122
(dp123
g61
(dp124
sg70
g66
sg63
(lp125
g56
(g77
g58
NtRp126
(dp127
g61
(dp128
g81
g82
ssg70
g122
sg63
(lp129
g23
asbag56
(g77
g58
NtRp130
(dp131
g61
(dp132
g88
g89
ssg70
g122
sg63
(lp133
S':'
asbag56
(g77
g58
NtRp134
(dp135
g61
(dp136
sg70
g122
sg63
(lp137
g56
(g57
g58
NtRp138
(dp139
g61
(dp140
g69
I5
ssg70
g134
sg63
(lp141
g56
(g65
g58
NtRp142
(dp143
g61
(dp144
g69
I4
ssg70
Nsg63
(lp145
g56
(g72
g58
NtRp146
(dp147
g61
(dp148
sg70
g142
sg63
(lp149
g56
(g77
g58
NtRp150
(dp151
g61
(dp152
sg70
g146
sg63
(lp153
g56
(g57
g58
NtRp154
(dp155
g61
(dp156
g69
I4
ssg70
g150
sg63
(lp157
S'login'
p158
asbasbasbasbasbasbasbag56
(g72
g58
NtRp159
(dp160
g61
(dp161
sg70
g66
sg63
(lp162
g56
(g77
g58
NtRp163
(dp164
g61
(dp165
g81
g82
ssg70
g159
sg63
(lp166
S'body'
p167
asbag56
(g77
g58
NtRp168
(dp169
g61
(dp170
g88
g89
ssg70
g159
sg63
(lp171
S':'
asbag56
(g77
g58
NtRp172
(dp173
g61
(dp174
sg70
g159
sg63
(lp175
g56
(g57
g58
NtRp176
(dp177
g61
(dp178
g69
I5
ssg70
g172
sg63
(lp179
S'<cStringIO.StringO object at 0x1169b46c0>'
p180
asbasbasbag56
(g72
g58
NtRp181
(dp182
g61
(dp183
sg70
g66
sg63
(lp184
g56
(g77
g58
NtRp185
(dp186
g61
(dp187
g81
g82
ssg70
g181
sg63
(lp188
S'client'
p189
asbag56
(g77
g58
NtRp190
(dp191
g61
(dp192
g88
g89
ssg70
g181
sg63
(lp193
S':'
asbag56
(g77
g58
NtRp194
(dp195
g61
(dp196
sg70
g181
sg63
(lp197
g56
(g57
g58
NtRp198
(dp199
g61
(dp200
g69
I5
ssg70
g194
sg63
(lp201
S'127.0.0.1'
p202
asbasbasbag56
(g72
g58
NtRp203
(dp204
g61
(dp205
sg70
g66
sg63
(lp206
g56
(g77
g58
NtRp207
(dp208
g61
(dp209
g81
g82
ssg70
g203
sg63
(lp210
S'controller'
p211
asbag56
(g77
g58
NtRp212
(dp213
g61
(dp214
g88
g89
ssg70
g203
sg63
(lp215
S':'
asbag56
(g77
g58
NtRp216
(dp217
g61
(dp218
sg70
g203
sg63
(lp219
g56
(g57
g58
NtRp220
(dp221
g61
(dp222
g69
I5
ssg70
g216
sg63
(lp223
S'default'
p224
asbasbasbag56
(g72
g58
NtRp225
(dp226
g61
(dp227
sg70
g66
sg63
(lp228
g56
(g77
g58
NtRp229
(dp230
g61
(dp231
g81
g82
ssg70
g225
sg63
(lp232
S'cookies'
p233
asbag56
(g77
g58
NtRp234
(dp235
g61
(dp236
g88
g89
ssg70
g225
sg63
(lp237
S':'
asbag56
(g77
g58
NtRp238
(dp239
g61
(dp240
sg70
g225
sg63
(lp241
g56
(g57
g58
NtRp242
(dp243
g61
(dp244
g69
I5
ssg70
g238
sg63
(lp245
g56
(g65
g58
NtRp246
(dp247
g61
(dp248
g69
I4
ssg70
Nsg63
(lp249
g56
(g72
g58
NtRp250
(dp251
g61
(dp252
sg70
g246
sg63
(lp253
g56
(g77
g58
NtRp254
(dp255
g61
(dp256
g81
g82
ssg70
g250
sg63
(lp257
S'session_id_admin'
p258
asbag56
(g77
g58
NtRp259
(dp260
g61
(dp261
g88
g89
ssg70
g250
sg63
(lp262
S':'
asbag56
(g77
g58
NtRp263
(dp264
g61
(dp265
sg70
g250
sg63
(lp266
g56
(g57
g58
NtRp267
(dp268
g61
(dp269
g69
I4
ssg70
g263
sg63
(lp270
g56
(g65
g58
NtRp271
(dp272
g61
(dp273
g69
I3
ssg70
Nsg63
(lp274
g56
(g72
g58
NtRp275
(dp276
g61
(dp277
sg70
g271
sg63
(lp278
g56
(g77
g58
NtRp279
(dp280
g61
(dp281
g81
g82
ssg70
g275
sg63
(lp282
S'comment'
p283
asbag56
(g77
g58
NtRp284
(dp285
g61
(dp286
g88
g89
ssg70
g275
sg63
(lp287
S':'
asbag56
(g77
g58
NtRp288
(dp289
g61
(dp290
sg70
g275
sg63
(lp291
g56
(g57
g58
NtRp292
(dp293
g61
(dp294
g69
I3
ssg70
g288
sg63
(lp295
S''
asbasbasbag56
(g72
g58
NtRp296
(dp297
g61
(dp298
sg70
g271
sg63
(lp299
g56
(g77
g58
NtRp300
(dp301
g61
(dp302
g81
g82
ssg70
g296
sg63
(lp303
S'domain'
p304
asbag56
(g77
g58
NtRp305
(dp306
g61
(dp307
g88
g89
ssg70
g296
sg63
(lp308
S':'
asbag56
(g77
g58
NtRp309
(dp310
g61
(dp311
sg70
g296
sg63
(lp312
g56
(g57
g58
NtRp313
(dp314
g61
(dp315
g69
I3
ssg70
g309
sg63
(lp316
S''
asbasbasbag56
(g72
g58
NtRp317
(dp318
g61
(dp319
sg70
g271
sg63
(lp320
g56
(g77
g58
NtRp321
(dp322
g61
(dp323
g81
g82
ssg70
g317
sg63
(lp324
S'expires'
p325
asbag56
(g77
g58
NtRp326
(dp327
g61
(dp328
g88
g89
ssg70
g317
sg63
(lp329
S':'
asbag56
(g77
g58
NtRp330
(dp331
g61
(dp332
sg70
g317
sg63
(lp333
g56
(g57
g58
NtRp334
(dp335
g61
(dp336
g69
I3
ssg70
g330
sg63
(lp337
S''
asbasbasbag56
(g72
g58
NtRp338
(dp339
g61
(dp340
sg70
g271
sg63
(lp341
g56
(g77
g58
NtRp342
(dp343
g61
(dp344
g81
g82
ssg70
g338
sg63
(lp345
S'httponly'
p346
asbag56
(g77
g58
NtRp347
(dp348
g61
(dp349
g88
g89
ssg70
g338
sg63
(lp350
S':'
asbag56
(g77
g58
NtRp351
(dp352
g61
(dp353
sg70
g338
sg63
(lp354
g56
(g57
g58
NtRp355
(dp356
g61
(dp357
g69
I3
ssg70
g351
sg63
(lp358
S''
asbasbasbag56
(g72
g58
NtRp359
(dp360
g61
(dp361
sg70
g271
sg63
(lp362
g56
(g77
g58
NtRp363
(dp364
g61
(dp365
g81
g82
ssg70
g359
sg63
(lp366
S'max-age'
p367
asbag56
(g77
g58
NtRp368
(dp369
g61
(dp370
g88
g89
ssg70
g359
sg63
(lp371
S':'
asbag56
(g77
g58
NtRp372
(dp373
g61
(dp374
sg70
g359
sg63
(lp375
g56
(g57
g58
NtRp376
(dp377
g61
(dp378
g69
I3
ssg70
g372
sg63
(lp379
S''
asbasbasbag56
(g72
g58
NtRp380
(dp381
g61
(dp382
sg70
g271
sg63
(lp383
g56
(g77
g58
NtRp384
(dp385
g61
(dp386
g81
g82
ssg70
g380
sg63
(lp387
S'path'
p388
asbag56
(g77
g58
NtRp389
(dp390
g61
(dp391
g88
g89
ssg70
g380
sg63
(lp392
S':'
asbag56
(g77
g58
NtRp393
(dp394
g61
(dp395
sg70
g380
sg63
(lp396
g56
(g57
g58
NtRp397
(dp398
g61
(dp399
g69
I3
ssg70
g393
sg63
(lp400
S''
asbasbasbag56
(g72
g58
NtRp401
(dp402
g61
(dp403
sg70
g271
sg63
(lp404
g56
(g77
g58
NtRp405
(dp406
g61
(dp407
g81
g82
ssg70
g401
sg63
(lp408
S'secure'
p409
asbag56
(g77
g58
NtRp410
(dp411
g61
(dp412
g88
g89
ssg70
g401
sg63
(lp413
S':'
asbag56
(g77
g58
NtRp414
(dp415
g61
(dp416
sg70
g401
sg63
(lp417
g56
(g57
g58
NtRp418
(dp419
g61
(dp420
g69
I3
ssg70
g414
sg63
(lp421
S''
asbasbasbag56
(g72
g58
NtRp422
(dp423
g61
(dp424
sg70
g271
sg63
(lp425
g56
(g77
g58
NtRp426
(dp427
g61
(dp428
g81
g82
ssg70
g422
sg63
(lp429
S'version'
p430
asbag56
(g77
g58
NtRp431
(dp432
g61
(dp433
g88
g89
ssg70
g422
sg63
(lp434
S':'
asbag56
(g77
g58
NtRp435
(dp436
g61
(dp437
sg70
g422
sg63
(lp438
g56
(g57
g58
NtRp439
(dp440
g61
(dp441
g69
I3
ssg70
g435
sg63
(lp442
S''
asbasbasbasbasbasbasbag56
(g72
g58
NtRp443
(dp444
g61
(dp445
sg70
g246
sg63
(lp446
g56
(g77
g58
NtRp447
(dp448
g61
(dp449
g81
g82
ssg70
g443
sg63
(lp450
S'session_id_welcome'
p451
asbag56
(g77
g58
NtRp452
(dp453
g61
(dp454
g88
g89
ssg70
g443
sg63
(lp455
S':'
asbag56
(g77
g58
NtRp456
(dp457
g61
(dp458
sg70
g443
sg63
(lp459
g56
(g57
g58
NtRp460
(dp461
g61
(dp462
g69
I4
ssg70
g456
sg63
(lp463
g56
(g65
g58
NtRp464
(dp465
g61
(dp466
g69
I3
ssg70
Nsg63
(lp467
g56
(g72
g58
NtRp468
(dp469
g61
(dp470
sg70
g464
sg63
(lp471
g56
(g77
g58
NtRp472
(dp473
g61
(dp474
g81
g82
ssg70
g468
sg63
(lp475
g283
asbag56
(g77
g58
NtRp476
(dp477
g61
(dp478
g88
g89
ssg70
g468
sg63
(lp479
S':'
asbag56
(g77
g58
NtRp480
(dp481
g61
(dp482
sg70
g468
sg63
(lp483
g56
(g57
g58
NtRp484
(dp485
g61
(dp486
g69
I3
ssg70
g480
sg63
(lp487
S''
asbasbasbag56
(g72
g58
NtRp488
(dp489
g61
(dp490
sg70
g464
sg63
(lp491
g56
(g77
g58
NtRp492
(dp493
g61
(dp494
g81
g82
ssg70
g488
sg63
(lp495
g304
asbag56
(g77
g58
NtRp496
(dp497
g61
(dp498
g88
g89
ssg70
g488
sg63
(lp499
S':'
asbag56
(g77
g58
NtRp500
(dp501
g61
(dp502
sg70
g488
sg63
(lp503
g56
(g57
g58
NtRp504
(dp505
g61
(dp506
g69
I3
ssg70
g500
sg63
(lp507
S''
asbasbasbag56
(g72
g58
NtRp508
(dp509
g61
(dp510
sg70
g464
sg63
(lp511
g56
(g77
g58
NtRp512
(dp513
g61
(dp514
g81
g82
ssg70
g508
sg63
(lp515
g325
asbag56
(g77
g58
NtRp516
(dp517
g61
(dp518
g88
g89
ssg70
g508
sg63
(lp519
S':'
asbag56
(g77
g58
NtRp520
(dp521
g61
(dp522
sg70
g508
sg63
(lp523
g56
(g57
g58
NtRp524
(dp525
g61
(dp526
g69
I3
ssg70
g520
sg63
(lp527
S''
asbasbasbag56
(g72
g58
NtRp528
(dp529
g61
(dp530
sg70
g464
sg63
(lp531
g56
(g77
g58
NtRp532
(dp533
g61
(dp534
g81
g82
ssg70
g528
sg63
(lp535
g346
asbag56
(g77
g58
NtRp536
(dp537
g61
(dp538
g88
g89
ssg70
g528
sg63
(lp539
S':'
asbag56
(g77
g58
NtRp540
(dp541
g61
(dp542
sg70
g528
sg63
(lp543
g56
(g57
g58
NtRp544
(dp545
g61
(dp546
g69
I3
ssg70
g540
sg63
(lp547
S''
asbasbasbag56
(g72
g58
NtRp548
(dp549
g61
(dp550
sg70
g464
sg63
(lp551
g56
(g77
g58
NtRp552
(dp553
g61
(dp554
g81
g82
ssg70
g548
sg63
(lp555
g367
asbag56
(g77
g58
NtRp556
(dp557
g61
(dp558
g88
g89
ssg70
g548
sg63
(lp559
S':'
asbag56
(g77
g58
NtRp560
(dp561
g61
(dp562
sg70
g548
sg63
(lp563
g56
(g57
g58
NtRp564
(dp565
g61
(dp566
g69
I3
ssg70
g560
sg63
(lp567
S''
asbasbasbag56
(g72
g58
NtRp568
(dp569
g61
(dp570
sg70
g464
sg63
(lp571
g56
(g77
g58
NtRp572
(dp573
g61
(dp574
g81
g82
ssg70
g568
sg63
(lp575
g388
asbag56
(g77
g58
NtRp576
(dp577
g61
(dp578
g88
g89
ssg70
g568
sg63
(lp579
S':'
asbag56
(g77
g58
NtRp580
(dp581
g61
(dp582
sg70
g568
sg63
(lp583
g56
(g57
g58
NtRp584
(dp585
g61
(dp586
g69
I3
ssg70
g580
sg63
(lp587
S''
asbasbasbag56
(g72
g58
NtRp588
(dp589
g61
(dp590
sg70
g464
sg63
(lp591
g56
(g77
g58
NtRp592
(dp593
g61
(dp594
g81
g82
ssg70
g588
sg63
(lp595
g409
asbag56
(g77
g58
NtRp596
(dp597
g61
(dp598
g88
g89
ssg70
g588
sg63
(lp599
S':'
asbag56
(g77
g58
NtRp600
(dp601
g61
(dp602
sg70
g588
sg63
(lp603
g56
(g57
g58
NtRp604
(dp605
g61
(dp606
g69
I3
ssg70
g600
sg63
(lp607
S''
asbasbasbag56
(g72
g58
NtRp608
(dp609
g61
(dp610
sg70
g464
sg63
(lp611
g56
(g77
g58
NtRp612
(dp613
g61
(dp614
g81
g82
ssg70
g608
sg63
(lp615
g430
asbag56
(g77
g58
NtRp616
(dp617
g61
(dp618
g88
g89
ssg70
g608
sg63
(lp619
S':'
asbag56
(g77
g58
NtRp620
(dp621
g61
(dp622
sg70
g608
sg63
(lp623
g56
(g57
g58
NtRp624
(dp625
g61
(dp626
g69
I3
ssg70
g620
sg63
(lp627
S''
asbasbasbasbasbasbasbasbasbasbasbag56
(g72
g58
NtRp628
(dp629
g61
(dp630
sg70
g66
sg63
(lp631
g56
(g77
g58
NtRp632
(dp633
g61
(dp634
g81
g82
ssg70
g628
sg63
(lp635
S'env'
p636
asbag56
(g77
g58
NtRp637
(dp638
g61
(dp639
g88
g89
ssg70
g628
sg63
(lp640
S':'
asbag56
(g77
g58
NtRp641
(dp642
g61
(dp643
sg70
g628
sg63
(lp644
g56
(g57
g58
NtRp645
(dp646
g61
(dp647
g69
I5
ssg70
g641
sg63
(lp648
g56
(g65
g58
NtRp649
(dp650
g61
(dp651
g69
I4
ssg70
Nsg63
(lp652
g56
(g72
g58
NtRp653
(dp654
g61
(dp655
sg70
g649
sg63
(lp656
g56
(g77
g58
NtRp657
(dp658
g61
(dp659
g81
g82
ssg70
g653
sg63
(lp660
S'app_folders'
p661
asbag56
(g77
g58
NtRp662
(dp663
g61
(dp664
g88
g89
ssg70
g653
sg63
(lp665
S':'
asbag56
(g77
g58
NtRp666
(dp667
g61
(dp668
sg70
g653
sg63
(lp669
g56
(g57
g58
NtRp670
(dp671
g61
(dp672
g69
I4
ssg70
g666
sg63
(lp673
S"set(['/Users/excon/Sites/dreamscape/applications/welcome/', '/Users/excon/Sites/dreamscape/applications/admin/'])"
p674
asbasbasbag56
(g72
g58
NtRp675
(dp676
g61
(dp677
sg70
g649
sg63
(lp678
g56
(g77
g58
NtRp679
(dp680
g61
(dp681
g81
g82
ssg70
g675
sg63
(lp682
S'applications_parent'
p683
asbag56
(g77
g58
NtRp684
(dp685
g61
(dp686
g88
g89
ssg70
g675
sg63
(lp687
S':'
asbag56
(g77
g58
NtRp688
(dp689
g61
(dp690
sg70
g675
sg63
(lp691
g56
(g57
g58
NtRp692
(dp693
g61
(dp694
g69
I4
ssg70
g688
sg63
(lp695
S'/Users/excon/Sites/dreamscape'
p696
asbasbasbag56
(g72
g58
NtRp697
(dp698
g61
(dp699
sg70
g649
sg63
(lp700
g56
(g77
g58
NtRp701
(dp702
g61
(dp703
g81
g82
ssg70
g697
sg63
(lp704
S'cmd_args'
p705
asbag56
(g77
g58
NtRp706
(dp707
g61
(dp708
g88
g89
ssg70
g697
sg63
(lp709
S':'
asbag56
(g77
g58
NtRp710
(dp711
g61
(dp712
sg70
g697
sg63
(lp713
g56
(g57
g58
NtRp714
(dp715
g61
(dp716
g69
I4
ssg70
g710
sg63
(lp717
g56
(g65
g58
NtRp718
(dp719
g61
(dp720
g69
I3
ssg70
Nsg63
(lp721
sbasbasbasbag56
(g72
g58
NtRp722
(dp723
g61
(dp724
sg70
g649
sg63
(lp725
g56
(g77
g58
NtRp726
(dp727
g61
(dp728
g81
g82
ssg70
g722
sg63
(lp729
S'cmd_options'
p730
asbag56
(g77
g58
NtRp731
(dp732
g61
(dp733
g88
g89
ssg70
g722
sg63
(lp734
S':'
asbag56
(g77
g58
NtRp735
(dp736
g61
(dp737
sg70
g722
sg63
(lp738
g56
(g57
g58
NtRp739
(dp740
g61
(dp741
g69
I4
ssg70
g735
sg63
(lp742
S"<Values at 0x101c68170: {'verbose': False, 'ip': '127.0.0.1', 'shutdown_timeout': 5, 'taskbar': False, 'nocron': False, 'pid_filename': 'httpserver.pid', 'maxthreads': None, 'softcron': False, 'server_name': 'Excons-MacBook.local', 'bpython': False, 'nogui': False, 'port': 8000, 'extcron': False, 'debuglevel': 30, 'test': None, 'folder': '/Users/excon/Sites/dreamscape', 'config': '', 'import_models': False, 'winservice': '', 'shell': None, 'run': '', 'log_filename': 'httpserver.log', 'args': [''], 'ssl_ca_certificate': None, 'scheduler': None, 'profiler_filename': None, 'ssl_private_key': '', 'password': '<ask>', 'request_queue_size': 5, 'ssl_certificate': '', 'cronjob': False, 'plain': False, 'quiet': False, 'interfaces': None, 'minthreads': None, 'timeout': 10, 'numthreads': None, 'nobanner': False}>"
p743
asbasbasbag56
(g72
g58
NtRp744
(dp745
g61
(dp746
sg70
g649
sg63
(lp747
g56
(g77
g58
NtRp748
(dp749
g61
(dp750
g81
g82
ssg70
g744
sg63
(lp751
S'db_sessions'
p752
asbag56
(g77
g58
NtRp753
(dp754
g61
(dp755
g88
g89
ssg70
g744
sg63
(lp756
S':'
asbag56
(g77
g58
NtRp757
(dp758
g61
(dp759
sg70
g744
sg63
(lp760
g56
(g57
g58
NtRp761
(dp762
g61
(dp763
g69
I4
ssg70
g757
sg63
(lp764
S'set([])'
p765
asbasbasbag56
(g72
g58
NtRp766
(dp767
g61
(dp768
sg70
g649
sg63
(lp769
g56
(g77
g58
NtRp770
(dp771
g61
(dp772
g81
g82
ssg70
g766
sg63
(lp773
S'debugging'
p774
asbag56
(g77
g58
NtRp775
(dp776
g61
(dp777
g88
g89
ssg70
g766
sg63
(lp778
S':'
asbag56
(g77
g58
NtRp779
(dp780
g61
(dp781
sg70
g766
sg63
(lp782
g56
(g57
g58
NtRp783
(dp784
g61
(dp785
g69
I4
ssg70
g779
sg63
(lp786
g99
asbasbasbag56
(g72
g58
NtRp787
(dp788
g61
(dp789
sg70
g649
sg63
(lp790
g56
(g77
g58
NtRp791
(dp792
g61
(dp793
g81
g82
ssg70
g787
sg63
(lp794
S'gluon_parent'
p795
asbag56
(g77
g58
NtRp796
(dp797
g61
(dp798
g88
g89
ssg70
g787
sg63
(lp799
S':'
asbag56
(g77
g58
NtRp800
(dp801
g61
(dp802
sg70
g787
sg63
(lp803
g56
(g57
g58
NtRp804
(dp805
g61
(dp806
g69
I4
ssg70
g800
sg63
(lp807
S'/Users/excon/Sites/dreamscape'
p808
asbasbasbag56
(g72
g58
NtRp809
(dp810
g61
(dp811
sg70
g649
sg63
(lp812
g56
(g77
g58
NtRp813
(dp814
g61
(dp815
g81
g82
ssg70
g809
sg63
(lp816
S'http_accept'
p817
asbag56
(g77
g58
NtRp818
(dp819
g61
(dp820
g88
g89
ssg70
g809
sg63
(lp821
S':'
asbag56
(g77
g58
NtRp822
(dp823
g61
(dp824
sg70
g809
sg63
(lp825
g56
(g57
g58
NtRp826
(dp827
g61
(dp828
g69
I4
ssg70
g822
sg63
(lp829
S'text/html,application/xhtml+xml,application/xml;q=0.9,*/*;q=0.8'
p830
asbasbasbag56
(g72
g58
NtRp831
(dp832
g61
(dp833
sg70
g649
sg63
(lp834
g56
(g77
g58
NtRp835
(dp836
g61
(dp837
g81
g82
ssg70
g831
sg63
(lp838
S'http_accept_charset'
p839
asbag56
(g77
g58
NtRp840
(dp841
g61
(dp842
g88
g89
ssg70
g831
sg63
(lp843
S':'
asbag56
(g77
g58
NtRp844
(dp845
g61
(dp846
sg70
g831
sg63
(lp847
g56
(g57
g58
NtRp848
(dp849
g61
(dp850
g69
I4
ssg70
g844
sg63
(lp851
S'ISO-8859-1,utf-8;q=0.7,*;q=0.7'
p852
asbasbasbag56
(g72
g58
NtRp853
(dp854
g61
(dp855
sg70
g649
sg63
(lp856
g56
(g77
g58
NtRp857
(dp858
g61
(dp859
g81
g82
ssg70
g853
sg63
(lp860
S'http_accept_encoding'
p861
asbag56
(g77
g58
NtRp862
(dp863
g61
(dp864
g88
g89
ssg70
g853
sg63
(lp865
S':'
asbag56
(g77
g58
NtRp866
(dp867
g61
(dp868
sg70
g853
sg63
(lp869
g56
(g57
g58
NtRp870
(dp871
g61
(dp872
g69
I4
ssg70
g866
sg63
(lp873
S'gzip, deflate'
p874
asbasbasbag56
(g72
g58
NtRp875
(dp876
g61
(dp877
sg70
g649
sg63
(lp878
g56
(g77
g58
NtRp879
(dp880
g61
(dp881
g81
g82
ssg70
g875
sg63
(lp882
S'http_accept_language'
p883
asbag56
(g77
g58
NtRp884
(dp885
g61
(dp886
g88
g89
ssg70
g875
sg63
(lp887
S':'
asbag56
(g77
g58
NtRp888
(dp889
g61
(dp890
sg70
g875
sg63
(lp891
g56
(g57
g58
NtRp892
(dp893
g61
(dp894
g69
I4
ssg70
g888
sg63
(lp895
S'en-us,en;q=0.5'
p896
asbasbasbag56
(g72
g58
NtRp897
(dp898
g61
(dp899
sg70
g649
sg63
(lp900
g56
(g77
g58
NtRp901
(dp902
g61
(dp903
g81
g82
ssg70
g897
sg63
(lp904
S'http_connection'
p905
asbag56
(g77
g58
NtRp906
(dp907
g61
(dp908
g88
g89
ssg70
g897
sg63
(lp909
S':'
asbag56
(g77
g58
NtRp910
(dp911
g61
(dp912
sg70
g897
sg63
(lp913
g56
(g57
g58
NtRp914
(dp915
g61
(dp916
g69
I4
ssg70
g910
sg63
(lp917
S'keep-alive'
p918
asbasbasbag56
(g72
g58
NtRp919
(dp920
g61
(dp921
sg70
g649
sg63
(lp922
g56
(g77
g58
NtRp923
(dp924
g61
(dp925
g81
g82
ssg70
g919
sg63
(lp926
S'http_cookie'
p927
asbag56
(g77
g58
NtRp928
(dp929
g61
(dp930
g88
g89
ssg70
g919
sg63
(lp931
S':'
asbag56
(g77
g58
NtRp932
(dp933
g61
(dp934
sg70
g919
sg63
(lp935
g56
(g57
g58
NtRp936
(dp937
g61
(dp938
g69
I4
ssg70
g932
sg63
(lp939
S'session_id_admin=127.0.0.1-313fd634-43bf-4615-b2f5-e4514f202a5c; session_id_welcome=127.0.0.1-8dfa8cd1-5b2c-419d-87ba-df200b08a648'
p940
asbasbasbag56
(g72
g58
NtRp941
(dp942
g61
(dp943
sg70
g649
sg63
(lp944
g56
(g77
g58
NtRp945
(dp946
g61
(dp947
g81
g82
ssg70
g941
sg63
(lp948
S'http_host'
p949
asbag56
(g77
g58
NtRp950
(dp951
g61
(dp952
g88
g89
ssg70
g941
sg63
(lp953
S':'
asbag56
(g77
g58
NtRp954
(dp955
g61
(dp956
sg70
g941
sg63
(lp957
g56
(g57
g58
NtRp958
(dp959
g61
(dp960
g69
I4
ssg70
g954
sg63
(lp961
S'localhost:8000'
p962
asbasbasbag56
(g72
g58
NtRp963
(dp964
g61
(dp965
sg70
g649
sg63
(lp966
g56
(g77
g58
NtRp967
(dp968
g61
(dp969
g81
g82
ssg70
g963
sg63
(lp970
S'http_user_agent'
p971
asbag56
(g77
g58
NtRp972
(dp973
g61
(dp974
g88
g89
ssg70
g963
sg63
(lp975
S':'
asbag56
(g77
g58
NtRp976
(dp977
g61
(dp978
sg70
g963
sg63
(lp979
g56
(g57
g58
NtRp980
(dp981
g61
(dp982
g69
I4
ssg70
g976
sg63
(lp983
S'Mozilla/5.0 (Macintosh; Intel Mac OS X 10.6; rv:6.0.2) Gecko/20100101 Firefox/6.0.2'
p984
asbasbasbag56
(g72
g58
NtRp985
(dp986
g61
(dp987
sg70
g649
sg63
(lp988
g56
(g77
g58
NtRp989
(dp990
g61
(dp991
g81
g82
ssg70
g985
sg63
(lp992
S'is_jython'
p993
asbag56
(g77
g58
NtRp994
(dp995
g61
(dp996
g88
g89
ssg70
g985
sg63
(lp997
S':'
asbag56
(g77
g58
NtRp998
(dp999
g61
(dp1000
sg70
g985
sg63
(lp1001
g56
(g57
g58
NtRp1002
(dp1003
g61
(dp1004
g69
I4
ssg70
g998
sg63
(lp1005
g99
asbasbasbag56
(g72
g58
NtRp1006
(dp1007
g61
(dp1008
sg70
g649
sg63
(lp1009
g56
(g77
g58
NtRp1010
(dp1011
g61
(dp1012
g81
g82
ssg70
g1006
sg63
(lp1013
S'path_info'
p1014
asbag56
(g77
g58
NtRp1015
(dp1016
g61
(dp1017
g88
g89
ssg70
g1006
sg63
(lp1018
S':'
asbag56
(g77
g58
NtRp1019
(dp1020
g61
(dp1021
sg70
g1006
sg63
(lp1022
g56
(g57
g58
NtRp1023
(dp1024
g61
(dp1025
g69
I4
ssg70
g1019
sg63
(lp1026
S'/user/login'
p1027
asbasbasbag56
(g72
g58
NtRp1028
(dp1029
g61
(dp1030
sg70
g649
sg63
(lp1031
g56
(g77
g58
NtRp1032
(dp1033
g61
(dp1034
g81
g82
ssg70
g1028
sg63
(lp1035
S'query_string'
p1036
asbag56
(g77
g58
NtRp1037
(dp1038
g61
(dp1039
g88
g89
ssg70
g1028
sg63
(lp1040
S':'
asbag56
(g77
g58
NtRp1041
(dp1042
g61
(dp1043
sg70
g1028
sg63
(lp1044
g56
(g57
g58
NtRp1045
(dp1046
g61
(dp1047
g69
I4
ssg70
g1041
sg63
(lp1048
S'_next=/dream'
p1049
asbasbasbag56
(g72
g58
NtRp1050
(dp1051
g61
(dp1052
sg70
g649
sg63
(lp1053
g56
(g77
g58
NtRp1054
(dp1055
g61
(dp1056
g81
g82
ssg70
g1050
sg63
(lp1057
S'remote_addr'
p1058
asbag56
(g77
g58
NtRp1059
(dp1060
g61
(dp1061
g88
g89
ssg70
g1050
sg63
(lp1062
S':'
asbag56
(g77
g58
NtRp1063
(dp1064
g61
(dp1065
sg70
g1050
sg63
(lp1066
g56
(g57
g58
NtRp1067
(dp1068
g61
(dp1069
g69
I4
ssg70
g1063
sg63
(lp1070
g202
asbasbasbag56
(g72
g58
NtRp1071
(dp1072
g61
(dp1073
sg70
g649
sg63
(lp1074
g56
(g77
g58
NtRp1075
(dp1076
g61
(dp1077
g81
g82
ssg70
g1071
sg63
(lp1078
S'remote_port'
p1079
asbag56
(g77
g58
NtRp1080
(dp1081
g61
(dp1082
g88
g89
ssg70
g1071
sg63
(lp1083
S':'
asbag56
(g77
g58
NtRp1084
(dp1085
g61
(dp1086
sg70
g1071
sg63
(lp1087
g56
(g57
g58
NtRp1088
(dp1089
g61
(dp1090
g69
I4
ssg70
g1084
sg63
(lp1091
S'49619'
p1092
asbasbasbag56
(g72
g58
NtRp1093
(dp1094
g61
(dp1095
sg70
g649
sg63
(lp1096
g56
(g77
g58
NtRp1097
(dp1098
g61
(dp1099
g81
g82
ssg70
g1093
sg63
(lp1100
S'request_method'
p1101
asbag56
(g77
g58
NtRp1102
(dp1103
g61
(dp1104
g88
g89
ssg70
g1093
sg63
(lp1105
S':'
asbag56
(g77
g58
NtRp1106
(dp1107
g61
(dp1108
sg70
g1093
sg63
(lp1109
g56
(g57
g58
NtRp1110
(dp1111
g61
(dp1112
g69
I4
ssg70
g1106
sg63
(lp1113
S'GET'
p1114
asbasbasbag56
(g72
g58
NtRp1115
(dp1116
g61
(dp1117
sg70
g649
sg63
(lp1118
g56
(g77
g58
NtRp1119
(dp1120
g61
(dp1121
g81
g82
ssg70
g1115
sg63
(lp1122
S'request_uri'
p1123
asbag56
(g77
g58
NtRp1124
(dp1125
g61
(dp1126
g88
g89
ssg70
g1115
sg63
(lp1127
S':'
asbag56
(g77
g58
NtRp1128
(dp1129
g61
(dp1130
sg70
g1115
sg63
(lp1131
g56
(g57
g58
NtRp1132
(dp1133
g61
(dp1134
g69
I4
ssg70
g1128
sg63
(lp1135
S'/welcome/default/user/login?_next=/dream'
p1136
asbasbasbag56
(g72
g58
NtRp1137
(dp1138
g61
(dp1139
sg70
g649
sg63
(lp1140
g56
(g77
g58
NtRp1141
(dp1142
g61
(dp1143
g81
g82
ssg70
g1137
sg63
(lp1144
S'script_name'
p1145
asbag56
(g77
g58
NtRp1146
(dp1147
g61
(dp1148
g88
g89
ssg70
g1137
sg63
(lp1149
S':'
asbag56
(g77
g58
NtRp1150
(dp1151
g61
(dp1152
sg70
g1137
sg63
(lp1153
g56
(g57
g58
NtRp1154
(dp1155
g61
(dp1156
g69
I4
ssg70
g1150
sg63
(lp1157
S''
asbasbasbag56
(g72
g58
NtRp1158
(dp1159
g61
(dp1160
sg70
g649
sg63
(lp1161
g56
(g77
g58
NtRp1162
(dp1163
g61
(dp1164
g81
g82
ssg70
g1158
sg63
(lp1165
S'server_name'
p1166
asbag56
(g77
g58
NtRp1167
(dp1168
g61
(dp1169
g88
g89
ssg70
g1158
sg63
(lp1170
S':'
asbag56
(g77
g58
NtRp1171
(dp1172
g61
(dp1173
sg70
g1158
sg63
(lp1174
g56
(g57
g58
NtRp1175
(dp1176
g61
(dp1177
g69
I4
ssg70
g1171
sg63
(lp1178
S'Excons-MacBook.local'
p1179
asbasbasbag56
(g72
g58
NtRp1180
(dp1181
g61
(dp1182
sg70
g649
sg63
(lp1183
g56
(g77
g58
NtRp1184
(dp1185
g61
(dp1186
g81
g82
ssg70
g1180
sg63
(lp1187
S'server_port'
p1188
asbag56
(g77
g58
NtRp1189
(dp1190
g61
(dp1191
g88
g89
ssg70
g1180
sg63
(lp1192
S':'
asbag56
(g77
g58
NtRp1193
(dp1194
g61
(dp1195
sg70
g1180
sg63
(lp1196
g56
(g57
g58
NtRp1197
(dp1198
g61
(dp1199
g69
I4
ssg70
g1193
sg63
(lp1200
S'8000'
p1201
asbasbasbag56
(g72
g58
NtRp1202
(dp1203
g61
(dp1204
sg70
g649
sg63
(lp1205
g56
(g77
g58
NtRp1206
(dp1207
g61
(dp1208
g81
g82
ssg70
g1202
sg63
(lp1209
S'server_protocol'
p1210
asbag56
(g77
g58
NtRp1211
(dp1212
g61
(dp1213
g88
g89
ssg70
g1202
sg63
(lp1214
S':'
asbag56
(g77
g58
NtRp1215
(dp1216
g61
(dp1217
sg70
g1202
sg63
(lp1218
g56
(g57
g58
NtRp1219
(dp1220
g61
(dp1221
g69
I4
ssg70
g1215
sg63
(lp1222
S'HTTP/1.1'
p1223
asbasbasbag56
(g72
g58
NtRp1224
(dp1225
g61
(dp1226
sg70
g649
sg63
(lp1227
g56
(g77
g58
NtRp1228
(dp1229
g61
(dp1230
g81
g82
ssg70
g1224
sg63
(lp1231
S'server_software'
p1232
asbag56
(g77
g58
NtRp1233
(dp1234
g61
(dp1235
g88
g89
ssg70
g1224
sg63
(lp1236
S':'
asbag56
(g77
g58
NtRp1237
(dp1238
g61
(dp1239
sg70
g1224
sg63
(lp1240
g56
(g57
g58
NtRp1241
(dp1242
g61
(dp1243
g69
I4
ssg70
g1237
sg63
(lp1244
S'Rocket 1.2.4'
p1245
asbasbasbag56
(g72
g58
NtRp1246
(dp1247
g61
(dp1248
sg70
g649
sg63
(lp1249
g56
(g77
g58
NtRp1250
(dp1251
g61
(dp1252
g81
g82
ssg70
g1246
sg63
(lp1253
S'web2py_crontype'
p1254
asbag56
(g77
g58
NtRp1255
(dp1256
g61
(dp1257
g88
g89
ssg70
g1246
sg63
(lp1258
S':'
asbag56
(g77
g58
NtRp1259
(dp1260
g61
(dp1261
sg70
g1246
sg63
(lp1262
g56
(g57
g58
NtRp1263
(dp1264
g61
(dp1265
g69
I4
ssg70
g1259
sg63
(lp1266
S'hard'
p1267
asbasbasbag56
(g72
g58
NtRp1268
(dp1269
g61
(dp1270
sg70
g649
sg63
(lp1271
g56
(g77
g58
NtRp1272
(dp1273
g61
(dp1274
g81
g82
ssg70
g1268
sg63
(lp1275
S'web2py_original_uri'
p1276
asbag56
(g77
g58
NtRp1277
(dp1278
g61
(dp1279
g88
g89
ssg70
g1268
sg63
(lp1280
S':'
asbag56
(g77
g58
NtRp1281
(dp1282
g61
(dp1283
sg70
g1268
sg63
(lp1284
g56
(g57
g58
NtRp1285
(dp1286
g61
(dp1287
g69
I4
ssg70
g1281
sg63
(lp1288
S'/user/login?_next=/dream'
p1289
asbasbasbag56
(g72
g58
NtRp1290
(dp1291
g61
(dp1292
sg70
g649
sg63
(lp1293
g56
(g77
g58
NtRp1294
(dp1295
g61
(dp1296
g81
g82
ssg70
g1290
sg63
(lp1297
S'web2py_path'
p1298
asbag56
(g77
g58
NtRp1299
(dp1300
g61
(dp1301
g88
g89
ssg70
g1290
sg63
(lp1302
S':'
asbag56
(g77
g58
NtRp1303
(dp1304
g61
(dp1305
sg70
g1290
sg63
(lp1306
g56
(g57
g58
NtRp1307
(dp1308
g61
(dp1309
g69
I4
ssg70
g1303
sg63
(lp1310
g696
asbasbasbag56
(g72
g58
NtRp1311
(dp1312
g61
(dp1313
sg70
g649
sg63
(lp1314
g56
(g77
g58
NtRp1315
(dp1316
g61
(dp1317
g81
g82
ssg70
g1311
sg63
(lp1318
S'web2py_version'
p1319
asbag56
(g77
g58
NtRp1320
(dp1321
g61
(dp1322
g88
g89
ssg70
g1311
sg63
(lp1323
S':'
asbag56
(g77
g58
NtRp1324
(dp1325
g61
(dp1326
sg70
g1311
sg63
(lp1327
g56
(g57
g58
NtRp1328
(dp1329
g61
(dp1330
g69
I4
ssg70
g1324
sg63
(lp1331
g56
(g65
g58
NtRp1332
(dp1333
g61
(dp1334
g69
I3
ssg70
Nsg63
(lp1335
g56
(g72
g58
NtRp1336
(dp1337
g61
(dp1338
sg70
g1332
sg63
(lp1339
g56
(g77
g58
NtRp1340
(dp1341
g61
(dp1342
sg70
g1336
sg63
(lp1343
g56
(g57
g58
NtRp1344
(dp1345
g61
(dp1346
g69
I3
ssg70
g1340
sg63
(lp1347
S'1'
asbasbasbag56
(g72
g58
NtRp1348
(dp1349
g61
(dp1350
sg70
g1332
sg63
(lp1351
g56
(g77
g58
NtRp1352
(dp1353
g61
(dp1354
sg70
g1348
sg63
(lp1355
g56
(g57
g58
NtRp1356
(dp1357
g61
(dp1358
g69
I3
ssg70
g1352
sg63
(lp1359
S'99'
p1360
asbasbasbag56
(g72
g58
NtRp1361
(dp1362
g61
(dp1363
sg70
g1332
sg63
(lp1364
g56
(g77
g58
NtRp1365
(dp1366
g61
(dp1367
sg70
g1361
sg63
(lp1368
g56
(g57
g58
NtRp1369
(dp1370
g61
(dp1371
g69
I3
ssg70
g1365
sg63
(lp1372
S'2'
asbasbasbag56
(g72
g58
NtRp1373
(dp1374
g61
(dp1375
sg70
g1332
sg63
(lp1376
g56
(g77
g58
NtRp1377
(dp1378
g61
(dp1379
sg70
g1373
sg63
(lp1380
g56
(g57
g58
NtRp1381
(dp1382
g61
(dp1383
g69
I3
ssg70
g1377
sg63
(lp1384
S'datetime.datetime(2011, 9, 26, 6, 55, 33)'
p1385
asbasbasbag56
(g72
g58
NtRp1386
(dp1387
g61
(dp1388
sg70
g1332
sg63
(lp1389
g56
(g77
g58
NtRp1390
(dp1391
g61
(dp1392
sg70
g1386
sg63
(lp1393
g56
(g57
g58
NtRp1394
(dp1395
g61
(dp1396
g69
I3
ssg70
g1390
sg63
(lp1397
S'stable'
p1398
asbasbasbasbasbasbasbag56
(g72
g58
NtRp1399
(dp1400
g61
(dp1401
sg70
g649
sg63
(lp1402
g56
(g77
g58
NtRp1403
(dp1404
g61
(dp1405
g81
g82
ssg70
g1399
sg63
(lp1406
S'wsgi_errors'
p1407
asbag56
(g77
g58
NtRp1408
(dp1409
g61
(dp1410
g88
g89
ssg70
g1399
sg63
(lp1411
S':'
asbag56
(g77
g58
NtRp1412
(dp1413
g61
(dp1414
sg70
g1399
sg63
(lp1415
g56
(g57
g58
NtRp1416
(dp1417
g61
(dp1418
g69
I4
ssg70
g1412
sg63
(lp1419
S"<open file '<stderr>', mode 'w' at 0x100416140>"
p1420
asbasbasbag56
(g72
g58
NtRp1421
(dp1422
g61
(dp1423
sg70
g649
sg63
(lp1424
g56
(g77
g58
NtRp1425
(dp1426
g61
(dp1427
g81
g82
ssg70
g1421
sg63
(lp1428
S'wsgi_file_wrapper'
p1429
asbag56
(g77
g58
NtRp1430
(dp1431
g61
(dp1432
g88
g89
ssg70
g1421
sg63
(lp1433
S':'
asbag56
(g77
g58
NtRp1434
(dp1435
g61
(dp1436
sg70
g1421
sg63
(lp1437
g56
(g57
g58
NtRp1438
(dp1439
g61
(dp1440
g69
I4
ssg70
g1434
sg63
(lp1441
S'<class wsgiref.util.FileWrapper at 0x1014a2bf0>'
p1442
asbasbasbag56
(g72
g58
NtRp1443
(dp1444
g61
(dp1445
sg70
g649
sg63
(lp1446
g56
(g77
g58
NtRp1447
(dp1448
g61
(dp1449
g81
g82
ssg70
g1443
sg63
(lp1450
S'wsgi_input'
p1451
asbag56
(g77
g58
NtRp1452
(dp1453
g61
(dp1454
g88
g89
ssg70
g1443
sg63
(lp1455
S':'
asbag56
(g77
g58
NtRp1456
(dp1457
g61
(dp1458
sg70
g1443
sg63
(lp1459
g56
(g57
g58
NtRp1460
(dp1461
g61
(dp1462
g69
I4
ssg70
g1456
sg63
(lp1463
S'<socket._fileobject object at 0x101a80500>'
p1464
asbasbasbag56
(g72
g58
NtRp1465
(dp1466
g61
(dp1467
sg70
g649
sg63
(lp1468
g56
(g77
g58
NtRp1469
(dp1470
g61
(dp1471
g81
g82
ssg70
g1465
sg63
(lp1472
S'wsgi_multiprocess'
p1473
asbag56
(g77
g58
NtRp1474
(dp1475
g61
(dp1476
g88
g89
ssg70
g1465
sg63
(lp1477
S':'
asbag56
(g77
g58
NtRp1478
(dp1479
g61
(dp1480
sg70
g1465
sg63
(lp1481
g56
(g57
g58
NtRp1482
(dp1483
g61
(dp1484
g69
I4
ssg70
g1478
sg63
(lp1485
g99
asbasbasbag56
(g72
g58
NtRp1486
(dp1487
g61
(dp1488
sg70
g649
sg63
(lp1489
g56
(g77
g58
NtRp1490
(dp1491
g61
(dp1492
g81
g82
ssg70
g1486
sg63
(lp1493
S'wsgi_multithread'
p1494
asbag56
(g77
g58
NtRp1495
(dp1496
g61
(dp1497
g88
g89
ssg70
g1486
sg63
(lp1498
S':'
asbag56
(g77
g58
NtRp1499
(dp1500
g61
(dp1501
sg70
g1486
sg63
(lp1502
g56
(g57
g58
NtRp1503
(dp1504
g61
(dp1505
g69
I4
ssg70
g1499
sg63
(lp1506
S'True'
p1507
asbasbasbag56
(g72
g58
NtRp1508
(dp1509
g61
(dp1510
sg70
g649
sg63
(lp1511
g56
(g77
g58
NtRp1512
(dp1513
g61
(dp1514
g81
g82
ssg70
g1508
sg63
(lp1515
S'wsgi_run_once'
p1516
asbag56
(g77
g58
NtRp1517
(dp1518
g61
(dp1519
g88
g89
ssg70
g1508
sg63
(lp1520
S':'
asbag56
(g77
g58
NtRp1521
(dp1522
g61
(dp1523
sg70
g1508
sg63
(lp1524
g56
(g57
g58
NtRp1525
(dp1526
g61
(dp1527
g69
I4
ssg70
g1521
sg63
(lp1528
g99
asbasbasbag56
(g72
g58
NtRp1529
(dp1530
g61
(dp1531
sg70
g649
sg63
(lp1532
g56
(g77
g58
NtRp1533
(dp1534
g61
(dp1535
g81
g82
ssg70
g1529
sg63
(lp1536
S'wsgi_url_scheme'
p1537
asbag56
(g77
g58
NtRp1538
(dp1539
g61
(dp1540
g88
g89
ssg70
g1529
sg63
(lp1541
S':'
asbag56
(g77
g58
NtRp1542
(dp1543
g61
(dp1544
sg70
g1529
sg63
(lp1545
g56
(g57
g58
NtRp1546
(dp1547
g61
(dp1548
g69
I4
ssg70
g1542
sg63
(lp1549
S'http'
p1550
asbasbasbag56
(g72
g58
NtRp1551
(dp1552
g61
(dp1553
sg70
g649
sg63
(lp1554
g56
(g77
g58
NtRp1555
(dp1556
g61
(dp1557
g81
g82
ssg70
g1551
sg63
(lp1558
S'wsgi_version'
p1559
asbag56
(g77
g58
NtRp1560
(dp1561
g61
(dp1562
g88
g89
ssg70
g1551
sg63
(lp1563
S':'
asbag56
(g77
g58
NtRp1564
(dp1565
g61
(dp1566
sg70
g1551
sg63
(lp1567
g56
(g57
g58
NtRp1568
(dp1569
g61
(dp1570
g69
I4
ssg70
g1564
sg63
(lp1571
g56
(g65
g58
NtRp1572
(dp1573
g61
(dp1574
g69
I3
ssg70
Nsg63
(lp1575
g56
(g72
g58
NtRp1576
(dp1577
g61
(dp1578
sg70
g1572
sg63
(lp1579
g56
(g77
g58
NtRp1580
(dp1581
g61
(dp1582
sg70
g1576
sg63
(lp1583
g56
(g57
g58
NtRp1584
(dp1585
g61
(dp1586
g69
I3
ssg70
g1580
sg63
(lp1587
S'1'
asbasbasbag56
(g72
g58
NtRp1588
(dp1589
g61
(dp1590
sg70
g1572
sg63
(lp1591
g56
(g77
g58
NtRp1592
(dp1593
g61
(dp1594
sg70
g1588
sg63
(lp1595
g56
(g57
g58
NtRp1596
(dp1597
g61
(dp1598
g69
I3
ssg70
g1592
sg63
(lp1599
S'0'
asbasbasbasbasbasbasbasbasbasbasbag56
(g72
g58
NtRp1600
(dp1601
g61
(dp1602
sg70
g66
sg63
(lp1603
g56
(g77
g58
NtRp1604
(dp1605
g61
(dp1606
g81
g82
ssg70
g1600
sg63
(lp1607
S'extension'
p1608
asbag56
(g77
g58
NtRp1609
(dp1610
g61
(dp1611
g88
g89
ssg70
g1600
sg63
(lp1612
S':'
asbag56
(g77
g58
NtRp1613
(dp1614
g61
(dp1615
sg70
g1600
sg63
(lp1616
g56
(g57
g58
NtRp1617
(dp1618
g61
(dp1619
g69
I5
ssg70
g1613
sg63
(lp1620
S'html'
p1621
asbasbasbag56
(g72
g58
NtRp1622
(dp1623
g61
(dp1624
sg70
g66
sg63
(lp1625
g56
(g77
g58
NtRp1626
(dp1627
g61
(dp1628
g81
g82
ssg70
g1622
sg63
(lp1629
S'folder'
p1630
asbag56
(g77
g58
NtRp1631
(dp1632
g61
(dp1633
g88
g89
ssg70
g1622
sg63
(lp1634
S':'
asbag56
(g77
g58
NtRp1635
(dp1636
g61
(dp1637
sg70
g1622
sg63
(lp1638
g56
(g57
g58
NtRp1639
(dp1640
g61
(dp1641
g69
I5
ssg70
g1635
sg63
(lp1642
S'/Users/excon/Sites/dreamscape/applications/welcome/'
p1643
asbasbasbag56
(g72
g58
NtRp1644
(dp1645
g61
(dp1646
sg70
g66
sg63
(lp1647
g56
(g77
g58
NtRp1648
(dp1649
g61
(dp1650
g81
g82
ssg70
g1644
sg63
(lp1651
S'function'
p1652
asbag56
(g77
g58
NtRp1653
(dp1654
g61
(dp1655
g88
g89
ssg70
g1644
sg63
(lp1656
S':'
asbag56
(g77
g58
NtRp1657
(dp1658
g61
(dp1659
sg70
g1644
sg63
(lp1660
g56
(g57
g58
NtRp1661
(dp1662
g61
(dp1663
g69
I5
ssg70
g1657
sg63
(lp1664
S'user'
p1665
asbasbasbag56
(g72
g58
NtRp1666
(dp1667
g61
(dp1668
sg70
g66
sg63
(lp1669
g56
(g77
g58
NtRp1670
(dp1671
g61
(dp1672
g81
g82
ssg70
g1666
sg63
(lp1673
S'get_vars'
p1674
asbag56
(g77
g58
NtRp1675
(dp1676
g61
(dp1677
g88
g89
ssg70
g1666
sg63
(lp1678
S':'
asbag56
(g77
g58
NtRp1679
(dp1680
g61
(dp1681
sg70
g1666
sg63
(lp1682
g56
(g57
g58
NtRp1683
(dp1684
g61
(dp1685
g69
I5
ssg70
g1679
sg63
(lp1686
g56
(g65
g58
NtRp1687
(dp1688
g61
(dp1689
g69
I4
ssg70
Nsg63
(lp1690
sbasbasbasbag56
(g72
g58
NtRp1691
(dp1692
g61
(dp1693
sg70
g66
sg63
(lp1694
g56
(g77
g58
NtRp1695
(dp1696
g61
(dp1697
g81
g82
ssg70
g1691
sg63
(lp1698
S'global_settings'
p1699
asbag56
(g77
g58
NtRp1700
(dp1701
g61
(dp1702
g88
g89
ssg70
g1691
sg63
(lp1703
S':'
asbag56
(g77
g58
NtRp1704
(dp1705
g61
(dp1706
sg70
g1691
sg63
(lp1707
g56
(g57
g58
NtRp1708
(dp1709
g61
(dp1710
g69
I5
ssg70
g1704
sg63
(lp1711
g56
(g65
g58
NtRp1712
(dp1713
g61
(dp1714
g69
I4
ssg70
Nsg63
(lp1715
g56
(g72
g58
NtRp1716
(dp1717
g61
(dp1718
sg70
g1712
sg63
(lp1719
g56
(g77
g58
NtRp1720
(dp1721
g61
(dp1722
g81
g82
ssg70
g1716
sg63
(lp1723
g661
asbag56
(g77
g58
NtRp1724
(dp1725
g61
(dp1726
g88
g89
ssg70
g1716
sg63
(lp1727
S':'
asbag56
(g77
g58
NtRp1728
(dp1729
g61
(dp1730
sg70
g1716
sg63
(lp1731
g56
(g57
g58
NtRp1732
(dp1733
g61
(dp1734
g69
I4
ssg70
g1728
sg63
(lp1735
S"set(['/Users/excon/Sites/dreamscape/applications/welcome/', '/Users/excon/Sites/dreamscape/applications/admin/'])"
p1736
asbasbasbag56
(g72
g58
NtRp1737
(dp1738
g61
(dp1739
sg70
g1712
sg63
(lp1740
g56
(g77
g58
NtRp1741
(dp1742
g61
(dp1743
g81
g82
ssg70
g1737
sg63
(lp1744
g683
asbag56
(g77
g58
NtRp1745
(dp1746
g61
(dp1747
g88
g89
ssg70
g1737
sg63
(lp1748
S':'
asbag56
(g77
g58
NtRp1749
(dp1750
g61
(dp1751
sg70
g1737
sg63
(lp1752
g56
(g57
g58
NtRp1753
(dp1754
g61
(dp1755
g69
I4
ssg70
g1749
sg63
(lp1756
g696
asbasbasbag56
(g72
g58
NtRp1757
(dp1758
g61
(dp1759
sg70
g1712
sg63
(lp1760
g56
(g77
g58
NtRp1761
(dp1762
g61
(dp1763
g81
g82
ssg70
g1757
sg63
(lp1764
g705
asbag56
(g77
g58
NtRp1765
(dp1766
g61
(dp1767
g88
g89
ssg70
g1757
sg63
(lp1768
S':'
asbag56
(g77
g58
NtRp1769
(dp1770
g61
(dp1771
sg70
g1757
sg63
(lp1772
g56
(g57
g58
NtRp1773
(dp1774
g61
(dp1775
g69
I4
ssg70
g1769
sg63
(lp1776
g56
(g65
g58
NtRp1777
(dp1778
g61
(dp1779
g69
I3
ssg70
Nsg63
(lp1780
sbasbasbasbag56
(g72
g58
NtRp1781
(dp1782
g61
(dp1783
sg70
g1712
sg63
(lp1784
g56
(g77
g58
NtRp1785
(dp1786
g61
(dp1787
g81
g82
ssg70
g1781
sg63
(lp1788
g730
asbag56
(g77
g58
NtRp1789
(dp1790
g61
(dp1791
g88
g89
ssg70
g1781
sg63
(lp1792
S':'
asbag56
(g77
g58
NtRp1793
(dp1794
g61
(dp1795
sg70
g1781
sg63
(lp1796
g56
(g57
g58
NtRp1797
(dp1798
g61
(dp1799
g69
I4
ssg70
g1793
sg63
(lp1800
S"<Values at 0x101c68170: {'verbose': False, 'ip': '127.0.0.1', 'shutdown_timeout': 5, 'taskbar': False, 'nocron': False, 'pid_filename': 'httpserver.pid', 'maxthreads': None, 'softcron': False, 'server_name': 'Excons-MacBook.local', 'bpython': False, 'nogui': False, 'port': 8000, 'extcron': False, 'debuglevel': 30, 'test': None, 'folder': '/Users/excon/Sites/dreamscape', 'config': '', 'import_models': False, 'winservice': '', 'shell': None, 'run': '', 'log_filename': 'httpserver.log', 'args': [''], 'ssl_ca_certificate': None, 'scheduler': None, 'profiler_filename': None, 'ssl_private_key': '', 'password': '<ask>', 'request_queue_size': 5, 'ssl_certificate': '', 'cronjob': False, 'plain': False, 'quiet': False, 'interfaces': None, 'minthreads': None, 'timeout': 10, 'numthreads': None, 'nobanner': False}>"
p1801
asbasbasbag56
(g72
g58
NtRp1802
(dp1803
g61
(dp1804
sg70
g1712
sg63
(lp1805
g56
(g77
g58
NtRp1806
(dp1807
g61
(dp1808
g81
g82
ssg70
g1802
sg63
(lp1809
g752
asbag56
(g77
g58
NtRp1810
(dp1811
g61
(dp1812
g88
g89
ssg70
g1802
sg63
(lp1813
S':'
asbag56
(g77
g58
NtRp1814
(dp1815
g61
(dp1816
sg70
g1802
sg63
(lp1817
g56
(g57
g58
NtRp1818
(dp1819
g61
(dp1820
g69
I4
ssg70
g1814
sg63
(lp1821
S'set([])'
p1822
asbasbasbag56
(g72
g58
NtRp1823
(dp1824
g61
(dp1825
sg70
g1712
sg63
(lp1826
g56
(g77
g58
NtRp1827
(dp1828
g61
(dp1829
g81
g82
ssg70
g1823
sg63
(lp1830
g774
asbag56
(g77
g58
NtRp1831
(dp1832
g61
(dp1833
g88
g89
ssg70
g1823
sg63
(lp1834
S':'
asbag56
(g77
g58
NtRp1835
(dp1836
g61
(dp1837
sg70
g1823
sg63
(lp1838
g56
(g57
g58
NtRp1839
(dp1840
g61
(dp1841
g69
I4
ssg70
g1835
sg63
(lp1842
g99
asbasbasbag56
(g72
g58
NtRp1843
(dp1844
g61
(dp1845
sg70
g1712
sg63
(lp1846
g56
(g77
g58
NtRp1847
(dp1848
g61
(dp1849
g81
g82
ssg70
g1843
sg63
(lp1850
g795
asbag56
(g77
g58
NtRp1851
(dp1852
g61
(dp1853
g88
g89
ssg70
g1843
sg63
(lp1854
S':'
asbag56
(g77
g58
NtRp1855
(dp1856
g61
(dp1857
sg70
g1843
sg63
(lp1858
g56
(g57
g58
NtRp1859
(dp1860
g61
(dp1861
g69
I4
ssg70
g1855
sg63
(lp1862
g808
asbasbasbag56
(g72
g58
NtRp1863
(dp1864
g61
(dp1865
sg70
g1712
sg63
(lp1866
g56
(g77
g58
NtRp1867
(dp1868
g61
(dp1869
g81
g82
ssg70
g1863
sg63
(lp1870
g993
asbag56
(g77
g58
NtRp1871
(dp1872
g61
(dp1873
g88
g89
ssg70
g1863
sg63
(lp1874
S':'
asbag56
(g77
g58
NtRp1875
(dp1876
g61
(dp1877
sg70
g1863
sg63
(lp1878
g56
(g57
g58
NtRp1879
(dp1880
g61
(dp1881
g69
I4
ssg70
g1875
sg63
(lp1882
g99
asbasbasbag56
(g72
g58
NtRp1883
(dp1884
g61
(dp1885
sg70
g1712
sg63
(lp1886
g56
(g77
g58
NtRp1887
(dp1888
g61
(dp1889
g81
g82
ssg70
g1883
sg63
(lp1890
g1254
asbag56
(g77
g58
NtRp1891
(dp1892
g61
(dp1893
g88
g89
ssg70
g1883
sg63
(lp1894
S':'
asbag56
(g77
g58
NtRp1895
(dp1896
g61
(dp1897
sg70
g1883
sg63
(lp1898
g56
(g57
g58
NtRp1899
(dp1900
g61
(dp1901
g69
I4
ssg70
g1895
sg63
(lp1902
g1267
asbasbasbag56
(g72
g58
NtRp1903
(dp1904
g61
(dp1905
sg70
g1712
sg63
(lp1906
g56
(g77
g58
NtRp1907
(dp1908
g61
(dp1909
g81
g82
ssg70
g1903
sg63
(lp1910
g1319
asbag56
(g77
g58
NtRp1911
(dp1912
g61
(dp1913
g88
g89
ssg70
g1903
sg63
(lp1914
S':'
asbag56
(g77
g58
NtRp1915
(dp1916
g61
(dp1917
sg70
g1903
sg63
(lp1918
g56
(g57
g58
NtRp1919
(dp1920
g61
(dp1921
g69
I4
ssg70
g1915
sg63
(lp1922
g56
(g65
g58
NtRp1923
(dp1924
g61
(dp1925
g69
I3
ssg70
Nsg63
(lp1926
g56
(g72
g58
NtRp1927
(dp1928
g61
(dp1929
sg70
g1923
sg63
(lp1930
g56
(g77
g58
NtRp1931
(dp1932
g61
(dp1933
sg70
g1927
sg63
(lp1934
g56
(g57
g58
NtRp1935
(dp1936
g61
(dp1937
g69
I3
ssg70
g1931
sg63
(lp1938
S'1'
asbasbasbag56
(g72
g58
NtRp1939
(dp1940
g61
(dp1941
sg70
g1923
sg63
(lp1942
g56
(g77
g58
NtRp1943
(dp1944
g61
(dp1945
sg70
g1939
sg63
(lp1946
g56
(g57
g58
NtRp1947
(dp1948
g61
(dp1949
g69
I3
ssg70
g1943
sg63
(lp1950
S'99'
p1951
asbasbasbag56
(g72
g58
NtRp1952
(dp1953
g61
(dp1954
sg70
g1923
sg63
(lp1955
g56
(g77
g58
NtRp1956
(dp1957
g61
(dp1958
sg70
g1952
sg63
(lp1959
g56
(g57
g58
NtRp1960
(dp1961
g61
(dp1962
g69
I3
ssg70
g1956
sg63
(lp1963
S'2'
asbasbasbag56
(g72
g58
NtRp1964
(dp1965
g61
(dp1966
sg70
g1923
sg63
(lp1967
g56
(g77
g58
NtRp1968
(dp1969
g61
(dp1970
sg70
g1964
sg63
(lp1971
g56
(g57
g58
NtRp1972
(dp1973
g61
(dp1974
g69
I3
ssg70
g1968
sg63
(lp1975
S'datetime.datetime(2011, 9, 26, 6, 55, 33)'
p1976
asbasbasbag56
(g72
g58
NtRp1977
(dp1978
g61
(dp1979
sg70
g1923
sg63
(lp1980
g56
(g77
g58
NtRp1981
(dp1982
g61
(dp1983
sg70
g1977
sg63
(lp1984
g56
(g57
g58
NtRp1985
(dp1986
g61
(dp1987
g69
I3
ssg70
g1981
sg63
(lp1988
g1398
asbasbasbasbasbasbasbasbasbasbasbag56
(g72
g58
NtRp1989
(dp1990
g61
(dp1991
sg70
g66
sg63
(lp1992
g56
(g77
g58
NtRp1993
(dp1994
g61
(dp1995
g81
g82
ssg70
g1989
sg63
(lp1996
S'is_https'
p1997
asbag56
(g77
g58
NtRp1998
(dp1999
g61
(dp2000
g88
g89
ssg70
g1989
sg63
(lp2001
S':'
asbag56
(g77
g58
NtRp2002
(dp2003
g61
(dp2004
sg70
g1989
sg63
(lp2005
g56
(g57
g58
NtRp2006
(dp2007
g61
(dp2008
g69
I5
ssg70
g2002
sg63
(lp2009
g99
asbasbasbag56
(g72
g58
NtRp2010
(dp2011
g61
(dp2012
sg70
g66
sg63
(lp2013
g56
(g77
g58
NtRp2014
(dp2015
g61
(dp2016
g81
g82
ssg70
g2010
sg63
(lp2017
S'is_local'
p2018
asbag56
(g77
g58
NtRp2019
(dp2020
g61
(dp2021
g88
g89
ssg70
g2010
sg63
(lp2022
S':'
asbag56
(g77
g58
NtRp2023
(dp2024
g61
(dp2025
sg70
g2010
sg63
(lp2026
g56
(g57
g58
NtRp2027
(dp2028
g61
(dp2029
g69
I5
ssg70
g2023
sg63
(lp2030
g1507
asbasbasbag56
(g72
g58
NtRp2031
(dp2032
g61
(dp2033
sg70
g66
sg63
(lp2034
g56
(g77
g58
NtRp2035
(dp2036
g61
(dp2037
g81
g82
ssg70
g2031
sg63
(lp2038
S'is_restful'
p2039
asbag56
(g77
g58
NtRp2040
(dp2041
g61
(dp2042
g88
g89
ssg70
g2031
sg63
(lp2043
S':'
asbag56
(g77
g58
NtRp2044
(dp2045
g61
(dp2046
sg70
g2031
sg63
(lp2047
g56
(g57
g58
NtRp2048
(dp2049
g61
(dp2050
g69
I5
ssg70
g2044
sg63
(lp2051
g99
asbasbasbag56
(g72
g58
NtRp2052
(dp2053
g61
(dp2054
sg70
g66
sg63
(lp2055
g56
(g77
g58
NtRp2056
(dp2057
g61
(dp2058
g81
g82
ssg70
g2052
sg63
(lp2059
S'now'
p2060
asbag56
(g77
g58
NtRp2061
(dp2062
g61
(dp2063
g88
g89
ssg70
g2052
sg63
(lp2064
S':'
asbag56
(g77
g58
NtRp2065
(dp2066
g61
(dp2067
sg70
g2052
sg63
(lp2068
g56
(g57
g58
NtRp2069
(dp2070
g61
(dp2071
g69
I5
ssg70
g2065
sg63
(lp2072
S'datetime.datetime(2011, 9, 29, 8, 50, 20, 166691)'
p2073
asbasbasbag56
(g72
g58
NtRp2074
(dp2075
g61
(dp2076
sg70
g66
sg63
(lp2077
g56
(g77
g58
NtRp2078
(dp2079
g61
(dp2080
g81
g82
ssg70
g2074
sg63
(lp2081
S'post_vars'
p2082
asbag56
(g77
g58
NtRp2083
(dp2084
g61
(dp2085
g88
g89
ssg70
g2074
sg63
(lp2086
S':'
asbag56
(g77
g58
NtRp2087
(dp2088
g61
(dp2089
sg70
g2074
sg63
(lp2090
g56
(g57
g58
NtRp2091
(dp2092
g61
(dp2093
g69
I5
ssg70
g2087
sg63
(lp2094
g56
(g65
g58
NtRp2095
(dp2096
g61
(dp2097
g69
I4
ssg70
Nsg63
(lp2098
sbasbasbasbag56
(g72
g58
NtRp2099
(dp2100
g61
(dp2101
sg70
g66
sg63
(lp2102
g56
(g77
g58
NtRp2103
(dp2104
g61
(dp2105
g81
g82
ssg70
g2099
sg63
(lp2106
S'url'
p2107
asbag56
(g77
g58
NtRp2108
(dp2109
g61
(dp2110
g88
g89
ssg70
g2099
sg63
(lp2111
S':'
asbag56
(g77
g58
NtRp2112
(dp2113
g61
(dp2114
sg70
g2099
sg63
(lp2115
g56
(g57
g58
NtRp2116
(dp2117
g61
(dp2118
g69
I5
ssg70
g2112
sg63
(lp2119
S'/user/login'
p2120
asbasbasbag56
(g72
g58
NtRp2121
(dp2122
g61
(dp2123
sg70
g66
sg63
(lp2124
g56
(g77
g58
NtRp2125
(dp2126
g61
(dp2127
g81
g82
ssg70
g2121
sg63
(lp2128
S'utcnow'
p2129
asbag56
(g77
g58
NtRp2130
(dp2131
g61
(dp2132
g88
g89
ssg70
g2121
sg63
(lp2133
S':'
asbag56
(g77
g58
NtRp2134
(dp2135
g61
(dp2136
sg70
g2121
sg63
(lp2137
g56
(g57
g58
NtRp2138
(dp2139
g61
(dp2140
g69
I5
ssg70
g2134
sg63
(lp2141
S'datetime.datetime(2011, 9, 29, 15, 50, 20, 166705)'
p2142
asbasbasbag56
(g72
g58
NtRp2143
(dp2144
g61
(dp2145
sg70
g66
sg63
(lp2146
g56
(g77
g58
NtRp2147
(dp2148
g61
(dp2149
g81
g82
ssg70
g2143
sg63
(lp2150
S'uuid'
p2151
asbag56
(g77
g58
NtRp2152
(dp2153
g61
(dp2154
g88
g89
ssg70
g2143
sg63
(lp2155
S':'
asbag56
(g77
g58
NtRp2156
(dp2157
g61
(dp2158
sg70
g2143
sg63
(lp2159
g56
(g57
g58
NtRp2160
(dp2161
g61
(dp2162
g69
I5
ssg70
g2156
sg63
(lp2163
S'welcome/127.0.0.1.2011-09-29.08-50-20.96afd11f-956f-47c3-be63-fe4b21755fa7'
p2164
asbasbasbag56
(g72
g58
NtRp2165
(dp2166
g61
(dp2167
sg70
g66
sg63
(lp2168
g56
(g77
g58
NtRp2169
(dp2170
g61
(dp2171
g81
g82
ssg70
g2165
sg63
(lp2172
S'vars'
p2173
asbag56
(g77
g58
NtRp2174
(dp2175
g61
(dp2176
g88
g89
ssg70
g2165
sg63
(lp2177
S':'
asbag56
(g77
g58
NtRp2178
(dp2179
g61
(dp2180
sg70
g2165
sg63
(lp2181
g56
(g57
g58
NtRp2182
(dp2183
g61
(dp2184
g69
I5
ssg70
g2178
sg63
(lp2185
g56
(g65
g58
NtRp2186
(dp2187
g61
(dp2188
g69
I4
ssg70
Nsg63
(lp2189
sbasbasbasbag56
(g72
g58
NtRp2190
(dp2191
g61
(dp2192
sg70
g66
sg63
(lp2193
g56
(g77
g58
NtRp2194
(dp2195
g61
(dp2196
g81
g82
ssg70
g2190
sg63
(lp2197
S'wsgi'
p2198
asbag56
(g77
g58
NtRp2199
(dp2200
g61
(dp2201
g88
g89
ssg70
g2190
sg63
(lp2202
S':'
asbag56
(g77
g58
NtRp2203
(dp2204
g61
(dp2205
sg70
g2190
sg63
(lp2206
g56
(g57
g58
NtRp2207
(dp2208
g61
(dp2209
g69
I5
ssg70
g2203
sg63
(lp2210
g56
(g65
g58
NtRp2211
(dp2212
g61
(dp2213
g69
I4
ssg70
Nsg63
(lp2214
g56
(g72
g58
NtRp2215
(dp2216
g61
(dp2217
sg70
g2211
sg63
(lp2218
g56
(g77
g58
NtRp2219
(dp2220
g61
(dp2221
g81
g82
ssg70
g2215
sg63
(lp2222
S'environ'
p2223
asbag56
(g77
g58
NtRp2224
(dp2225
g61
(dp2226
g88
g89
ssg70
g2215
sg63
(lp2227
S':'
asbag56
(g77
g58
NtRp2228
(dp2229
g61
(dp2230
sg70
g2215
sg63
(lp2231
g56
(g57
g58
NtRp2232
(dp2233
g61
(dp2234
g69
I4
ssg70
g2228
sg63
(lp2235
g56
(g65
g58
NtRp2236
(dp2237
g61
(dp2238
g69
I3
ssg70
Nsg63
(lp2239
g56
(g72
g58
NtRp2240
(dp2241
g61
(dp2242
sg70
g2236
sg63
(lp2243
g56
(g77
g58
NtRp2244
(dp2245
g61
(dp2246
g81
g82
ssg70
g2240
sg63
(lp2247
S'HTTP_ACCEPT'
p2248
asbag56
(g77
g58
NtRp2249
(dp2250
g61
(dp2251
g88
g89
ssg70
g2240
sg63
(lp2252
S':'
asbag56
(g77
g58
NtRp2253
(dp2254
g61
(dp2255
sg70
g2240
sg63
(lp2256
g56
(g57
g58
NtRp2257
(dp2258
g61
(dp2259
g69
I3
ssg70
g2253
sg63
(lp2260
g830
asbasbasbag56
(g72
g58
NtRp2261
(dp2262
g61
(dp2263
sg70
g2236
sg63
(lp2264
g56
(g77
g58
NtRp2265
(dp2266
g61
(dp2267
g81
g82
ssg70
g2261
sg63
(lp2268
S'HTTP_ACCEPT_CHARSET'
p2269
asbag56
(g77
g58
NtRp2270
(dp2271
g61
(dp2272
g88
g89
ssg70
g2261
sg63
(lp2273
S':'
asbag56
(g77
g58
NtRp2274
(dp2275
g61
(dp2276
sg70
g2261
sg63
(lp2277
g56
(g57
g58
NtRp2278
(dp2279
g61
(dp2280
g69
I3
ssg70
g2274
sg63
(lp2281
g852
asbasbasbag56
(g72
g58
NtRp2282
(dp2283
g61
(dp2284
sg70
g2236
sg63
(lp2285
g56
(g77
g58
NtRp2286
(dp2287
g61
(dp2288
g81
g82
ssg70
g2282
sg63
(lp2289
S'HTTP_ACCEPT_ENCODING'
p2290
asbag56
(g77
g58
NtRp2291
(dp2292
g61
(dp2293
g88
g89
ssg70
g2282
sg63
(lp2294
S':'
asbag56
(g77
g58
NtRp2295
(dp2296
g61
(dp2297
sg70
g2282
sg63
(lp2298
g56
(g57
g58
NtRp2299
(dp2300
g61
(dp2301
g69
I3
ssg70
g2295
sg63
(lp2302
g874
asbasbasbag56
(g72
g58
NtRp2303
(dp2304
g61
(dp2305
sg70
g2236
sg63
(lp2306
g56
(g77
g58
NtRp2307
(dp2308
g61
(dp2309
g81
g82
ssg70
g2303
sg63
(lp2310
S'HTTP_ACCEPT_LANGUAGE'
p2311
asbag56
(g77
g58
NtRp2312
(dp2313
g61
(dp2314
g88
g89
ssg70
g2303
sg63
(lp2315
S':'
asbag56
(g77
g58
NtRp2316
(dp2317
g61
(dp2318
sg70
g2303
sg63
(lp2319
g56
(g57
g58
NtRp2320
(dp2321
g61
(dp2322
g69
I3
ssg70
g2316
sg63
(lp2323
g896
asbasbasbag56
(g72
g58
NtRp2324
(dp2325
g61
(dp2326
sg70
g2236
sg63
(lp2327
g56
(g77
g58
NtRp2328
(dp2329
g61
(dp2330
g81
g82
ssg70
g2324
sg63
(lp2331
S'HTTP_CONNECTION'
p2332
asbag56
(g77
g58
NtRp2333
(dp2334
g61
(dp2335
g88
g89
ssg70
g2324
sg63
(lp2336
S':'
asbag56
(g77
g58
NtRp2337
(dp2338
g61
(dp2339
sg70
g2324
sg63
(lp2340
g56
(g57
g58
NtRp2341
(dp2342
g61
(dp2343
g69
I3
ssg70
g2337
sg63
(lp2344
g918
asbasbasbag56
(g72
g58
NtRp2345
(dp2346
g61
(dp2347
sg70
g2236
sg63
(lp2348
g56
(g77
g58
NtRp2349
(dp2350
g61
(dp2351
g81
g82
ssg70
g2345
sg63
(lp2352
S'HTTP_COOKIE'
p2353
asbag56
(g77
g58
NtRp2354
(dp2355
g61
(dp2356
g88
g89
ssg70
g2345
sg63
(lp2357
S':'
asbag56
(g77
g58
NtRp2358
(dp2359
g61
(dp2360
sg70
g2345
sg63
(lp2361
g56
(g57
g58
NtRp2362
(dp2363
g61
(dp2364
g69
I3
ssg70
g2358
sg63
(lp2365
g940
asbasbasbag56
(g72
g58
NtRp2366
(dp2367
g61
(dp2368
sg70
g2236
sg63
(lp2369
g56
(g77
g58
NtRp2370
(dp2371
g61
(dp2372
g81
g82
ssg70
g2366
sg63
(lp2373
S'HTTP_HOST'
p2374
asbag56
(g77
g58
NtRp2375
(dp2376
g61
(dp2377
g88
g89
ssg70
g2366
sg63
(lp2378
S':'
asbag56
(g77
g58
NtRp2379
(dp2380
g61
(dp2381
sg70
g2366
sg63
(lp2382
g56
(g57
g58
NtRp2383
(dp2384
g61
(dp2385
g69
I3
ssg70
g2379
sg63
(lp2386
g962
asbasbasbag56
(g72
g58
NtRp2387
(dp2388
g61
(dp2389
sg70
g2236
sg63
(lp2390
g56
(g77
g58
NtRp2391
(dp2392
g61
(dp2393
g81
g82
ssg70
g2387
sg63
(lp2394
S'HTTP_USER_AGENT'
p2395
asbag56
(g77
g58
NtRp2396
(dp2397
g61
(dp2398
g88
g89
ssg70
g2387
sg63
(lp2399
S':'
asbag56
(g77
g58
NtRp2400
(dp2401
g61
(dp2402
sg70
g2387
sg63
(lp2403
g56
(g57
g58
NtRp2404
(dp2405
g61
(dp2406
g69
I3
ssg70
g2400
sg63
(lp2407
g984
asbasbasbag56
(g72
g58
NtRp2408
(dp2409
g61
(dp2410
sg70
g2236
sg63
(lp2411
g56
(g77
g58
NtRp2412
(dp2413
g61
(dp2414
g81
g82
ssg70
g2408
sg63
(lp2415
S'PATH_INFO'
p2416
asbag56
(g77
g58
NtRp2417
(dp2418
g61
(dp2419
g88
g89
ssg70
g2408
sg63
(lp2420
S':'
asbag56
(g77
g58
NtRp2421
(dp2422
g61
(dp2423
sg70
g2408
sg63
(lp2424
g56
(g57
g58
NtRp2425
(dp2426
g61
(dp2427
g69
I3
ssg70
g2421
sg63
(lp2428
g1027
asbasbasbag56
(g72
g58
NtRp2429
(dp2430
g61
(dp2431
sg70
g2236
sg63
(lp2432
g56
(g77
g58
NtRp2433
(dp2434
g61
(dp2435
g81
g82
ssg70
g2429
sg63
(lp2436
S'QUERY_STRING'
p2437
asbag56
(g77
g58
NtRp2438
(dp2439
g61
(dp2440
g88
g89
ssg70
g2429
sg63
(lp2441
S':'
asbag56
(g77
g58
NtRp2442
(dp2443
g61
(dp2444
sg70
g2429
sg63
(lp2445
g56
(g57
g58
NtRp2446
(dp2447
g61
(dp2448
g69
I3
ssg70
g2442
sg63
(lp2449
g1049
asbasbasbag56
(g72
g58
NtRp2450
(dp2451
g61
(dp2452
sg70
g2236
sg63
(lp2453
g56
(g77
g58
NtRp2454
(dp2455
g61
(dp2456
g81
g82
ssg70
g2450
sg63
(lp2457
S'REMOTE_ADDR'
p2458
asbag56
(g77
g58
NtRp2459
(dp2460
g61
(dp2461
g88
g89
ssg70
g2450
sg63
(lp2462
S':'
asbag56
(g77
g58
NtRp2463
(dp2464
g61
(dp2465
sg70
g2450
sg63
(lp2466
g56
(g57
g58
NtRp2467
(dp2468
g61
(dp2469
g69
I3
ssg70
g2463
sg63
(lp2470
g202
asbasbasbag56
(g72
g58
NtRp2471
(dp2472
g61
(dp2473
sg70
g2236
sg63
(lp2474
g56
(g77
g58
NtRp2475
(dp2476
g61
(dp2477
g81
g82
ssg70
g2471
sg63
(lp2478
S'REMOTE_PORT'
p2479
asbag56
(g77
g58
NtRp2480
(dp2481
g61
(dp2482
g88
g89
ssg70
g2471
sg63
(lp2483
S':'
asbag56
(g77
g58
NtRp2484
(dp2485
g61
(dp2486
sg70
g2471
sg63
(lp2487
g56
(g57
g58
NtRp2488
(dp2489
g61
(dp2490
g69
I3
ssg70
g2484
sg63
(lp2491
g1092
asbasbasbag56
(g72
g58
NtRp2492
(dp2493
g61
(dp2494
sg70
g2236
sg63
(lp2495
g56
(g77
g58
NtRp2496
(dp2497
g61
(dp2498
g81
g82
ssg70
g2492
sg63
(lp2499
S'REQUEST_METHOD'
p2500
asbag56
(g77
g58
NtRp2501
(dp2502
g61
(dp2503
g88
g89
ssg70
g2492
sg63
(lp2504
S':'
asbag56
(g77
g58
NtRp2505
(dp2506
g61
(dp2507
sg70
g2492
sg63
(lp2508
g56
(g57
g58
NtRp2509
(dp2510
g61
(dp2511
g69
I3
ssg70
g2505
sg63
(lp2512
g1114
asbasbasbag56
(g72
g58
NtRp2513
(dp2514
g61
(dp2515
sg70
g2236
sg63
(lp2516
g56
(g77
g58
NtRp2517
(dp2518
g61
(dp2519
g81
g82
ssg70
g2513
sg63
(lp2520
S'REQUEST_URI'
p2521
asbag56
(g77
g58
NtRp2522
(dp2523
g61
(dp2524
g88
g89
ssg70
g2513
sg63
(lp2525
S':'
asbag56
(g77
g58
NtRp2526
(dp2527
g61
(dp2528
sg70
g2513
sg63
(lp2529
g56
(g57
g58
NtRp2530
(dp2531
g61
(dp2532
g69
I3
ssg70
g2526
sg63
(lp2533
g1136
asbasbasbag56
(g72
g58
NtRp2534
(dp2535
g61
(dp2536
sg70
g2236
sg63
(lp2537
g56
(g77
g58
NtRp2538
(dp2539
g61
(dp2540
g81
g82
ssg70
g2534
sg63
(lp2541
S'SCRIPT_NAME'
p2542
asbag56
(g77
g58
NtRp2543
(dp2544
g61
(dp2545
g88
g89
ssg70
g2534
sg63
(lp2546
S':'
asbag56
(g77
g58
NtRp2547
(dp2548
g61
(dp2549
sg70
g2534
sg63
(lp2550
g56
(g57
g58
NtRp2551
(dp2552
g61
(dp2553
g69
I3
ssg70
g2547
sg63
(lp2554
S''
asbasbasbag56
(g72
g58
NtRp2555
(dp2556
g61
(dp2557
sg70
g2236
sg63
(lp2558
g56
(g77
g58
NtRp2559
(dp2560
g61
(dp2561
g81
g82
ssg70
g2555
sg63
(lp2562
S'SERVER_NAME'
p2563
asbag56
(g77
g58
NtRp2564
(dp2565
g61
(dp2566
g88
g89
ssg70
g2555
sg63
(lp2567
S':'
asbag56
(g77
g58
NtRp2568
(dp2569
g61
(dp2570
sg70
g2555
sg63
(lp2571
g56
(g57
g58
NtRp2572
(dp2573
g61
(dp2574
g69
I3
ssg70
g2568
sg63
(lp2575
g1179
asbasbasbag56
(g72
g58
NtRp2576
(dp2577
g61
(dp2578
sg70
g2236
sg63
(lp2579
g56
(g77
g58
NtRp2580
(dp2581
g61
(dp2582
g81
g82
ssg70
g2576
sg63
(lp2583
S'SERVER_PORT'
p2584
asbag56
(g77
g58
NtRp2585
(dp2586
g61
(dp2587
g88
g89
ssg70
g2576
sg63
(lp2588
S':'
asbag56
(g77
g58
NtRp2589
(dp2590
g61
(dp2591
sg70
g2576
sg63
(lp2592
g56
(g57
g58
NtRp2593
(dp2594
g61
(dp2595
g69
I3
ssg70
g2589
sg63
(lp2596
g1201
asbasbasbag56
(g72
g58
NtRp2597
(dp2598
g61
(dp2599
sg70
g2236
sg63
(lp2600
g56
(g77
g58
NtRp2601
(dp2602
g61
(dp2603
g81
g82
ssg70
g2597
sg63
(lp2604
S'SERVER_PROTOCOL'
p2605
asbag56
(g77
g58
NtRp2606
(dp2607
g61
(dp2608
g88
g89
ssg70
g2597
sg63
(lp2609
S':'
asbag56
(g77
g58
NtRp2610
(dp2611
g61
(dp2612
sg70
g2597
sg63
(lp2613
g56
(g57
g58
NtRp2614
(dp2615
g61
(dp2616
g69
I3
ssg70
g2610
sg63
(lp2617
g1223
asbasbasbag56
(g72
g58
NtRp2618
(dp2619
g61
(dp2620
sg70
g2236
sg63
(lp2621
g56
(g77
g58
NtRp2622
(dp2623
g61
(dp2624
g81
g82
ssg70
g2618
sg63
(lp2625
S'SERVER_SOFTWARE'
p2626
asbag56
(g77
g58
NtRp2627
(dp2628
g61
(dp2629
g88
g89
ssg70
g2618
sg63
(lp2630
S':'
asbag56
(g77
g58
NtRp2631
(dp2632
g61
(dp2633
sg70
g2618
sg63
(lp2634
g56
(g57
g58
NtRp2635
(dp2636
g61
(dp2637
g69
I3
ssg70
g2631
sg63
(lp2638
g1245
asbasbasbag56
(g72
g58
NtRp2639
(dp2640
g61
(dp2641
sg70
g2236
sg63
(lp2642
g56
(g77
g58
NtRp2643
(dp2644
g61
(dp2645
g81
g82
ssg70
g2639
sg63
(lp2646
S'WEB2PY_ORIGINAL_URI'
p2647
asbag56
(g77
g58
NtRp2648
(dp2649
g61
(dp2650
g88
g89
ssg70
g2639
sg63
(lp2651
S':'
asbag56
(g77
g58
NtRp2652
(dp2653
g61
(dp2654
sg70
g2639
sg63
(lp2655
g56
(g57
g58
NtRp2656
(dp2657
g61
(dp2658
g69
I3
ssg70
g2652
sg63
(lp2659
g1289
asbasbasbag56
(g72
g58
NtRp2660
(dp2661
g61
(dp2662
sg70
g2236
sg63
(lp2663
g56
(g77
g58
NtRp2664
(dp2665
g61
(dp2666
g81
g82
ssg70
g2660
sg63
(lp2667
S'wsgi.errors'
p2668
asbag56
(g77
g58
NtRp2669
(dp2670
g61
(dp2671
g88
g89
ssg70
g2660
sg63
(lp2672
S':'
asbag56
(g77
g58
NtRp2673
(dp2674
g61
(dp2675
sg70
g2660
sg63
(lp2676
g56
(g57
g58
NtRp2677
(dp2678
g61
(dp2679
g69
I3
ssg70
g2673
sg63
(lp2680
S"<open file '<stderr>', mode 'w' at 0x100416140>"
p2681
asbasbasbag56
(g72
g58
NtRp2682
(dp2683
g61
(dp2684
sg70
g2236
sg63
(lp2685
g56
(g77
g58
NtRp2686
(dp2687
g61
(dp2688
g81
g82
ssg70
g2682
sg63
(lp2689
S'wsgi.file_wrapper'
p2690
asbag56
(g77
g58
NtRp2691
(dp2692
g61
(dp2693
g88
g89
ssg70
g2682
sg63
(lp2694
S':'
asbag56
(g77
g58
NtRp2695
(dp2696
g61
(dp2697
sg70
g2682
sg63
(lp2698
g56
(g57
g58
NtRp2699
(dp2700
g61
(dp2701
g69
I3
ssg70
g2695
sg63
(lp2702
S'<class wsgiref.util.FileWrapper at 0x1014a2bf0>'
p2703
asbasbasbag56
(g72
g58
NtRp2704
(dp2705
g61
(dp2706
sg70
g2236
sg63
(lp2707
g56
(g77
g58
NtRp2708
(dp2709
g61
(dp2710
g81
g82
ssg70
g2704
sg63
(lp2711
S'wsgi.input'
p2712
asbag56
(g77
g58
NtRp2713
(dp2714
g61
(dp2715
g88
g89
ssg70
g2704
sg63
(lp2716
S':'
asbag56
(g77
g58
NtRp2717
(dp2718
g61
(dp2719
sg70
g2704
sg63
(lp2720
g56
(g57
g58
NtRp2721
(dp2722
g61
(dp2723
g69
I3
ssg70
g2717
sg63
(lp2724
S'<cStringIO.StringO object at 0x1169b46c0>'
p2725
asbasbasbag56
(g72
g58
NtRp2726
(dp2727
g61
(dp2728
sg70
g2236
sg63
(lp2729
g56
(g77
g58
NtRp2730
(dp2731
g61
(dp2732
g81
g82
ssg70
g2726
sg63
(lp2733
S'wsgi.multiprocess'
p2734
asbag56
(g77
g58
NtRp2735
(dp2736
g61
(dp2737
g88
g89
ssg70
g2726
sg63
(lp2738
S':'
asbag56
(g77
g58
NtRp2739
(dp2740
g61
(dp2741
sg70
g2726
sg63
(lp2742
g56
(g57
g58
NtRp2743
(dp2744
g61
(dp2745
g69
I3
ssg70
g2739
sg63
(lp2746
g99
asbasbasbag56
(g72
g58
NtRp2747
(dp2748
g61
(dp2749
sg70
g2236
sg63
(lp2750
g56
(g77
g58
NtRp2751
(dp2752
g61
(dp2753
g81
g82
ssg70
g2747
sg63
(lp2754
S'wsgi.multithread'
p2755
asbag56
(g77
g58
NtRp2756
(dp2757
g61
(dp2758
g88
g89
ssg70
g2747
sg63
(lp2759
S':'
asbag56
(g77
g58
NtRp2760
(dp2761
g61
(dp2762
sg70
g2747
sg63
(lp2763
g56
(g57
g58
NtRp2764
(dp2765
g61
(dp2766
g69
I3
ssg70
g2760
sg63
(lp2767
g1507
asbasbasbag56
(g72
g58
NtRp2768
(dp2769
g61
(dp2770
sg70
g2236
sg63
(lp2771
g56
(g77
g58
NtRp2772
(dp2773
g61
(dp2774
g81
g82
ssg70
g2768
sg63
(lp2775
S'wsgi.run_once'
p2776
asbag56
(g77
g58
NtRp2777
(dp2778
g61
(dp2779
g88
g89
ssg70
g2768
sg63
(lp2780
S':'
asbag56
(g77
g58
NtRp2781
(dp2782
g61
(dp2783
sg70
g2768
sg63
(lp2784
g56
(g57
g58
NtRp2785
(dp2786
g61
(dp2787
g69
I3
ssg70
g2781
sg63
(lp2788
g99
asbasbasbag56
(g72
g58
NtRp2789
(dp2790
g61
(dp2791
sg70
g2236
sg63
(lp2792
g56
(g77
g58
NtRp2793
(dp2794
g61
(dp2795
g81
g82
ssg70
g2789
sg63
(lp2796
S'wsgi.url_scheme'
p2797
asbag56
(g77
g58
NtRp2798
(dp2799
g61
(dp2800
g88
g89
ssg70
g2789
sg63
(lp2801
S':'
asbag56
(g77
g58
NtRp2802
(dp2803
g61
(dp2804
sg70
g2789
sg63
(lp2805
g56
(g57
g58
NtRp2806
(dp2807
g61
(dp2808
g69
I3
ssg70
g2802
sg63
(lp2809
g1550
asbasbasbag56
(g72
g58
NtRp2810
(dp2811
g61
(dp2812
sg70
g2236
sg63
(lp2813
g56
(g77
g58
NtRp2814
(dp2815
g61
(dp2816
g81
g82
ssg70
g2810
sg63
(lp2817
S'wsgi.version'
p2818
asbag56
(g77
g58
NtRp2819
(dp2820
g61
(dp2821
g88
g89
ssg70
g2810
sg63
(lp2822
S':'
asbag56
(g77
g58
NtRp2823
(dp2824
g61
(dp2825
sg70
g2810
sg63
(lp2826
g56
(g57
g58
NtRp2827
(dp2828
g61
(dp2829
g69
I3
ssg70
g2823
sg63
(lp2830
S'1'
asbasbasbasbasbasbasbasbasbasbasbasbasbsS'frames'
p2831
(lp2832
(dp2833
S'file'
p2834
S'/Users/excon/Sites/dreamscape/gluon/restricted.py'
p2835
sS'dump'
p2836
(dp2837
S'environment'
p2838
S"{'A': <class 'gluon.html.A'>, 'Auth': <class 'gluon.tools.Auth'>, 'B': <class 'gluon.html.B'>, 'BEAUTIFY': <class 'gluon.html.BEAUTIFY'>, 'BODY': <class 'gluon.html.BODY'>, 'BR': <class 'gluon.html.BR'>, 'BUTTON': <class 'gluon.html.BUTTON'>, 'CAT': <class 'gluon.html.CAT'>, 'CENTER': <class 'gluon.html.CENTER'>, 'CLEANUP': <class 'gluon.validators.CLEANUP'>, ...}"
p2839
sS'ccode'
p2840
S'<code object <module> at 0x11691b738, file "/Use...cations/welcome/controllers/default.py", line 12>'
p2841
ssS'lnum'
p2842
I194
sS'lines'
p2843
(dp2844
I192
S'        else:'
p2845
sI193
S'            ccode = compile2(code,layer)'
p2846
sI194
S'        exec ccode in environment'
p2847
sI195
S'    except HTTP:'
p2848
sI196
S'        raise'
p2849
sI197
S'    except Exception, error:'
p2850
sI198
S'        # XXX Show exception in Wing IDE if running in debugger'
p2851
sI189
S'    try:'
p2852
sI190
S'        if type(code) == types.CodeType:'
p2853
sI191
S'            ccode = code'
p2854
ssS'call'
p2855
S"(code='# -*- coding: utf-8 -*-\\n# this file is released ...m=crud())\\n\\nresponse._vars=response._caller(user)\\n', environment={'A': <class 'gluon.html.A'>, 'Auth': <class 'gluon.tools.Auth'>, 'B': <class 'gluon.html.B'>, 'BEAUTIFY': <class 'gluon.html.BEAUTIFY'>, 'BODY': <class 'gluon.html.BODY'>, 'BR': <class 'gluon.html.BR'>, 'BUTTON': <class 'gluon.html.BUTTON'>, 'CAT': <class 'gluon.html.CAT'>, 'CENTER': <class 'gluon.html.CENTER'>, 'CLEANUP': <class 'gluon.validators.CLEANUP'>, ...}, layer='/Users/excon/Sites/dreamscape/applications/welcome/controllers/default.py')"
p2856
sS'func'
p2857
S'restricted'
p2858
sa(dp2859
g2834
S'/Users/excon/Sites/dreamscape/applications/welcome/controllers/default.py'
p2860
sg2836
(dp2861
sg2842
I103
sg2843
(dp2862
I96
S'    or with the signed load operator'
p2863
sI97
S"      LOAD('default','data.load',args='tables',ajax=True,user_signature=True)"
p2864
sI98
S'    """'
p2865
sI99
S'    if COMING_SOON:'
p2866
sI100
S"        redirect(URL(r=request, f='coming_soon'))"
p2867
sI101
S'    return dict(form=crud())'
p2868
sI92
S'    http://..../[app]/default/data/select/[table]'
p2869
sI93
S'    http://..../[app]/default/data/search/[table]'
p2870
sI94
S'    but URLs bust be signed, i.e. linked with'
p2871
sI95
S"      A('table',_href=URL('data/tables',user_signature=True))"
p2872
ssg2855
S'()'
p2873
sg2857
S'<module>'
p2874
sa(dp2875
g2834
S'/Users/excon/Sites/dreamscape/gluon/globals.py'
p2876
sg2836
(dp2877
S'self'
p2878
S'undefined'
p2879
sS'f'
S'<function user at 0x11691b8c0>'
p2880
ssg2842
I149
sg2843
(dp2881
I144
S'        self.meta = Storage()      # used by web2py_ajax.html'
p2882
sI145
S'        self.menu = []             # used by the default view layout'
p2883
sI146
S'        self.files = []            # used by web2py_ajax.html'
p2884
sI147
S'        self.generic_patterns = [] # patterns to allow generic views'
p2885
sI148
S'        self._vars = None'
p2886
sI149
S'        self._caller = lambda f: f()'
p2887
sI150
S'        self._view_environment = None'
p2888
sI151
S'        self._custom_commit = None'
p2889
sI152
S'        self._custom_rollback = None'
p2890
sI153
S''
ssg2855
S'(f=<function user at 0x11691b8c0>)'
p2891
sg2857
S'<lambda>'
p2892
sa(dp2893
g2834
S'/Users/excon/Sites/dreamscape/applications/welcome/controllers/default.py'
p2894
sg2836
(dp2895
S'form'
p2896
g2879
sS'f'
g2879
sS'global request'
p2897
S"<Storage {'body': <cStringIO.StringO object at 0...{'_next': '/dream'}>, 'post_vars': <Storage {}>}>"
p2898
sS'global auth'
p2899
S'<gluon.tools.Auth object at 0x1169b8210>'
p2900
sS'global URL'
p2901
S'<function URL at 0x100554de8>'
p2902
sS'builtinnext'
p2903
S'<built-in function next>'
p2904
sS'r'
g2879
sS'builtindict'
p2905
S"<type 'dict'>"
p2906
ssg2842
I59
sg2843
(dp2907
I54
S'    to decorate functions that need access control'
p2908
sI55
S'    """'
p2909
sI56
S'    if COMING_SOON:'
p2910
sI57
S"        redirect(URL(r=request, f='coming_soon'))"
p2911
sI58
S''
sI59
S"    return dict(form=auth(next=URL(r=request, f='coming_soon')))"
p2912
sI60
S''
sI61
S''
sI62
S'def download():'
p2913
sI63
S'    """'
p2914
ssg2855
S'()'
p2915
sg2857
S'user'
p2916
sasS'pyver'
p2917
S'Python 2.6.1: /usr/bin/python'
p2918
sS'session'
p2919
g56
(g57
g58
NtRp2920
(dp2921
g61
(dp2922
sg63
(lp2923
g56
(g65
g58
NtRp2924
(dp2925
g61
(dp2926
g69
I5
ssg70
Nsg63
(lp2927
g56
(g72
g58
NtRp2928
(dp2929
g61
(dp2930
sg70
g2924
sg63
(lp2931
g56
(g77
g58
NtRp2932
(dp2933
g61
(dp2934
g81
g82
ssg70
g2928
sg63
(lp2935
S'flash'
p2936
asbag56
(g77
g58
NtRp2937
(dp2938
g61
(dp2939
g88
g89
ssg70
g2928
sg63
(lp2940
S':'
asbag56
(g77
g58
NtRp2941
(dp2942
g61
(dp2943
sg70
g2928
sg63
(lp2944
g56
(g57
g58
NtRp2945
(dp2946
g61
(dp2947
g69
I5
ssg70
g2941
sg63
(lp2948
S''
asbasbasbasbasbsS'etype'
p2949
S"<type 'exceptions.TypeError'>"
p2950
sS'date'
p2951
S'Thu Sep 29 08:50:20 2011'
p2952
sS'response'
p2953
g56
(g57
g58
NtRp2954
(dp2955
g61
(dp2956
sg63
(lp2957
g56
(g65
g58
NtRp2958
(dp2959
g61
(dp2960
g69
I5
ssg70
Nsg63
(lp2961
g56
(g72
g58
NtRp2962
(dp2963
g61
(dp2964
sg70
g2958
sg63
(lp2965
g56
(g77
g58
NtRp2966
(dp2967
g61
(dp2968
g81
g82
ssg70
g2962
sg63
(lp2969
g167
asbag56
(g77
g58
NtRp2970
(dp2971
g61
(dp2972
g88
g89
ssg70
g2962
sg63
(lp2973
S':'
asbag56
(g77
g58
NtRp2974
(dp2975
g61
(dp2976
sg70
g2962
sg63
(lp2977
g56
(g57
g58
NtRp2978
(dp2979
g61
(dp2980
g69
I5
ssg70
g2974
sg63
(lp2981
S'<cStringIO.StringO object at 0x1169b4030>'
p2982
asbasbasbag56
(g72
g58
NtRp2983
(dp2984
g61
(dp2985
sg70
g2958
sg63
(lp2986
g56
(g77
g58
NtRp2987
(dp2988
g61
(dp2989
g81
g82
ssg70
g2983
sg63
(lp2990
g233
asbag56
(g77
g58
NtRp2991
(dp2992
g61
(dp2993
g88
g89
ssg70
g2983
sg63
(lp2994
S':'
asbag56
(g77
g58
NtRp2995
(dp2996
g61
(dp2997
sg70
g2983
sg63
(lp2998
g56
(g57
g58
NtRp2999
(dp3000
g61
(dp3001
g69
I5
ssg70
g2995
sg63
(lp3002
g56
(g65
g58
NtRp3003
(dp3004
g61
(dp3005
g69
I4
ssg70
Nsg63
(lp3006
g56
(g72
g58
NtRp3007
(dp3008
g61
(dp3009
sg70
g3003
sg63
(lp3010
g56
(g77
g58
NtRp3011
(dp3012
g61
(dp3013
g81
g82
ssg70
g3007
sg63
(lp3014
S'session_id_welcome'
p3015
asbag56
(g77
g58
NtRp3016
(dp3017
g61
(dp3018
g88
g89
ssg70
g3007
sg63
(lp3019
S':'
asbag56
(g77
g58
NtRp3020
(dp3021
g61
(dp3022
sg70
g3007
sg63
(lp3023
g56
(g57
g58
NtRp3024
(dp3025
g61
(dp3026
g69
I4
ssg70
g3020
sg63
(lp3027
g56
(g65
g58
NtRp3028
(dp3029
g61
(dp3030
g69
I3
ssg70
Nsg63
(lp3031
g56
(g72
g58
NtRp3032
(dp3033
g61
(dp3034
sg70
g3028
sg63
(lp3035
g56
(g77
g58
NtRp3036
(dp3037
g61
(dp3038
g81
g82
ssg70
g3032
sg63
(lp3039
g283
asbag56
(g77
g58
NtRp3040
(dp3041
g61
(dp3042
g88
g89
ssg70
g3032
sg63
(lp3043
S':'
asbag56
(g77
g58
NtRp3044
(dp3045
g61
(dp3046
sg70
g3032
sg63
(lp3047
g56
(g57
g58
NtRp3048
(dp3049
g61
(dp3050
g69
I3
ssg70
g3044
sg63
(lp3051
S''
asbasbasbag56
(g72
g58
NtRp3052
(dp3053
g61
(dp3054
sg70
g3028
sg63
(lp3055
g56
(g77
g58
NtRp3056
(dp3057
g61
(dp3058
g81
g82
ssg70
g3052
sg63
(lp3059
g304
asbag56
(g77
g58
NtRp3060
(dp3061
g61
(dp3062
g88
g89
ssg70
g3052
sg63
(lp3063
S':'
asbag56
(g77
g58
NtRp3064
(dp3065
g61
(dp3066
sg70
g3052
sg63
(lp3067
g56
(g57
g58
NtRp3068
(dp3069
g61
(dp3070
g69
I3
ssg70
g3064
sg63
(lp3071
S''
asbasbasbag56
(g72
g58
NtRp3072
(dp3073
g61
(dp3074
sg70
g3028
sg63
(lp3075
g56
(g77
g58
NtRp3076
(dp3077
g61
(dp3078
g81
g82
ssg70
g3072
sg63
(lp3079
g325
asbag56
(g77
g58
NtRp3080
(dp3081
g61
(dp3082
g88
g89
ssg70
g3072
sg63
(lp3083
S':'
asbag56
(g77
g58
NtRp3084
(dp3085
g61
(dp3086
sg70
g3072
sg63
(lp3087
g56
(g57
g58
NtRp3088
(dp3089
g61
(dp3090
g69
I3
ssg70
g3084
sg63
(lp3091
S''
asbasbasbag56
(g72
g58
NtRp3092
(dp3093
g61
(dp3094
sg70
g3028
sg63
(lp3095
g56
(g77
g58
NtRp3096
(dp3097
g61
(dp3098
g81
g82
ssg70
g3092
sg63
(lp3099
g346
asbag56
(g77
g58
NtRp3100
(dp3101
g61
(dp3102
g88
g89
ssg70
g3092
sg63
(lp3103
S':'
asbag56
(g77
g58
NtRp3104
(dp3105
g61
(dp3106
sg70
g3092
sg63
(lp3107
g56
(g57
g58
NtRp3108
(dp3109
g61
(dp3110
g69
I3
ssg70
g3104
sg63
(lp3111
S''
asbasbasbag56
(g72
g58
NtRp3112
(dp3113
g61
(dp3114
sg70
g3028
sg63
(lp3115
g56
(g77
g58
NtRp3116
(dp3117
g61
(dp3118
g81
g82
ssg70
g3112
sg63
(lp3119
g367
asbag56
(g77
g58
NtRp3120
(dp3121
g61
(dp3122
g88
g89
ssg70
g3112
sg63
(lp3123
S':'
asbag56
(g77
g58
NtRp3124
(dp3125
g61
(dp3126
sg70
g3112
sg63
(lp3127
g56
(g57
g58
NtRp3128
(dp3129
g61
(dp3130
g69
I3
ssg70
g3124
sg63
(lp3131
S''
asbasbasbag56
(g72
g58
NtRp3132
(dp3133
g61
(dp3134
sg70
g3028
sg63
(lp3135
g56
(g77
g58
NtRp3136
(dp3137
g61
(dp3138
g81
g82
ssg70
g3132
sg63
(lp3139
g388
asbag56
(g77
g58
NtRp3140
(dp3141
g61
(dp3142
g88
g89
ssg70
g3132
sg63
(lp3143
S':'
asbag56
(g77
g58
NtRp3144
(dp3145
g61
(dp3146
sg70
g3132
sg63
(lp3147
g56
(g57
g58
NtRp3148
(dp3149
g61
(dp3150
g69
I3
ssg70
g3144
sg63
(lp3151
S'/'
asbasbasbag56
(g72
g58
NtRp3152
(dp3153
g61
(dp3154
sg70
g3028
sg63
(lp3155
g56
(g77
g58
NtRp3156
(dp3157
g61
(dp3158
g81
g82
ssg70
g3152
sg63
(lp3159
g409
asbag56
(g77
g58
NtRp3160
(dp3161
g61
(dp3162
g88
g89
ssg70
g3152
sg63
(lp3163
S':'
asbag56
(g77
g58
NtRp3164
(dp3165
g61
(dp3166
sg70
g3152
sg63
(lp3167
g56
(g57
g58
NtRp3168
(dp3169
g61
(dp3170
g69
I3
ssg70
g3164
sg63
(lp3171
S''
asbasbasbag56
(g72
g58
NtRp3172
(dp3173
g61
(dp3174
sg70
g3028
sg63
(lp3175
g56
(g77
g58
NtRp3176
(dp3177
g61
(dp3178
g81
g82
ssg70
g3172
sg63
(lp3179
g430
asbag56
(g77
g58
NtRp3180
(dp3181
g61
(dp3182
g88
g89
ssg70
g3172
sg63
(lp3183
S':'
asbag56
(g77
g58
NtRp3184
(dp3185
g61
(dp3186
sg70
g3172
sg63
(lp3187
g56
(g57
g58
NtRp3188
(dp3189
g61
(dp3190
g69
I3
ssg70
g3184
sg63
(lp3191
S''
asbasbasbasbasbasbasbasbasbasbasbag56
(g72
g58
NtRp3192
(dp3193
g61
(dp3194
sg70
g2958
sg63
(lp3195
g56
(g77
g58
NtRp3196
(dp3197
g61
(dp3198
g81
g82
ssg70
g3192
sg63
(lp3199
S'files'
p3200
asbag56
(g77
g58
NtRp3201
(dp3202
g61
(dp3203
g88
g89
ssg70
g3192
sg63
(lp3204
S':'
asbag56
(g77
g58
NtRp3205
(dp3206
g61
(dp3207
sg70
g3192
sg63
(lp3208
g56
(g57
g58
NtRp3209
(dp3210
g61
(dp3211
g69
I5
ssg70
g3205
sg63
(lp3212
g56
(g65
g58
NtRp3213
(dp3214
g61
(dp3215
g69
I4
ssg70
Nsg63
(lp3216
sbasbasbasbag56
(g72
g58
NtRp3217
(dp3218
g61
(dp3219
sg70
g2958
sg63
(lp3220
g56
(g77
g58
NtRp3221
(dp3222
g61
(dp3223
g81
g82
ssg70
g3217
sg63
(lp3224
S'flash'
p3225
asbag56
(g77
g58
NtRp3226
(dp3227
g61
(dp3228
g88
g89
ssg70
g3217
sg63
(lp3229
S':'
asbag56
(g77
g58
NtRp3230
(dp3231
g61
(dp3232
sg70
g3217
sg63
(lp3233
g56
(g57
g58
NtRp3234
(dp3235
g61
(dp3236
g69
I5
ssg70
g3230
sg63
(lp3237
S''
asbasbasbag56
(g72
g58
NtRp3238
(dp3239
g61
(dp3240
sg70
g2958
sg63
(lp3241
g56
(g77
g58
NtRp3242
(dp3243
g61
(dp3244
g81
g82
ssg70
g3238
sg63
(lp3245
S'generic_patterns'
p3246
asbag56
(g77
g58
NtRp3247
(dp3248
g61
(dp3249
g88
g89
ssg70
g3238
sg63
(lp3250
S':'
asbag56
(g77
g58
NtRp3251
(dp3252
g61
(dp3253
sg70
g3238
sg63
(lp3254
g56
(g57
g58
NtRp3255
(dp3256
g61
(dp3257
g69
I5
ssg70
g3251
sg63
(lp3258
g56
(g65
g58
NtRp3259
(dp3260
g61
(dp3261
g69
I4
ssg70
Nsg63
(lp3262
g56
(g72
g58
NtRp3263
(dp3264
g61
(dp3265
sg70
g3259
sg63
(lp3266
g56
(g77
g58
NtRp3267
(dp3268
g61
(dp3269
sg70
g3263
sg63
(lp3270
g56
(g57
g58
NtRp3271
(dp3272
g61
(dp3273
g69
I4
ssg70
g3267
sg63
(lp3274
S'*'
asbasbasbasbasbasbasbag56
(g72
g58
NtRp3275
(dp3276
g61
(dp3277
sg70
g2958
sg63
(lp3278
g56
(g77
g58
NtRp3279
(dp3280
g61
(dp3281
g81
g82
ssg70
g3275
sg63
(lp3282
S'headers'
p3283
asbag56
(g77
g58
NtRp3284
(dp3285
g61
(dp3286
g88
g89
ssg70
g3275
sg63
(lp3287
S':'
asbag56
(g77
g58
NtRp3288
(dp3289
g61
(dp3290
sg70
g3275
sg63
(lp3291
g56
(g57
g58
NtRp3292
(dp3293
g61
(dp3294
g69
I5
ssg70
g3288
sg63
(lp3295
g56
(g65
g58
NtRp3296
(dp3297
g61
(dp3298
g69
I4
ssg70
Nsg63
(lp3299
g56
(g72
g58
NtRp3300
(dp3301
g61
(dp3302
sg70
g3296
sg63
(lp3303
g56
(g77
g58
NtRp3304
(dp3305
g61
(dp3306
g81
g82
ssg70
g3300
sg63
(lp3307
S'Cache-Control'
p3308
asbag56
(g77
g58
NtRp3309
(dp3310
g61
(dp3311
g88
g89
ssg70
g3300
sg63
(lp3312
S':'
asbag56
(g77
g58
NtRp3313
(dp3314
g61
(dp3315
sg70
g3300
sg63
(lp3316
g56
(g57
g58
NtRp3317
(dp3318
g61
(dp3319
g69
I4
ssg70
g3313
sg63
(lp3320
S'no-store, no-cache, must-revalidate, post-check=0, pre-check=0'
p3321
asbasbasbag56
(g72
g58
NtRp3322
(dp3323
g61
(dp3324
sg70
g3296
sg63
(lp3325
g56
(g77
g58
NtRp3326
(dp3327
g61
(dp3328
g81
g82
ssg70
g3322
sg63
(lp3329
S'Content-Type'
p3330
asbag56
(g77
g58
NtRp3331
(dp3332
g61
(dp3333
g88
g89
ssg70
g3322
sg63
(lp3334
S':'
asbag56
(g77
g58
NtRp3335
(dp3336
g61
(dp3337
sg70
g3322
sg63
(lp3338
g56
(g57
g58
NtRp3339
(dp3340
g61
(dp3341
g69
I4
ssg70
g3335
sg63
(lp3342
S'text/html; charset=utf-8'
p3343
asbasbasbag56
(g72
g58
NtRp3344
(dp3345
g61
(dp3346
sg70
g3296
sg63
(lp3347
g56
(g77
g58
NtRp3348
(dp3349
g61
(dp3350
g81
g82
ssg70
g3344
sg63
(lp3351
S'Expires'
p3352
asbag56
(g77
g58
NtRp3353
(dp3354
g61
(dp3355
g88
g89
ssg70
g3344
sg63
(lp3356
S':'
asbag56
(g77
g58
NtRp3357
(dp3358
g61
(dp3359
sg70
g3344
sg63
(lp3360
g56
(g57
g58
NtRp3361
(dp3362
g61
(dp3363
g69
I4
ssg70
g3357
sg63
(lp3364
S'Thu, 29 Sep 2011 15:50:20 GMT'
p3365
asbasbasbag56
(g72
g58
NtRp3366
(dp3367
g61
(dp3368
sg70
g3296
sg63
(lp3369
g56
(g77
g58
NtRp3370
(dp3371
g61
(dp3372
g81
g82
ssg70
g3366
sg63
(lp3373
S'Pragma'
p3374
asbag56
(g77
g58
NtRp3375
(dp3376
g61
(dp3377
g88
g89
ssg70
g3366
sg63
(lp3378
S':'
asbag56
(g77
g58
NtRp3379
(dp3380
g61
(dp3381
sg70
g3366
sg63
(lp3382
g56
(g57
g58
NtRp3383
(dp3384
g61
(dp3385
g69
I4
ssg70
g3379
sg63
(lp3386
S'no-cache'
p3387
asbasbasbag56
(g72
g58
NtRp3388
(dp3389
g61
(dp3390
sg70
g3296
sg63
(lp3391
g56
(g77
g58
NtRp3392
(dp3393
g61
(dp3394
g81
g82
ssg70
g3388
sg63
(lp3395
S'X-Powered-By'
p3396
asbag56
(g77
g58
NtRp3397
(dp3398
g61
(dp3399
g88
g89
ssg70
g3388
sg63
(lp3400
S':'
asbag56
(g77
g58
NtRp3401
(dp3402
g61
(dp3403
sg70
g3388
sg63
(lp3404
g56
(g57
g58
NtRp3405
(dp3406
g61
(dp3407
g69
I4
ssg70
g3401
sg63
(lp3408
S'web2py'
p3409
asbasbasbasbasbasbasbag56
(g72
g58
NtRp3410
(dp3411
g61
(dp3412
sg70
g2958
sg63
(lp3413
g56
(g77
g58
NtRp3414
(dp3415
g61
(dp3416
g81
g82
ssg70
g3410
sg63
(lp3417
S'menu'
p3418
asbag56
(g77
g58
NtRp3419
(dp3420
g61
(dp3421
g88
g89
ssg70
g3410
sg63
(lp3422
S':'
asbag56
(g77
g58
NtRp3423
(dp3424
g61
(dp3425
sg70
g3410
sg63
(lp3426
g56
(g57
g58
NtRp3427
(dp3428
g61
(dp3429
g69
I5
ssg70
g3423
sg63
(lp3430
g56
(g65
g58
NtRp3431
(dp3432
g61
(dp3433
g69
I4
ssg70
Nsg63
(lp3434
g56
(g72
g58
NtRp3435
(dp3436
g61
(dp3437
sg70
g3431
sg63
(lp3438
g56
(g77
g58
NtRp3439
(dp3440
g61
(dp3441
sg70
g3435
sg63
(lp3442
g56
(g57
g58
NtRp3443
(dp3444
g61
(dp3445
g69
I4
ssg70
g3439
sg63
(lp3446
g56
(g65
g58
NtRp3447
(dp3448
g61
(dp3449
g69
I3
ssg70
Nsg63
(lp3450
g56
(g72
g58
NtRp3451
(dp3452
g61
(dp3453
sg70
g3447
sg63
(lp3454
g56
(g77
g58
NtRp3455
(dp3456
g61
(dp3457
sg70
g3451
sg63
(lp3458
g56
(g57
g58
NtRp3459
(dp3460
g61
(dp3461
g69
I3
ssg70
g3455
sg63
(lp3462
cgluon.languages
lazyT_unpickle
p3463
(S's\x04\x00\x00\x00Home'
tRp3464
asbasbasbag56
(g72
g58
NtRp3465
(dp3466
g61
(dp3467
sg70
g3447
sg63
(lp3468
g56
(g77
g58
NtRp3469
(dp3470
g61
(dp3471
sg70
g3465
sg63
(lp3472
g56
(g57
g58
NtRp3473
(dp3474
g61
(dp3475
g69
I3
ssg70
g3469
sg63
(lp3476
g99
asbasbasbag56
(g72
g58
NtRp3477
(dp3478
g61
(dp3479
sg70
g3447
sg63
(lp3480
g56
(g77
g58
NtRp3481
(dp3482
g61
(dp3483
sg70
g3477
sg63
(lp3484
g56
(g57
g58
NtRp3485
(dp3486
g61
(dp3487
g69
I3
ssg70
g3481
sg63
(lp3488
S'/'
asbasbasbag56
(g72
g58
NtRp3489
(dp3490
g61
(dp3491
sg70
g3447
sg63
(lp3492
g56
(g77
g58
NtRp3493
(dp3494
g61
(dp3495
sg70
g3489
sg63
(lp3496
g56
(g57
g58
NtRp3497
(dp3498
g61
(dp3499
g69
I3
ssg70
g3493
sg63
(lp3500
g56
(g65
g58
NtRp3501
(dp3502
g61
(dp3503
g69
I2
ssg70
Nsg63
(lp3504
sbasbasbasbasbasbasbasbag56
(g72
g58
NtRp3505
(dp3506
g61
(dp3507
sg70
g3431
sg63
(lp3508
g56
(g77
g58
NtRp3509
(dp3510
g61
(dp3511
sg70
g3505
sg63
(lp3512
g56
(g57
g58
NtRp3513
(dp3514
g61
(dp3515
g69
I4
ssg70
g3509
sg63
(lp3516
g56
(g65
g58
NtRp3517
(dp3518
g61
(dp3519
g69
I3
ssg70
Nsg63
(lp3520
g56
(g72
g58
NtRp3521
(dp3522
g61
(dp3523
sg70
g3517
sg63
(lp3524
g56
(g77
g58
NtRp3525
(dp3526
g61
(dp3527
sg70
g3521
sg63
(lp3528
g56
(g57
g58
NtRp3529
(dp3530
g61
(dp3531
g69
I3
ssg70
g3525
sg63
(lp3532
g3463
(S's\x08\x00\x00\x00This App'
tRp3533
asbasbasbag56
(g72
g58
NtRp3534
(dp3535
g61
(dp3536
sg70
g3517
sg63
(lp3537
g56
(g77
g58
NtRp3538
(dp3539
g61
(dp3540
sg70
g3534
sg63
(lp3541
g56
(g57
g58
NtRp3542
(dp3543
g61
(dp3544
g69
I3
ssg70
g3538
sg63
(lp3545
g99
asbasbasbag56
(g72
g58
NtRp3546
(dp3547
g61
(dp3548
sg70
g3517
sg63
(lp3549
g56
(g77
g58
NtRp3550
(dp3551
g61
(dp3552
sg70
g3546
sg63
(lp3553
g56
(g57
g58
NtRp3554
(dp3555
g61
(dp3556
g69
I3
ssg70
g3550
sg63
(lp3557
S'/admin/design/welcome'
p3558
asbasbasbag56
(g72
g58
NtRp3559
(dp3560
g61
(dp3561
sg70
g3517
sg63
(lp3562
g56
(g77
g58
NtRp3563
(dp3564
g61
(dp3565
sg70
g3559
sg63
(lp3566
g56
(g57
g58
NtRp3567
(dp3568
g61
(dp3569
g69
I3
ssg70
g3563
sg63
(lp3570
g56
(g65
g58
NtRp3571
(dp3572
g61
(dp3573
g69
I2
ssg70
Nsg63
(lp3574
g56
(g72
g58
NtRp3575
(dp3576
g61
(dp3577
sg70
g3571
sg63
(lp3578
g56
(g77
g58
NtRp3579
(dp3580
g61
(dp3581
sg70
g3575
sg63
(lp3582
g56
(g57
g58
NtRp3583
(dp3584
g61
(dp3585
g69
I2
ssg70
g3579
sg63
(lp3586
g56
(g65
g58
NtRp3587
(dp3588
g61
(dp3589
g69
I1
ssg70
Nsg63
(lp3590
g56
(g72
g58
NtRp3591
(dp3592
g61
(dp3593
sg70
g3587
sg63
(lp3594
g56
(g77
g58
NtRp3595
(dp3596
g61
(dp3597
sg70
g3591
sg63
(lp3598
g56
(g57
g58
NtRp3599
(dp3600
g61
(dp3601
g69
I1
ssg70
g3595
sg63
(lp3602
g3463
(S's\n\x00\x00\x00Controller'
tRp3603
asbasbasbag56
(g72
g58
NtRp3604
(dp3605
g61
(dp3606
sg70
g3587
sg63
(lp3607
g56
(g77
g58
NtRp3608
(dp3609
g61
(dp3610
sg70
g3604
sg63
(lp3611
g56
(g57
g58
NtRp3612
(dp3613
g61
(dp3614
g69
I1
ssg70
g3608
sg63
(lp3615
I00
asbasbasbag56
(g72
g58
NtRp3616
(dp3617
g61
(dp3618
sg70
g3587
sg63
(lp3619
g56
(g77
g58
NtRp3620
(dp3621
g61
(dp3622
sg70
g3616
sg63
(lp3623
g56
(g57
g58
NtRp3624
(dp3625
g61
(dp3626
g69
I1
ssg70
g3620
sg63
(lp3627
S'/admin/edit/welcome/controllers/default.py'
p3628
asbasbasbasbasbasbasbag56
(g72
g58
NtRp3629
(dp3630
g61
(dp3631
sg70
g3571
sg63
(lp3632
g56
(g77
g58
NtRp3633
(dp3634
g61
(dp3635
sg70
g3629
sg63
(lp3636
g56
(g57
g58
NtRp3637
(dp3638
g61
(dp3639
g69
I2
ssg70
g3633
sg63
(lp3640
g56
(g65
g58
NtRp3641
(dp3642
g61
(dp3643
g69
I1
ssg70
Nsg63
(lp3644
g56
(g72
g58
NtRp3645
(dp3646
g61
(dp3647
sg70
g3641
sg63
(lp3648
g56
(g77
g58
NtRp3649
(dp3650
g61
(dp3651
sg70
g3645
sg63
(lp3652
g56
(g57
g58
NtRp3653
(dp3654
g61
(dp3655
g69
I1
ssg70
g3649
sg63
(lp3656
g3463
(S's\x04\x00\x00\x00View'
tRp3657
asbasbasbag56
(g72
g58
NtRp3658
(dp3659
g61
(dp3660
sg70
g3641
sg63
(lp3661
g56
(g77
g58
NtRp3662
(dp3663
g61
(dp3664
sg70
g3658
sg63
(lp3665
g56
(g57
g58
NtRp3666
(dp3667
g61
(dp3668
g69
I1
ssg70
g3662
sg63
(lp3669
I00
asbasbasbag56
(g72
g58
NtRp3670
(dp3671
g61
(dp3672
sg70
g3641
sg63
(lp3673
g56
(g77
g58
NtRp3674
(dp3675
g61
(dp3676
sg70
g3670
sg63
(lp3677
g56
(g57
g58
NtRp3678
(dp3679
g61
(dp3680
g69
I1
ssg70
g3674
sg63
(lp3681
S'/admin/edit/welcome/views/default/user.html'
p3682
asbasbasbasbasbasbasbag56
(g72
g58
NtRp3683
(dp3684
g61
(dp3685
sg70
g3571
sg63
(lp3686
g56
(g77
g58
NtRp3687
(dp3688
g61
(dp3689
sg70
g3683
sg63
(lp3690
g56
(g57
g58
NtRp3691
(dp3692
g61
(dp3693
g69
I2
ssg70
g3687
sg63
(lp3694
g56
(g65
g58
NtRp3695
(dp3696
g61
(dp3697
g69
I1
ssg70
Nsg63
(lp3698
g56
(g72
g58
NtRp3699
(dp3700
g61
(dp3701
sg70
g3695
sg63
(lp3702
g56
(g77
g58
NtRp3703
(dp3704
g61
(dp3705
sg70
g3699
sg63
(lp3706
g56
(g57
g58
NtRp3707
(dp3708
g61
(dp3709
g69
I1
ssg70
g3703
sg63
(lp3710
g3463
(S's\x06\x00\x00\x00Layout'
tRp3711
asbasbasbag56
(g72
g58
NtRp3712
(dp3713
g61
(dp3714
sg70
g3695
sg63
(lp3715
g56
(g77
g58
NtRp3716
(dp3717
g61
(dp3718
sg70
g3712
sg63
(lp3719
g56
(g57
g58
NtRp3720
(dp3721
g61
(dp3722
g69
I1
ssg70
g3716
sg63
(lp3723
I00
asbasbasbag56
(g72
g58
NtRp3724
(dp3725
g61
(dp3726
sg70
g3695
sg63
(lp3727
g56
(g77
g58
NtRp3728
(dp3729
g61
(dp3730
sg70
g3724
sg63
(lp3731
g56
(g57
g58
NtRp3732
(dp3733
g61
(dp3734
g69
I1
ssg70
g3728
sg63
(lp3735
S'/admin/edit/welcome/views/layout.html'
p3736
asbasbasbasbasbasbasbag56
(g72
g58
NtRp3737
(dp3738
g61
(dp3739
sg70
g3571
sg63
(lp3740
g56
(g77
g58
NtRp3741
(dp3742
g61
(dp3743
sg70
g3737
sg63
(lp3744
g56
(g57
g58
NtRp3745
(dp3746
g61
(dp3747
g69
I2
ssg70
g3741
sg63
(lp3748
g56
(g65
g58
NtRp3749
(dp3750
g61
(dp3751
g69
I1
ssg70
Nsg63
(lp3752
g56
(g72
g58
NtRp3753
(dp3754
g61
(dp3755
sg70
g3749
sg63
(lp3756
g56
(g77
g58
NtRp3757
(dp3758
g61
(dp3759
sg70
g3753
sg63
(lp3760
g56
(g57
g58
NtRp3761
(dp3762
g61
(dp3763
g69
I1
ssg70
g3757
sg63
(lp3764
g3463
(S's\n\x00\x00\x00Stylesheet'
tRp3765
asbasbasbag56
(g72
g58
NtRp3766
(dp3767
g61
(dp3768
sg70
g3749
sg63
(lp3769
g56
(g77
g58
NtRp3770
(dp3771
g61
(dp3772
sg70
g3766
sg63
(lp3773
g56
(g57
g58
NtRp3774
(dp3775
g61
(dp3776
g69
I1
ssg70
g3770
sg63
(lp3777
I00
asbasbasbag56
(g72
g58
NtRp3778
(dp3779
g61
(dp3780
sg70
g3749
sg63
(lp3781
g56
(g77
g58
NtRp3782
(dp3783
g61
(dp3784
sg70
g3778
sg63
(lp3785
g56
(g57
g58
NtRp3786
(dp3787
g61
(dp3788
g69
I1
ssg70
g3782
sg63
(lp3789
S'/admin/edit/welcome/static/base.css'
p3790
asbasbasbasbasbasbasbag56
(g72
g58
NtRp3791
(dp3792
g61
(dp3793
sg70
g3571
sg63
(lp3794
g56
(g77
g58
NtRp3795
(dp3796
g61
(dp3797
sg70
g3791
sg63
(lp3798
g56
(g57
g58
NtRp3799
(dp3800
g61
(dp3801
g69
I2
ssg70
g3795
sg63
(lp3802
g56
(g65
g58
NtRp3803
(dp3804
g61
(dp3805
g69
I1
ssg70
Nsg63
(lp3806
g56
(g72
g58
NtRp3807
(dp3808
g61
(dp3809
sg70
g3803
sg63
(lp3810
g56
(g77
g58
NtRp3811
(dp3812
g61
(dp3813
sg70
g3807
sg63
(lp3814
g56
(g57
g58
NtRp3815
(dp3816
g61
(dp3817
g69
I1
ssg70
g3811
sg63
(lp3818
g3463
(S's\x08\x00\x00\x00DB Model'
tRp3819
asbasbasbag56
(g72
g58
NtRp3820
(dp3821
g61
(dp3822
sg70
g3803
sg63
(lp3823
g56
(g77
g58
NtRp3824
(dp3825
g61
(dp3826
sg70
g3820
sg63
(lp3827
g56
(g57
g58
NtRp3828
(dp3829
g61
(dp3830
g69
I1
ssg70
g3824
sg63
(lp3831
I00
asbasbasbag56
(g72
g58
NtRp3832
(dp3833
g61
(dp3834
sg70
g3803
sg63
(lp3835
g56
(g77
g58
NtRp3836
(dp3837
g61
(dp3838
sg70
g3832
sg63
(lp3839
g56
(g57
g58
NtRp3840
(dp3841
g61
(dp3842
g69
I1
ssg70
g3836
sg63
(lp3843
S'/admin/edit/welcome/models/db.py'
p3844
asbasbasbasbasbasbasbag56
(g72
g58
NtRp3845
(dp3846
g61
(dp3847
sg70
g3571
sg63
(lp3848
g56
(g77
g58
NtRp3849
(dp3850
g61
(dp3851
sg70
g3845
sg63
(lp3852
g56
(g57
g58
NtRp3853
(dp3854
g61
(dp3855
g69
I2
ssg70
g3849
sg63
(lp3856
g56
(g65
g58
NtRp3857
(dp3858
g61
(dp3859
g69
I1
ssg70
Nsg63
(lp3860
g56
(g72
g58
NtRp3861
(dp3862
g61
(dp3863
sg70
g3857
sg63
(lp3864
g56
(g77
g58
NtRp3865
(dp3866
g61
(dp3867
sg70
g3861
sg63
(lp3868
g56
(g57
g58
NtRp3869
(dp3870
g61
(dp3871
g69
I1
ssg70
g3865
sg63
(lp3872
g3463
(S's\n\x00\x00\x00Menu Model'
tRp3873
asbasbasbag56
(g72
g58
NtRp3874
(dp3875
g61
(dp3876
sg70
g3857
sg63
(lp3877
g56
(g77
g58
NtRp3878
(dp3879
g61
(dp3880
sg70
g3874
sg63
(lp3881
g56
(g57
g58
NtRp3882
(dp3883
g61
(dp3884
g69
I1
ssg70
g3878
sg63
(lp3885
I00
asbasbasbag56
(g72
g58
NtRp3886
(dp3887
g61
(dp3888
sg70
g3857
sg63
(lp3889
g56
(g77
g58
NtRp3890
(dp3891
g61
(dp3892
sg70
g3886
sg63
(lp3893
g56
(g57
g58
NtRp3894
(dp3895
g61
(dp3896
g69
I1
ssg70
g3890
sg63
(lp3897
S'/admin/edit/welcome/models/menu.py'
p3898
asbasbasbasbasbasbasbag56
(g72
g58
NtRp3899
(dp3900
g61
(dp3901
sg70
g3571
sg63
(lp3902
g56
(g77
g58
NtRp3903
(dp3904
g61
(dp3905
sg70
g3899
sg63
(lp3906
g56
(g57
g58
NtRp3907
(dp3908
g61
(dp3909
g69
I2
ssg70
g3903
sg63
(lp3910
g56
(g65
g58
NtRp3911
(dp3912
g61
(dp3913
g69
I1
ssg70
Nsg63
(lp3914
g56
(g72
g58
NtRp3915
(dp3916
g61
(dp3917
sg70
g3911
sg63
(lp3918
g56
(g77
g58
NtRp3919
(dp3920
g61
(dp3921
sg70
g3915
sg63
(lp3922
g56
(g57
g58
NtRp3923
(dp3924
g61
(dp3925
g69
I1
ssg70
g3919
sg63
(lp3926
g3463
(S's\x08\x00\x00\x00Database'
tRp3927
asbasbasbag56
(g72
g58
NtRp3928
(dp3929
g61
(dp3930
sg70
g3911
sg63
(lp3931
g56
(g77
g58
NtRp3932
(dp3933
g61
(dp3934
sg70
g3928
sg63
(lp3935
g56
(g57
g58
NtRp3936
(dp3937
g61
(dp3938
g69
I1
ssg70
g3932
sg63
(lp3939
I00
asbasbasbag56
(g72
g58
NtRp3940
(dp3941
g61
(dp3942
sg70
g3911
sg63
(lp3943
g56
(g77
g58
NtRp3944
(dp3945
g61
(dp3946
sg70
g3940
sg63
(lp3947
g56
(g57
g58
NtRp3948
(dp3949
g61
(dp3950
g69
I1
ssg70
g3944
sg63
(lp3951
S'/appadmin'
p3952
asbasbasbasbasbasbasbag56
(g72
g58
NtRp3953
(dp3954
g61
(dp3955
sg70
g3571
sg63
(lp3956
g56
(g77
g58
NtRp3957
(dp3958
g61
(dp3959
sg70
g3953
sg63
(lp3960
g56
(g57
g58
NtRp3961
(dp3962
g61
(dp3963
g69
I2
ssg70
g3957
sg63
(lp3964
g56
(g65
g58
NtRp3965
(dp3966
g61
(dp3967
g69
I1
ssg70
Nsg63
(lp3968
g56
(g72
g58
NtRp3969
(dp3970
g61
(dp3971
sg70
g3965
sg63
(lp3972
g56
(g77
g58
NtRp3973
(dp3974
g61
(dp3975
sg70
g3969
sg63
(lp3976
g56
(g57
g58
NtRp3977
(dp3978
g61
(dp3979
g69
I1
ssg70
g3973
sg63
(lp3980
g3463
(S's\x06\x00\x00\x00Errors'
tRp3981
asbasbasbag56
(g72
g58
NtRp3982
(dp3983
g61
(dp3984
sg70
g3965
sg63
(lp3985
g56
(g77
g58
NtRp3986
(dp3987
g61
(dp3988
sg70
g3982
sg63
(lp3989
g56
(g57
g58
NtRp3990
(dp3991
g61
(dp3992
g69
I1
ssg70
g3986
sg63
(lp3993
I00
asbasbasbag56
(g72
g58
NtRp3994
(dp3995
g61
(dp3996
sg70
g3965
sg63
(lp3997
g56
(g77
g58
NtRp3998
(dp3999
g61
(dp4000
sg70
g3994
sg63
(lp4001
g56
(g57
g58
NtRp4002
(dp4003
g61
(dp4004
g69
I1
ssg70
g3998
sg63
(lp4005
S'/admin/errors/welcome'
p4006
asbasbasbasbasbasbasbag56
(g72
g58
NtRp4007
(dp4008
g61
(dp4009
sg70
g3571
sg63
(lp4010
g56
(g77
g58
NtRp4011
(dp4012
g61
(dp4013
sg70
g4007
sg63
(lp4014
g56
(g57
g58
NtRp4015
(dp4016
g61
(dp4017
g69
I2
ssg70
g4011
sg63
(lp4018
g56
(g65
g58
NtRp4019
(dp4020
g61
(dp4021
g69
I1
ssg70
Nsg63
(lp4022
g56
(g72
g58
NtRp4023
(dp4024
g61
(dp4025
sg70
g4019
sg63
(lp4026
g56
(g77
g58
NtRp4027
(dp4028
g61
(dp4029
sg70
g4023
sg63
(lp4030
g56
(g57
g58
NtRp4031
(dp4032
g61
(dp4033
g69
I1
ssg70
g4027
sg63
(lp4034
g3463
(S's\x05\x00\x00\x00About'
tRp4035
asbasbasbag56
(g72
g58
NtRp4036
(dp4037
g61
(dp4038
sg70
g4019
sg63
(lp4039
g56
(g77
g58
NtRp4040
(dp4041
g61
(dp4042
sg70
g4036
sg63
(lp4043
g56
(g57
g58
NtRp4044
(dp4045
g61
(dp4046
g69
I1
ssg70
g4040
sg63
(lp4047
I00
asbasbasbag56
(g72
g58
NtRp4048
(dp4049
g61
(dp4050
sg70
g4019
sg63
(lp4051
g56
(g77
g58
NtRp4052
(dp4053
g61
(dp4054
sg70
g4048
sg63
(lp4055
g56
(g57
g58
NtRp4056
(dp4057
g61
(dp4058
g69
I1
ssg70
g4052
sg63
(lp4059
S'/admin/about/welcome'
p4060
asbasbasbasbasbasbasbasbasbasbasbasbasbasbasbag56
(g72
g58
NtRp4061
(dp4062
g61
(dp4063
sg70
g3431
sg63
(lp4064
g56
(g77
g58
NtRp4065
(dp4066
g61
(dp4067
sg70
g4061
sg63
(lp4068
g56
(g57
g58
NtRp4069
(dp4070
g61
(dp4071
g69
I4
ssg70
g4065
sg63
(lp4072
g56
(g65
g58
NtRp4073
(dp4074
g61
(dp4075
g69
I3
ssg70
Nsg63
(lp4076
g56
(g72
g58
NtRp4077
(dp4078
g61
(dp4079
sg70
g4073
sg63
(lp4080
g56
(g77
g58
NtRp4081
(dp4082
g61
(dp4083
sg70
g4077
sg63
(lp4084
g56
(g57
g58
NtRp4085
(dp4086
g61
(dp4087
g69
I3
ssg70
g4081
sg63
(lp4088
g3463
(S's\t\x00\x00\x00Resources'
tRp4089
asbasbasbag56
(g72
g58
NtRp4090
(dp4091
g61
(dp4092
sg70
g4073
sg63
(lp4093
g56
(g77
g58
NtRp4094
(dp4095
g61
(dp4096
sg70
g4090
sg63
(lp4097
g56
(g57
g58
NtRp4098
(dp4099
g61
(dp4100
g69
I3
ssg70
g4094
sg63
(lp4101
g99
asbasbasbag56
(g72
g58
NtRp4102
(dp4103
g61
(dp4104
sg70
g4073
sg63
(lp4105
g56
(g77
g58
NtRp4106
(dp4107
g61
(dp4108
sg70
g4102
sg63
(lp4109
g56
(g57
g58
NtRp4110
(dp4111
g61
(dp4112
g69
I3
ssg70
g4106
sg63
(lp4113
S'None'
p4114
asbasbasbag56
(g72
g58
NtRp4115
(dp4116
g61
(dp4117
sg70
g4073
sg63
(lp4118
g56
(g77
g58
NtRp4119
(dp4120
g61
(dp4121
sg70
g4115
sg63
(lp4122
g56
(g57
g58
NtRp4123
(dp4124
g61
(dp4125
g69
I3
ssg70
g4119
sg63
(lp4126
g56
(g65
g58
NtRp4127
(dp4128
g61
(dp4129
g69
I2
ssg70
Nsg63
(lp4130
g56
(g72
g58
NtRp4131
(dp4132
g61
(dp4133
sg70
g4127
sg63
(lp4134
g56
(g77
g58
NtRp4135
(dp4136
g61
(dp4137
sg70
g4131
sg63
(lp4138
g56
(g57
g58
NtRp4139
(dp4140
g61
(dp4141
g69
I2
ssg70
g4135
sg63
(lp4142
g56
(g65
g58
NtRp4143
(dp4144
g61
(dp4145
g69
I1
ssg70
Nsg63
(lp4146
g56
(g72
g58
NtRp4147
(dp4148
g61
(dp4149
sg70
g4143
sg63
(lp4150
g56
(g77
g58
NtRp4151
(dp4152
g61
(dp4153
sg70
g4147
sg63
(lp4154
g56
(g57
g58
NtRp4155
(dp4156
g61
(dp4157
g69
I1
ssg70
g4151
sg63
(lp4158
g3463
(S's\r\x00\x00\x00Documentation'
tRp4159
asbasbasbag56
(g72
g58
NtRp4160
(dp4161
g61
(dp4162
sg70
g4143
sg63
(lp4163
g56
(g77
g58
NtRp4164
(dp4165
g61
(dp4166
sg70
g4160
sg63
(lp4167
g56
(g57
g58
NtRp4168
(dp4169
g61
(dp4170
g69
I1
ssg70
g4164
sg63
(lp4171
I00
asbasbasbag56
(g72
g58
NtRp4172
(dp4173
g61
(dp4174
sg70
g4143
sg63
(lp4175
g56
(g77
g58
NtRp4176
(dp4177
g61
(dp4178
sg70
g4172
sg63
(lp4179
g56
(g57
g58
NtRp4180
(dp4181
g61
(dp4182
g69
I1
ssg70
g4176
sg63
(lp4183
S'http://www.web2py.com/book'
p4184
asbasbasbag56
(g72
g58
NtRp4185
(dp4186
g61
(dp4187
sg70
g4143
sg63
(lp4188
g56
(g77
g58
NtRp4189
(dp4190
g61
(dp4191
sg70
g4185
sg63
(lp4192
g56
(g57
g58
NtRp4193
(dp4194
g61
(dp4195
g69
I1
ssg70
g4189
sg63
(lp4196
(lp4197
(g3463
(S's\x07\x00\x00\x00Preface'
tRp4198
I00
S'http://www.web2py.com/book/default/chapter/00'
p4199
tp4200
a(g3463
(S's\x0c\x00\x00\x00Introduction'
tRp4201
I00
S'http://www.web2py.com/book/default/chapter/01'
p4202
tp4203
a(g3463
(S's\x06\x00\x00\x00Python'
tRp4204
I00
S'http://www.web2py.com/book/default/chapter/02'
p4205
tp4206
a(g3463
(S's\x08\x00\x00\x00Overview'
tRp4207
I00
S'http://www.web2py.com/book/default/chapter/03'
p4208
tp4209
a(g3463
(S's\x08\x00\x00\x00The Core'
tRp4210
I00
S'http://www.web2py.com/book/default/chapter/04'
p4211
tp4212
a(g3463
(S's\t\x00\x00\x00The Views'
tRp4213
I00
S'http://www.web2py.com/book/default/chapter/05'
p4214
tp4215
a(g3463
(S's\x08\x00\x00\x00Database'
tRp4216
I00
S'http://www.web2py.com/book/default/chapter/06'
p4217
tp4218
a(g3463
(S's\x14\x00\x00\x00Forms and Validators'
tRp4219
I00
S'http://www.web2py.com/book/default/chapter/07'
p4220
tp4221
a(g3463
(S's\x0e\x00\x00\x00Access Control'
tRp4222
I00
S'http://www.web2py.com/book/default/chapter/08'
p4223
tp4224
a(g3463
(S's\x08\x00\x00\x00Services'
tRp4225
I00
S'http://www.web2py.com/book/default/chapter/09'
p4226
tp4227
a(g3463
(S's\x0c\x00\x00\x00Ajax Recipes'
tRp4228
I00
S'http://www.web2py.com/book/default/chapter/10'
p4229
tp4230
a(g3463
(S's\x12\x00\x00\x00Deployment Recipes'
tRp4231
I00
S'http://www.web2py.com/book/default/chapter/11'
p4232
tp4233
a(g3463
(S's\r\x00\x00\x00Other Recipes'
tRp4234
I00
S'http://www.web2py.com/book/default/chapter/12'
p4235
tp4236
a(g3463
(S's\r\x00\x00\x00Buy this book'
tRp4237
I00
S'http://stores.lulu.com/web2py'
p4238
tp4239
aasbasbasbasbasbasbasbag56
(g72
g58
NtRp4240
(dp4241
g61
(dp4242
sg70
g4127
sg63
(lp4243
g56
(g77
g58
NtRp4244
(dp4245
g61
(dp4246
sg70
g4240
sg63
(lp4247
g56
(g57
g58
NtRp4248
(dp4249
g61
(dp4250
g69
I2
ssg70
g4244
sg63
(lp4251
g56
(g65
g58
NtRp4252
(dp4253
g61
(dp4254
g69
I1
ssg70
Nsg63
(lp4255
g56
(g72
g58
NtRp4256
(dp4257
g61
(dp4258
sg70
g4252
sg63
(lp4259
g56
(g77
g58
NtRp4260
(dp4261
g61
(dp4262
sg70
g4256
sg63
(lp4263
g56
(g57
g58
NtRp4264
(dp4265
g61
(dp4266
g69
I1
ssg70
g4260
sg63
(lp4267
g3463
(S's\t\x00\x00\x00Community'
tRp4268
asbasbasbag56
(g72
g58
NtRp4269
(dp4270
g61
(dp4271
sg70
g4252
sg63
(lp4272
g56
(g77
g58
NtRp4273
(dp4274
g61
(dp4275
sg70
g4269
sg63
(lp4276
g56
(g57
g58
NtRp4277
(dp4278
g61
(dp4279
g69
I1
ssg70
g4273
sg63
(lp4280
I00
asbasbasbag56
(g72
g58
NtRp4281
(dp4282
g61
(dp4283
sg70
g4252
sg63
(lp4284
g56
(g77
g58
NtRp4285
(dp4286
g61
(dp4287
sg70
g4281
sg63
(lp4288
g56
(g57
g58
NtRp4289
(dp4290
g61
(dp4291
g69
I1
ssg70
g4285
sg63
(lp4292
Nasbasbasbag56
(g72
g58
NtRp4293
(dp4294
g61
(dp4295
sg70
g4252
sg63
(lp4296
g56
(g77
g58
NtRp4297
(dp4298
g61
(dp4299
sg70
g4293
sg63
(lp4300
g56
(g57
g58
NtRp4301
(dp4302
g61
(dp4303
g69
I1
ssg70
g4297
sg63
(lp4304
(lp4305
(g3463
(S's\x06\x00\x00\x00Groups'
tRp4306
I00
S'http://www.web2py.com/examples/default/usergroups'
p4307
tp4308
a(g3463
(S's\x07\x00\x00\x00Twitter'
tRp4309
I00
S'http://twitter.com/web2py'
p4310
tp4311
a(g3463
(S's\t\x00\x00\x00Live chat'
tRp4312
I00
S'http://mibbit.com/?channel=%23web2py&server=irc.mibbit.net'
p4313
tp4314
a(g3463
(S's\n\x00\x00\x00User Voice'
tRp4315
I00
S'http://web2py.uservoice.com/'
p4316
tp4317
aasbasbasbasbasbasbasbag56
(g72
g58
NtRp4318
(dp4319
g61
(dp4320
sg70
g4127
sg63
(lp4321
g56
(g77
g58
NtRp4322
(dp4323
g61
(dp4324
sg70
g4318
sg63
(lp4325
g56
(g57
g58
NtRp4326
(dp4327
g61
(dp4328
g69
I2
ssg70
g4322
sg63
(lp4329
g56
(g65
g58
NtRp4330
(dp4331
g61
(dp4332
g69
I1
ssg70
Nsg63
(lp4333
g56
(g72
g58
NtRp4334
(dp4335
g61
(dp4336
sg70
g4330
sg63
(lp4337
g56
(g77
g58
NtRp4338
(dp4339
g61
(dp4340
sg70
g4334
sg63
(lp4341
g56
(g57
g58
NtRp4342
(dp4343
g61
(dp4344
g69
I1
ssg70
g4338
sg63
(lp4345
g3463
(S's\x06\x00\x00\x00Web2py'
tRp4346
asbasbasbag56
(g72
g58
NtRp4347
(dp4348
g61
(dp4349
sg70
g4330
sg63
(lp4350
g56
(g77
g58
NtRp4351
(dp4352
g61
(dp4353
sg70
g4347
sg63
(lp4354
g56
(g57
g58
NtRp4355
(dp4356
g61
(dp4357
g69
I1
ssg70
g4351
sg63
(lp4358
I00
asbasbasbag56
(g72
g58
NtRp4359
(dp4360
g61
(dp4361
sg70
g4330
sg63
(lp4362
g56
(g77
g58
NtRp4363
(dp4364
g61
(dp4365
sg70
g4359
sg63
(lp4366
g56
(g57
g58
NtRp4367
(dp4368
g61
(dp4369
g69
I1
ssg70
g4363
sg63
(lp4370
S'http://www.web2py.com'
p4371
asbasbasbag56
(g72
g58
NtRp4372
(dp4373
g61
(dp4374
sg70
g4330
sg63
(lp4375
g56
(g77
g58
NtRp4376
(dp4377
g61
(dp4378
sg70
g4372
sg63
(lp4379
g56
(g57
g58
NtRp4380
(dp4381
g61
(dp4382
g69
I1
ssg70
g4376
sg63
(lp4383
(lp4384
(g3463
(S's\x08\x00\x00\x00Download'
tRp4385
I00
S'http://www.web2py.com/examples/default/download'
p4386
tp4387
a(g3463
(S's\x07\x00\x00\x00Support'
tRp4388
I00
S'http://www.web2py.com/examples/default/support'
p4389
tp4390
a(g3463
(S's\x0e\x00\x00\x00Quick Examples'
tRp4391
I00
S'http://web2py.com/examples/default/examples'
p4392
tp4393
a(g3463
(S's\x03\x00\x00\x00FAQ'
tRp4394
I00
S'http://web2py.com/AlterEgo'
p4395
tp4396
a(g3463
(S's\x11\x00\x00\x00Free Applications'
tRp4397
I00
S'http://web2py.com/appliances'
p4398
tp4399
a(g3463
(S's\x07\x00\x00\x00Plugins'
tRp4400
I00
S'http://web2py.com/plugins'
p4401
tp4402
a(g3463
(S's\x07\x00\x00\x00Recipes'
tRp4403
I00
S'http://web2pyslices.com/'
p4404
tp4405
a(g3463
(S's\x04\x00\x00\x00Demo'
tRp4406
I00
S'http://web2py.com/demo_admin'
p4407
tp4408
a(g3463
(S's\x08\x00\x00\x00Semantic'
tRp4409
I00
S'http://web2py.com/semantic'
p4410
tp4411
a(g3463
(S's\x07\x00\x00\x00Layouts'
tRp4412
I00
S'http://web2py.com/layouts'
p4413
tp4414
a(g3463
(S's\x06\x00\x00\x00Videos'
tRp4415
I00
S'http://www.web2py.com/examples/default/videos/'
p4416
tp4417
aasbasbasbasbasbasbasbasbasbasbasbasbasbasbasbasbasbasbasbag56
(g72
g58
NtRp4418
(dp4419
g61
(dp4420
sg70
g2958
sg63
(lp4421
g56
(g77
g58
NtRp4422
(dp4423
g61
(dp4424
g81
g82
ssg70
g4418
sg63
(lp4425
S'meta'
p4426
asbag56
(g77
g58
NtRp4427
(dp4428
g61
(dp4429
g88
g89
ssg70
g4418
sg63
(lp4430
S':'
asbag56
(g77
g58
NtRp4431
(dp4432
g61
(dp4433
sg70
g4418
sg63
(lp4434
g56
(g57
g58
NtRp4435
(dp4436
g61
(dp4437
g69
I5
ssg70
g4431
sg63
(lp4438
g56
(g65
g58
NtRp4439
(dp4440
g61
(dp4441
g69
I4
ssg70
Nsg63
(lp4442
g56
(g72
g58
NtRp4443
(dp4444
g61
(dp4445
sg70
g4439
sg63
(lp4446
g56
(g77
g58
NtRp4447
(dp4448
g61
(dp4449
g81
g82
ssg70
g4443
sg63
(lp4450
S'author'
p4451
asbag56
(g77
g58
NtRp4452
(dp4453
g61
(dp4454
g88
g89
ssg70
g4443
sg63
(lp4455
S':'
asbag56
(g77
g58
NtRp4456
(dp4457
g61
(dp4458
sg70
g4443
sg63
(lp4459
g56
(g57
g58
NtRp4460
(dp4461
g61
(dp4462
g69
I4
ssg70
g4456
sg63
(lp4463
S'Your Name <you@example.com>'
p4464
asbasbasbag56
(g72
g58
NtRp4465
(dp4466
g61
(dp4467
sg70
g4439
sg63
(lp4468
g56
(g77
g58
NtRp4469
(dp4470
g61
(dp4471
g81
g82
ssg70
g4465
sg63
(lp4472
S'copyright'
p4473
asbag56
(g77
g58
NtRp4474
(dp4475
g61
(dp4476
g88
g89
ssg70
g4465
sg63
(lp4477
S':'
asbag56
(g77
g58
NtRp4478
(dp4479
g61
(dp4480
sg70
g4465
sg63
(lp4481
g56
(g57
g58
NtRp4482
(dp4483
g61
(dp4484
g69
I4
ssg70
g4478
sg63
(lp4485
S'Copyright 2011'
p4486
asbasbasbag56
(g72
g58
NtRp4487
(dp4488
g61
(dp4489
sg70
g4439
sg63
(lp4490
g56
(g77
g58
NtRp4491
(dp4492
g61
(dp4493
g81
g82
ssg70
g4487
sg63
(lp4494
S'description'
p4495
asbag56
(g77
g58
NtRp4496
(dp4497
g61
(dp4498
g88
g89
ssg70
g4487
sg63
(lp4499
S':'
asbag56
(g77
g58
NtRp4500
(dp4501
g61
(dp4502
sg70
g4487
sg63
(lp4503
g56
(g57
g58
NtRp4504
(dp4505
g61
(dp4506
g69
I4
ssg70
g4500
sg63
(lp4507
S'a cool new app'
p4508
asbasbasbag56
(g72
g58
NtRp4509
(dp4510
g61
(dp4511
sg70
g4439
sg63
(lp4512
g56
(g77
g58
NtRp4513
(dp4514
g61
(dp4515
g81
g82
ssg70
g4509
sg63
(lp4516
S'generator'
p4517
asbag56
(g77
g58
NtRp4518
(dp4519
g61
(dp4520
g88
g89
ssg70
g4509
sg63
(lp4521
S':'
asbag56
(g77
g58
NtRp4522
(dp4523
g61
(dp4524
sg70
g4509
sg63
(lp4525
g56
(g57
g58
NtRp4526
(dp4527
g61
(dp4528
g69
I4
ssg70
g4522
sg63
(lp4529
S'Web2py Web Framework'
p4530
asbasbasbag56
(g72
g58
NtRp4531
(dp4532
g61
(dp4533
sg70
g4439
sg63
(lp4534
g56
(g77
g58
NtRp4535
(dp4536
g61
(dp4537
g81
g82
ssg70
g4531
sg63
(lp4538
S'keywords'
p4539
asbag56
(g77
g58
NtRp4540
(dp4541
g61
(dp4542
g88
g89
ssg70
g4531
sg63
(lp4543
S':'
asbag56
(g77
g58
NtRp4544
(dp4545
g61
(dp4546
sg70
g4531
sg63
(lp4547
g56
(g57
g58
NtRp4548
(dp4549
g61
(dp4550
g69
I4
ssg70
g4544
sg63
(lp4551
S'web2py, python, framework'
p4552
asbasbasbasbasbasbasbag56
(g72
g58
NtRp4553
(dp4554
g61
(dp4555
sg70
g2958
sg63
(lp4556
g56
(g77
g58
NtRp4557
(dp4558
g61
(dp4559
g81
g82
ssg70
g4553
sg63
(lp4560
S'postprocessing'
p4561
asbag56
(g77
g58
NtRp4562
(dp4563
g61
(dp4564
g88
g89
ssg70
g4553
sg63
(lp4565
S':'
asbag56
(g77
g58
NtRp4566
(dp4567
g61
(dp4568
sg70
g4553
sg63
(lp4569
g56
(g57
g58
NtRp4570
(dp4571
g61
(dp4572
g69
I5
ssg70
g4566
sg63
(lp4573
g56
(g65
g58
NtRp4574
(dp4575
g61
(dp4576
g69
I4
ssg70
Nsg63
(lp4577
sbasbasbasbag56
(g72
g58
NtRp4578
(dp4579
g61
(dp4580
sg70
g2958
sg63
(lp4581
g56
(g77
g58
NtRp4582
(dp4583
g61
(dp4584
g81
g82
ssg70
g4578
sg63
(lp4585
S'session_file'
p4586
asbag56
(g77
g58
NtRp4587
(dp4588
g61
(dp4589
g88
g89
ssg70
g4578
sg63
(lp4590
S':'
asbag56
(g77
g58
NtRp4591
(dp4592
g61
(dp4593
sg70
g4578
sg63
(lp4594
g56
(g57
g58
NtRp4595
(dp4596
g61
(dp4597
g69
I5
ssg70
g4591
sg63
(lp4598
S"<open file '/Users/excon/Sites/dreamscape/applications/welcome/sessions/127.0.0.1-8dfa8cd1-5b2c-419d-87ba-df200b08a648', mode 'rb+' at 0x101af5360>"
p4599
asbasbasbag56
(g72
g58
NtRp4600
(dp4601
g61
(dp4602
sg70
g2958
sg63
(lp4603
g56
(g77
g58
NtRp4604
(dp4605
g61
(dp4606
g81
g82
ssg70
g4600
sg63
(lp4607
S'session_filename'
p4608
asbag56
(g77
g58
NtRp4609
(dp4610
g61
(dp4611
g88
g89
ssg70
g4600
sg63
(lp4612
S':'
asbag56
(g77
g58
NtRp4613
(dp4614
g61
(dp4615
sg70
g4600
sg63
(lp4616
g56
(g57
g58
NtRp4617
(dp4618
g61
(dp4619
g69
I5
ssg70
g4613
sg63
(lp4620
S'/Users/excon/Sites/dreamscape/applications/welcome/sessions/127.0.0.1-8dfa8cd1-5b2c-419d-87ba-df200b08a648'
p4621
asbasbasbag56
(g72
g58
NtRp4622
(dp4623
g61
(dp4624
sg70
g2958
sg63
(lp4625
g56
(g77
g58
NtRp4626
(dp4627
g61
(dp4628
g81
g82
ssg70
g4622
sg63
(lp4629
S'session_id'
p4630
asbag56
(g77
g58
NtRp4631
(dp4632
g61
(dp4633
g88
g89
ssg70
g4622
sg63
(lp4634
S':'
asbag56
(g77
g58
NtRp4635
(dp4636
g61
(dp4637
sg70
g4622
sg63
(lp4638
g56
(g57
g58
NtRp4639
(dp4640
g61
(dp4641
g69
I5
ssg70
g4635
sg63
(lp4642
S'127.0.0.1-8dfa8cd1-5b2c-419d-87ba-df200b08a648'
p4643
asbasbasbag56
(g72
g58
NtRp4644
(dp4645
g61
(dp4646
sg70
g2958
sg63
(lp4647
g56
(g77
g58
NtRp4648
(dp4649
g61
(dp4650
g81
g82
ssg70
g4644
sg63
(lp4651
S'session_id_name'
p4652
asbag56
(g77
g58
NtRp4653
(dp4654
g61
(dp4655
g88
g89
ssg70
g4644
sg63
(lp4656
S':'
asbag56
(g77
g58
NtRp4657
(dp4658
g61
(dp4659
sg70
g4644
sg63
(lp4660
g56
(g57
g58
NtRp4661
(dp4662
g61
(dp4663
g69
I5
ssg70
g4657
sg63
(lp4664
g3015
asbasbasbag56
(g72
g58
NtRp4665
(dp4666
g61
(dp4667
sg70
g2958
sg63
(lp4668
g56
(g77
g58
NtRp4669
(dp4670
g61
(dp4671
g81
g82
ssg70
g4665
sg63
(lp4672
S'session_locked'
p4673
asbag56
(g77
g58
NtRp4674
(dp4675
g61
(dp4676
g88
g89
ssg70
g4665
sg63
(lp4677
S':'
asbag56
(g77
g58
NtRp4678
(dp4679
g61
(dp4680
sg70
g4665
sg63
(lp4681
g56
(g57
g58
NtRp4682
(dp4683
g61
(dp4684
g69
I5
ssg70
g4678
sg63
(lp4685
g1507
asbasbasbag56
(g72
g58
NtRp4686
(dp4687
g61
(dp4688
sg70
g2958
sg63
(lp4689
g56
(g77
g58
NtRp4690
(dp4691
g61
(dp4692
g81
g82
ssg70
g4686
sg63
(lp4693
S'session_new'
p4694
asbag56
(g77
g58
NtRp4695
(dp4696
g61
(dp4697
g88
g89
ssg70
g4686
sg63
(lp4698
S':'
asbag56
(g77
g58
NtRp4699
(dp4700
g61
(dp4701
sg70
g4686
sg63
(lp4702
g56
(g57
g58
NtRp4703
(dp4704
g61
(dp4705
g69
I5
ssg70
g4699
sg63
(lp4706
g99
asbasbasbag56
(g72
g58
NtRp4707
(dp4708
g61
(dp4709
sg70
g2958
sg63
(lp4710
g56
(g77
g58
NtRp4711
(dp4712
g61
(dp4713
g81
g82
ssg70
g4707
sg63
(lp4714
S'status'
p4715
asbag56
(g77
g58
NtRp4716
(dp4717
g61
(dp4718
g88
g89
ssg70
g4707
sg63
(lp4719
S':'
asbag56
(g77
g58
NtRp4720
(dp4721
g61
(dp4722
sg70
g4707
sg63
(lp4723
g56
(g57
g58
NtRp4724
(dp4725
g61
(dp4726
g69
I5
ssg70
g4720
sg63
(lp4727
S'200'
p4728
asbasbasbag56
(g72
g58
NtRp4729
(dp4730
g61
(dp4731
sg70
g2958
sg63
(lp4732
g56
(g77
g58
NtRp4733
(dp4734
g61
(dp4735
g81
g82
ssg70
g4729
sg63
(lp4736
S'subtitle'
p4737
asbag56
(g77
g58
NtRp4738
(dp4739
g61
(dp4740
g88
g89
ssg70
g4729
sg63
(lp4741
S':'
asbag56
(g77
g58
NtRp4742
(dp4743
g61
(dp4744
sg70
g4729
sg63
(lp4745
g56
(g57
g58
NtRp4746
(dp4747
g61
(dp4748
g69
I5
ssg70
g4742
sg63
(lp4749
g3463
(S's\r\x00\x00\x00customize me!'
tRp4750
asbasbasbag56
(g72
g58
NtRp4751
(dp4752
g61
(dp4753
sg70
g2958
sg63
(lp4754
g56
(g77
g58
NtRp4755
(dp4756
g61
(dp4757
g81
g82
ssg70
g4751
sg63
(lp4758
S'title'
p4759
asbag56
(g77
g58
NtRp4760
(dp4761
g61
(dp4762
g88
g89
ssg70
g4751
sg63
(lp4763
S':'
asbag56
(g77
g58
NtRp4764
(dp4765
g61
(dp4766
sg70
g4751
sg63
(lp4767
g56
(g57
g58
NtRp4768
(dp4769
g61
(dp4770
g69
I5
ssg70
g4764
sg63
(lp4771
g121
asbasbasbag56
(g72
g58
NtRp4772
(dp4773
g61
(dp4774
sg70
g2958
sg63
(lp4775
g56
(g77
g58
NtRp4776
(dp4777
g61
(dp4778
g81
g82
ssg70
g4772
sg63
(lp4779
g2151
asbag56
(g77
g58
NtRp4780
(dp4781
g61
(dp4782
g88
g89
ssg70
g4772
sg63
(lp4783
S':'
asbag56
(g77
g58
NtRp4784
(dp4785
g61
(dp4786
sg70
g4772
sg63
(lp4787
g56
(g57
g58
NtRp4788
(dp4789
g61
(dp4790
g69
I5
ssg70
g4784
sg63
(lp4791
g2164
asbasbasbag56
(g72
g58
NtRp4792
(dp4793
g61
(dp4794
sg70
g2958
sg63
(lp4795
g56
(g77
g58
NtRp4796
(dp4797
g61
(dp4798
g81
g82
ssg70
g4792
sg63
(lp4799
S'view'
p4800
asbag56
(g77
g58
NtRp4801
(dp4802
g61
(dp4803
g88
g89
ssg70
g4792
sg63
(lp4804
S':'
asbag56
(g77
g58
NtRp4805
(dp4806
g61
(dp4807
sg70
g4792
sg63
(lp4808
g56
(g57
g58
NtRp4809
(dp4810
g61
(dp4811
g69
I5
ssg70
g4805
sg63
(lp4812
S'default/user.html'
p4813
asbasbasbasbasbsS'locals'
p4814
(dp4815
ssS'traceback'
p4816
S'Traceback (most recent call last):\n  File "/Users/excon/Sites/dreamscape/gluon/restricted.py", line 194, in restricted\n    exec ccode in environment\n  File "/Users/excon/Sites/dreamscape/applications/welcome/controllers/default.py", line 103, in <module>\n  File "/Users/excon/Sites/dreamscape/gluon/globals.py", line 149, in <lambda>\n    self._caller = lambda f: f()\n  File "/Users/excon/Sites/dreamscape/applications/welcome/controllers/default.py", line 59, in user\n    return dict(form=auth(next=URL(r=request, f=\'coming_soon\')))\nTypeError: __call__() got an unexpected keyword argument \'next\'\n'
p4817
s.