(dp1
S'output'
p2
S''
sS'layer'
p3
S'/Users/excon/Sites/dreamscape/applications/welcome/views/default/index.html'
p4
sS'code'
p5
S'response.write(\'<!DOCTYPE html>\\n<html lang="\', escape=False)\nresponse.write(T.accepted_language or \'en\')\nresponse.write(\'" class="no-js"><!-- no-js need it for modernzr -->\\n  <head>\\n    \\n    <meta charset="utf-8" />        \\n    <!-- www.phpied.com/conditional-comments-block-downloads/ -->\\n    <!--[if IE]>\\n      <!-- Always force latest IE rendering engine \\n       (even in intranet) & Chrome Frame \\n       Remove this if you use the .htaccess -->\\n      <meta http-equiv="X-UA-Compatible" content="IE=edge,chrome=1">\\n    <![endif]-->    \\n\\n    <title>\', escape=False)\nresponse.write(response.title or request.application)\nresponse.write(\'</title>\\n    \\n    <!-- http://dev.w3.org/html5/markup/meta.name.html -->\\n    <meta name="application-name" content="\', escape=False)\nresponse.write(request.application)\nresponse.write(\'" /> \\n    \\n    <!-- Speaking of Google, don\\\'t forget to set your site up: \\n     http://google.com/webmasters -->\\n    <meta name="google-site-verification" content="" />\\n    \\n    <!--  Mobile Viewport Fix\\n      j.mp/mobileviewport & davidbcalhoun.com/2010/viewport-metatag \\n      device-width: Occupy full width of the screen in its current orientation\\n      initial-scale = 1.0 retains dimensions instead of zooming out if page height > device height\\n      maximum-scale = 1.0 retains dimensions instead of zooming in if page width < device width\\n      -->\\n    <meta name="viewport" content="width=device-width, initial-scale=1.0, maximum-scale=1.0">\\n    \\n    <!-- Place favicon.ico and apple-touch-icon.png in the root of your domain and delete these references -->\\n    <link rel="shortcut icon" href="\', escape=False)\nresponse.write(URL(\'static\',\'favicon.ico\'))\nresponse.write(\'" type="image/x-icon">\\n    <link rel="apple-touch-icon" href="\', escape=False)\nresponse.write(URL(\'static\',\'favicon.png\'))\nresponse.write(\'">\\n\\n    <!-- For the less-enabled mobile browsers like Opera Mini -->\\n    <link rel="stylesheet" media="handheld" href="\', escape=False)\nresponse.write(URL(\'static\',\'css/handheld.css\'))\nresponse.write(\'">\\n    \\n    <!-- All JavaScript at the bottom, except for Modernizr which enables HTML5 elements & feature detects -->\\n    <script src="\', escape=False)\nresponse.write(URL(\'static\',\'js/modernizr-1.7.min.js\'))\nresponse.write(\'"></script>\\n    \\n    \', escape=False)\n#------  require CSS and JS files for this page (read info in base.css) ------\nresponse.write(\'\\n    \', escape=False)\nresponse.files.append(URL(\'static\',\'css/base.css\'))\nresponse.write(\'\\n    \', escape=False)\nresponse.files.append(URL(\'static\',\'css/superfish.css\'))\nresponse.write(\'\\n    \', escape=False)\nresponse.files.append(URL(\'static\',\'js/superfish.js\'))\nresponse.write(\'\\n    \', escape=False)\n#------ include web2py specific js code (jquery, calendar, form stuff) ------\nresponse.write(\'\\n    \', escape=False)\nresponse.files.insert(0,URL(\'static\',\'js/jquery.js\'))\nresponse.files.insert(1,URL(\'static\',\'css/anytime.css\'))\nresponse.files.insert(2,URL(\'static\',\'js/anytime.js\'))\nresponse.include_meta()\nresponse.include_files()\nresponse.write(\'\\n<script type="text/javascript"><!--\\n    // These variables are used by the web2py_ajax_init function in web2py_ajax.js (which is loaded below).\\n    var w2p_ajax_confirm_message = "\', escape=False)\nresponse.write(T(\'Are you sure you want to delete this object?\'))\nresponse.write(\'";\\n    var w2p_ajax_date_format = "\', escape=False)\nresponse.write(T(\'%Y-%m-%d\'))\nresponse.write(\'";\\n    var w2p_ajax_datetime_format = "\', escape=False)\nresponse.write(T(\'%Y-%m-%d %H:%M:%S\'))\nresponse.write(\'";\\n    //--></script>\\n    <script src="\', escape=False)\nresponse.write(URL(\'static\',\'js/web2py_ajax.js\'))\nresponse.write(\'" type="text/javascript"></script>\\n\', escape=False)\nresponse.write(\'\\n\\n    \', escape=False)\n#using sidebars need to know what sidebar you want to use\n#prior of using it, because of static width size of content, you can use\n#left_sidebar, right_sidebar, both or none (False left and right)\nleft_sidebar_enabled = globals().get(\'left_sidebar_enabled\',False)\nright_sidebar_enabled = globals().get(\'right_sidebar_enabled\',False)\nif left_sidebar_enabled and right_sidebar_enabled: width_content=\'63%\'\nelif left_sidebar_enabled != right_sidebar_enabled: width_content=\'740px\'\nelse: width_content=\'100%\'\nif left_sidebar_enabled: left_sidebar_style = \'style="display: block;"\'\nelse: left_sidebar_style = \'style="display: none;"\'\nif right_sidebar_enabled: right_sidebar_style = \'style="display: block;"\'\nelse: right_sidebar_style = \'style="display: none;"\'\nstyle_content = \'style="width: %s"\' % width_content\nresponse.write(\'\\n    \\n    <!-- uncomment here to load jquery-ui -->\\n    \\n    <link rel="stylesheet" href="http://ajax.googleapis.com/ajax/libs/jqueryui/1.8.16/themes/base/jquery-ui.css" type="text/css" media="all" />\\n    <script src="http://ajax.googleapis.com/ajax/libs/jqueryui/1.8.16/jquery-ui.min.js" type="text/javascript"></script>\\n    \\n   <!-- uncomment to load jquery-ui -->\\n    \\n    \\n  </head>\\n  \\n  <!-- paulirish.com/2008/conditional-stylesheets-vs-css-hacks-answer-neither/ -->  \\n  <!--[if lt IE 7 ]> <body class="ie6"> <![endif]-->\\n  <!--[if IE 7 ]>    <body class="ie7"> <![endif]-->\\n  <!--[if IE 8 ]>    <body class="ie8"> <![endif]-->\\n  <!--[if IE 9 ]>    <body class="ie9"> <![endif]-->\\n  <!--[if (gt IE 9)|!(IE)]><!--> <body> <!--<![endif]-->\\n    \\n    <div class="flash">\', escape=False)\nresponse.write(response.flash or \'\')\nresponse.write(\'</div> <!-- notification div -->\\n\\n        \\n\\n    <div id="container">                        \\n      \\n      <div id="wrapper">        \\n      \', escape=False)\ntry:\n    response.write(auth.navbar(action=URL(\'default\',\'user\')))\nexcept:pass\nresponse.write(\'\\n    \\n    <div id="header"> <!-- header and login nav -->\\n      \', escape=False)\nresponse.write(\' <!-- this is default header -->\\n      \\n      <h1>\\n        <span id="appname">\', escape=False)\nresponse.write(request.application.capitalize())\nresponse.write(\'</span>App\\n      </h1>\\n      <div style="clear: both;"></div><!-- Clear the divs -->\\n      \', escape=False)\nresponse.write(\'\\n    </div><!-- header  -->\\n    \\n    <div id="statusbar"><!-- statusbar is menu zone -->\\n      \', escape=False)\nresponse.write(\' <!-- this is default statusbar -->\\n      \', escape=False)\n#------ superfish menu ------\nresponse.write(\'\\n      \', escape=False)\nresponse.write(MENU(response.menu,_class=\'sf-menu\'))\nresponse.write(\'\\n      <script type="text/javascript">\\n        jQuery(document).ready(function(){\\n        jQuery(\\\'ul.sf-menu\\\').superfish();});\\n      </script>\\n\\n      <!-- AddToAny BEGIN -->\\n      <div style="padding: 7px; float:right;" class="a2a_kit a2a_default_style"><a class="a2a_dd" href="http://www.addtoany.com/share_save">Share</a></div><script type="text/javascript" src="http://static.addtoany.com/menu/page.js"></script>\\n      <!-- AddToAny END -->\\n\\n      <div style="clear: both;"></div><!-- Clear the divs -->   \\n      \', escape=False)\nresponse.write(\'               \\n    </div><!-- statusbar -->\\n    \\n    <div id="page"> <!-- Here my central body -->     \\n\\n      \', escape=False)\nif left_sidebar_enabled:\n    response.write(\'\\n          <div id="left_sidebar" \', escape=False)\n    response.write(XML(left_sidebar_style))\n    response.write(\' >\\n            <div style="padding: 4px;">\\n          \', escape=False)\n    response.write(\'Content Left Sidebar\', escape=False)\n    response.write(\'       \\n            </div>\\n          </div><!-- left_sidebar -->\\n      \', escape=False)\n    pass\nresponse.write(\'\\n\\n      <!-- content -->\\n      <div id="content" \', escape=False)\nresponse.write(XML(style_content))\nresponse.write(\' >\\n        \', escape=False)\nresponse.write(\'\\n\', escape=False)\nfor num in nums:\n    response.write(\'\\n\', escape=False)\n    response.write(P("a" + num))\n    response.write(\'\\n\', escape=False)\n    pass\nresponse.write(\'\\n<h1>Dreamscape</h1>\\n<p>Share your dreams with other dreamers to turn passions to realities.</p>\\n<p>We are really intent on everyone achieving their dreams.</p>\\n\', escape=False)\npass\nresponse.write(\'\\n      </div>\\n      <!-- content -->\\n\\n      \', escape=False)\nif right_sidebar_enabled:\n    response.write(\'\\n          <div id="right_sidebar" \', escape=False)\n    response.write(XML(right_sidebar_style))\n    response.write(\' >\\n            <div style="padding: 4px;">\\n              \', escape=False)\n    response.write(\'Content Right Sidebar\', escape=False)\n    response.write(\'\\n            </div>\\n      </div><!-- right_sidebar -->\\n          \', escape=False)\n    pass\nresponse.write(\'\\n\\n\\n      <div style="clear: both;"></div><!-- Clear the divs -->\\n      \\n    </div><!-- page -->                         \\n    \\n    <div id="footer">\\n      \', escape=False)\nresponse.write(\' <!-- this is default footer -->\\n      <a href="http://www.web2py.com/" style="float: left; padding-right: 6px;">\\n        <img src="\', escape=False)\nresponse.write(URL(\'static\',\'images/poweredby.png\'))\nresponse.write(\'"/>\\n      </a>\\n      \', escape=False)\nresponse.write(T(\'Copyright\'))\nresponse.write(\' &#169; 2011               \\n      <div style="clear: both;"></div><!-- Clear the divs -->\\n      \', escape=False)\nresponse.write(\'\\n\\n    </div><!-- footer -->           \\n      </div><!-- wrapper -->\\n    </div><!-- container -->        \\n    \\n    <!--[if lt IE 7 ]>\\n    <script src="\', escape=False)\nresponse.write(URL(\'static\',\'js/dd_belatedpng.js\'))\nresponse.write(\'"></script>\\n    <script> DD_belatedPNG.fix(\\\'img, .png_bg\\\'); //fix any <img> or .png_bg background-images </script>\\n    <![endif]-->\\n    \', escape=False)\nif response.google_analytics_id:\n    response.write("<script>/* http://mathiasbynens.be/notes/async-analytics-snippet */ var _gaq=[[\'_setAccount\',\'", escape=False)\n    response.write(response.google_analyitics_id)\n    response.write("\'],[\'_trackPageview\']];(function(d,t){var g=d.createElement(t),s=d.getElementsByTagName(t)[0];g.src=\'//www.google-analytics.com/ga.js\';s.parentNode.insertBefore(g,s)}(document,\'script\')) </script>", escape=False)\n    pass\nresponse.write(\'\\n  </body>\\n</html>\\n\', escape=False)'
p6
sS'snapshot'
p7
(dp8
S'exception'
p9
(dp10
S'__hash__'
p11
S"<method-wrapper '__hash__' of exceptions.TypeError object at 0x1010b9c20>"
p12
sS'__setattr__'
p13
S"<method-wrapper '__setattr__' of exceptions.TypeError object at 0x1010b9c20>"
p14
sS'__reduce_ex__'
p15
S'<built-in method __reduce_ex__ of exceptions.TypeError object at 0x1010b9c20>'
p16
sS'__getslice__'
p17
S"<method-wrapper '__getslice__' of exceptions.TypeError object at 0x1010b9c20>"
p18
sS'__getitem__'
p19
S"<method-wrapper '__getitem__' of exceptions.TypeError object at 0x1010b9c20>"
p20
sS'__setstate__'
p21
S'<built-in method __setstate__ of exceptions.TypeError object at 0x1010b9c20>'
p22
sS'args'
p23
S'("cannot concatenate \'str\' and \'int\' objects",)'
p24
sS'__reduce__'
p25
S'<built-in method __reduce__ of exceptions.TypeError object at 0x1010b9c20>'
p26
sS'__str__'
p27
S"<method-wrapper '__str__' of exceptions.TypeError object at 0x1010b9c20>"
p28
sS'__format__'
p29
S'<built-in method __format__ of exceptions.TypeError object at 0x1010b9c20>'
p30
sS'__getattribute__'
p31
S"<method-wrapper '__getattribute__' of exceptions.TypeError object at 0x1010b9c20>"
p32
sS'__class__'
p33
S"<type 'exceptions.TypeError'>"
p34
sS'__unicode__'
p35
S'<built-in method __unicode__ of exceptions.TypeError object at 0x1010b9c20>'
p36
sS'__delattr__'
p37
S"<method-wrapper '__delattr__' of exceptions.TypeError object at 0x1010b9c20>"
p38
sS'__subclasshook__'
p39
S'<built-in method __subclasshook__ of type object at 0x10011a2c0>'
p40
sS'__repr__'
p41
S"<method-wrapper '__repr__' of exceptions.TypeError object at 0x1010b9c20>"
p42
sS'__dict__'
p43
S'{}'
p44
sS'__sizeof__'
p45
S'<built-in method __sizeof__ of exceptions.TypeError object at 0x1010b9c20>'
p46
sS'__doc__'
p47
S"'Inappropriate argument type.'"
p48
sS'__init__'
p49
S"<method-wrapper '__init__' of exceptions.TypeError object at 0x1010b9c20>"
p50
sS'__new__'
p51
S'<built-in method __new__ of type object at 0x10011a2c0>'
p52
ssS'evalue'
p53
S"cannot concatenate 'str' and 'int' objects"
p54
sS'request'
p55
ccopy_reg
_reconstructor
p56
(cgluon.html
BEAUTIFY
p57
c__builtin__
object
p58
NtRp59
(dp60
S'attributes'
p61
(dp62
sS'components'
p63
(lp64
g56
(cgluon.html
TABLE
p65
g58
NtRp66
(dp67
g61
(dp68
S'level'
p69
I5
ssS'parent'
p70
Nsg63
(lp71
g56
(cgluon.html
TR
p72
g58
NtRp73
(dp74
g61
(dp75
sg70
g66
sg63
(lp76
g56
(cgluon.html
TD
p77
g58
NtRp78
(dp79
g61
(dp80
S'_style'
p81
S'font-weight:bold;'
p82
ssg70
g73
sg63
(lp83
S'ajax'
p84
asbag56
(g77
g58
NtRp85
(dp86
g61
(dp87
S'_valign'
p88
S'top'
p89
ssg70
g73
sg63
(lp90
S':'
asbag56
(g77
g58
NtRp91
(dp92
g61
(dp93
sg70
g73
sg63
(lp94
g56
(g57
g58
NtRp95
(dp96
g61
(dp97
g69
I5
ssg70
g91
sg63
(lp98
S'False'
p99
asbasbasbag56
(g72
g58
NtRp100
(dp101
g61
(dp102
sg70
g66
sg63
(lp103
g56
(g77
g58
NtRp104
(dp105
g61
(dp106
g81
g82
ssg70
g100
sg63
(lp107
S'application'
p108
asbag56
(g77
g58
NtRp109
(dp110
g61
(dp111
g88
g89
ssg70
g100
sg63
(lp112
S':'
asbag56
(g77
g58
NtRp113
(dp114
g61
(dp115
sg70
g100
sg63
(lp116
g56
(g57
g58
NtRp117
(dp118
g61
(dp119
g69
I5
ssg70
g113
sg63
(lp120
S'welcome'
p121
asbasbasbag56
(g72
g58
NtRp122
(dp123
g61
(dp124
sg70
g66
sg63
(lp125
g56
(g77
g58
NtRp126
(dp127
g61
(dp128
g81
g82
ssg70
g122
sg63
(lp129
g23
asbag56
(g77
g58
NtRp130
(dp131
g61
(dp132
g88
g89
ssg70
g122
sg63
(lp133
S':'
asbag56
(g77
g58
NtRp134
(dp135
g61
(dp136
sg70
g122
sg63
(lp137
g56
(g57
g58
NtRp138
(dp139
g61
(dp140
g69
I5
ssg70
g134
sg63
(lp141
g56
(g65
g58
NtRp142
(dp143
g61
(dp144
g69
I4
ssg70
Nsg63
(lp145
sbasbasbasbag56
(g72
g58
NtRp146
(dp147
g61
(dp148
sg70
g66
sg63
(lp149
g56
(g77
g58
NtRp150
(dp151
g61
(dp152
g81
g82
ssg70
g146
sg63
(lp153
S'body'
p154
asbag56
(g77
g58
NtRp155
(dp156
g61
(dp157
g88
g89
ssg70
g146
sg63
(lp158
S':'
asbag56
(g77
g58
NtRp159
(dp160
g61
(dp161
sg70
g146
sg63
(lp162
g56
(g57
g58
NtRp163
(dp164
g61
(dp165
g69
I5
ssg70
g159
sg63
(lp166
S'<cStringIO.StringO object at 0x1007c7c38>'
p167
asbasbasbag56
(g72
g58
NtRp168
(dp169
g61
(dp170
sg70
g66
sg63
(lp171
g56
(g77
g58
NtRp172
(dp173
g61
(dp174
g81
g82
ssg70
g168
sg63
(lp175
S'client'
p176
asbag56
(g77
g58
NtRp177
(dp178
g61
(dp179
g88
g89
ssg70
g168
sg63
(lp180
S':'
asbag56
(g77
g58
NtRp181
(dp182
g61
(dp183
sg70
g168
sg63
(lp184
g56
(g57
g58
NtRp185
(dp186
g61
(dp187
g69
I5
ssg70
g181
sg63
(lp188
S'127.0.0.1'
p189
asbasbasbag56
(g72
g58
NtRp190
(dp191
g61
(dp192
sg70
g66
sg63
(lp193
g56
(g77
g58
NtRp194
(dp195
g61
(dp196
g81
g82
ssg70
g190
sg63
(lp197
S'controller'
p198
asbag56
(g77
g58
NtRp199
(dp200
g61
(dp201
g88
g89
ssg70
g190
sg63
(lp202
S':'
asbag56
(g77
g58
NtRp203
(dp204
g61
(dp205
sg70
g190
sg63
(lp206
g56
(g57
g58
NtRp207
(dp208
g61
(dp209
g69
I5
ssg70
g203
sg63
(lp210
S'default'
p211
asbasbasbag56
(g72
g58
NtRp212
(dp213
g61
(dp214
sg70
g66
sg63
(lp215
g56
(g77
g58
NtRp216
(dp217
g61
(dp218
g81
g82
ssg70
g212
sg63
(lp219
S'cookies'
p220
asbag56
(g77
g58
NtRp221
(dp222
g61
(dp223
g88
g89
ssg70
g212
sg63
(lp224
S':'
asbag56
(g77
g58
NtRp225
(dp226
g61
(dp227
sg70
g212
sg63
(lp228
g56
(g57
g58
NtRp229
(dp230
g61
(dp231
g69
I5
ssg70
g225
sg63
(lp232
g56
(g65
g58
NtRp233
(dp234
g61
(dp235
g69
I4
ssg70
Nsg63
(lp236
g56
(g72
g58
NtRp237
(dp238
g61
(dp239
sg70
g233
sg63
(lp240
g56
(g77
g58
NtRp241
(dp242
g61
(dp243
g81
g82
ssg70
g237
sg63
(lp244
S'session_id_admin'
p245
asbag56
(g77
g58
NtRp246
(dp247
g61
(dp248
g88
g89
ssg70
g237
sg63
(lp249
S':'
asbag56
(g77
g58
NtRp250
(dp251
g61
(dp252
sg70
g237
sg63
(lp253
g56
(g57
g58
NtRp254
(dp255
g61
(dp256
g69
I4
ssg70
g250
sg63
(lp257
g56
(g65
g58
NtRp258
(dp259
g61
(dp260
g69
I3
ssg70
Nsg63
(lp261
g56
(g72
g58
NtRp262
(dp263
g61
(dp264
sg70
g258
sg63
(lp265
g56
(g77
g58
NtRp266
(dp267
g61
(dp268
g81
g82
ssg70
g262
sg63
(lp269
S'comment'
p270
asbag56
(g77
g58
NtRp271
(dp272
g61
(dp273
g88
g89
ssg70
g262
sg63
(lp274
S':'
asbag56
(g77
g58
NtRp275
(dp276
g61
(dp277
sg70
g262
sg63
(lp278
g56
(g57
g58
NtRp279
(dp280
g61
(dp281
g69
I3
ssg70
g275
sg63
(lp282
S''
asbasbasbag56
(g72
g58
NtRp283
(dp284
g61
(dp285
sg70
g258
sg63
(lp286
g56
(g77
g58
NtRp287
(dp288
g61
(dp289
g81
g82
ssg70
g283
sg63
(lp290
S'domain'
p291
asbag56
(g77
g58
NtRp292
(dp293
g61
(dp294
g88
g89
ssg70
g283
sg63
(lp295
S':'
asbag56
(g77
g58
NtRp296
(dp297
g61
(dp298
sg70
g283
sg63
(lp299
g56
(g57
g58
NtRp300
(dp301
g61
(dp302
g69
I3
ssg70
g296
sg63
(lp303
S''
asbasbasbag56
(g72
g58
NtRp304
(dp305
g61
(dp306
sg70
g258
sg63
(lp307
g56
(g77
g58
NtRp308
(dp309
g61
(dp310
g81
g82
ssg70
g304
sg63
(lp311
S'expires'
p312
asbag56
(g77
g58
NtRp313
(dp314
g61
(dp315
g88
g89
ssg70
g304
sg63
(lp316
S':'
asbag56
(g77
g58
NtRp317
(dp318
g61
(dp319
sg70
g304
sg63
(lp320
g56
(g57
g58
NtRp321
(dp322
g61
(dp323
g69
I3
ssg70
g317
sg63
(lp324
S''
asbasbasbag56
(g72
g58
NtRp325
(dp326
g61
(dp327
sg70
g258
sg63
(lp328
g56
(g77
g58
NtRp329
(dp330
g61
(dp331
g81
g82
ssg70
g325
sg63
(lp332
S'httponly'
p333
asbag56
(g77
g58
NtRp334
(dp335
g61
(dp336
g88
g89
ssg70
g325
sg63
(lp337
S':'
asbag56
(g77
g58
NtRp338
(dp339
g61
(dp340
sg70
g325
sg63
(lp341
g56
(g57
g58
NtRp342
(dp343
g61
(dp344
g69
I3
ssg70
g338
sg63
(lp345
S''
asbasbasbag56
(g72
g58
NtRp346
(dp347
g61
(dp348
sg70
g258
sg63
(lp349
g56
(g77
g58
NtRp350
(dp351
g61
(dp352
g81
g82
ssg70
g346
sg63
(lp353
S'max-age'
p354
asbag56
(g77
g58
NtRp355
(dp356
g61
(dp357
g88
g89
ssg70
g346
sg63
(lp358
S':'
asbag56
(g77
g58
NtRp359
(dp360
g61
(dp361
sg70
g346
sg63
(lp362
g56
(g57
g58
NtRp363
(dp364
g61
(dp365
g69
I3
ssg70
g359
sg63
(lp366
S''
asbasbasbag56
(g72
g58
NtRp367
(dp368
g61
(dp369
sg70
g258
sg63
(lp370
g56
(g77
g58
NtRp371
(dp372
g61
(dp373
g81
g82
ssg70
g367
sg63
(lp374
S'path'
p375
asbag56
(g77
g58
NtRp376
(dp377
g61
(dp378
g88
g89
ssg70
g367
sg63
(lp379
S':'
asbag56
(g77
g58
NtRp380
(dp381
g61
(dp382
sg70
g367
sg63
(lp383
g56
(g57
g58
NtRp384
(dp385
g61
(dp386
g69
I3
ssg70
g380
sg63
(lp387
S''
asbasbasbag56
(g72
g58
NtRp388
(dp389
g61
(dp390
sg70
g258
sg63
(lp391
g56
(g77
g58
NtRp392
(dp393
g61
(dp394
g81
g82
ssg70
g388
sg63
(lp395
S'secure'
p396
asbag56
(g77
g58
NtRp397
(dp398
g61
(dp399
g88
g89
ssg70
g388
sg63
(lp400
S':'
asbag56
(g77
g58
NtRp401
(dp402
g61
(dp403
sg70
g388
sg63
(lp404
g56
(g57
g58
NtRp405
(dp406
g61
(dp407
g69
I3
ssg70
g401
sg63
(lp408
S''
asbasbasbag56
(g72
g58
NtRp409
(dp410
g61
(dp411
sg70
g258
sg63
(lp412
g56
(g77
g58
NtRp413
(dp414
g61
(dp415
g81
g82
ssg70
g409
sg63
(lp416
S'version'
p417
asbag56
(g77
g58
NtRp418
(dp419
g61
(dp420
g88
g89
ssg70
g409
sg63
(lp421
S':'
asbag56
(g77
g58
NtRp422
(dp423
g61
(dp424
sg70
g409
sg63
(lp425
g56
(g57
g58
NtRp426
(dp427
g61
(dp428
g69
I3
ssg70
g422
sg63
(lp429
S''
asbasbasbasbasbasbasbag56
(g72
g58
NtRp430
(dp431
g61
(dp432
sg70
g233
sg63
(lp433
g56
(g77
g58
NtRp434
(dp435
g61
(dp436
g81
g82
ssg70
g430
sg63
(lp437
S'session_id_welcome'
p438
asbag56
(g77
g58
NtRp439
(dp440
g61
(dp441
g88
g89
ssg70
g430
sg63
(lp442
S':'
asbag56
(g77
g58
NtRp443
(dp444
g61
(dp445
sg70
g430
sg63
(lp446
g56
(g57
g58
NtRp447
(dp448
g61
(dp449
g69
I4
ssg70
g443
sg63
(lp450
g56
(g65
g58
NtRp451
(dp452
g61
(dp453
g69
I3
ssg70
Nsg63
(lp454
g56
(g72
g58
NtRp455
(dp456
g61
(dp457
sg70
g451
sg63
(lp458
g56
(g77
g58
NtRp459
(dp460
g61
(dp461
g81
g82
ssg70
g455
sg63
(lp462
g270
asbag56
(g77
g58
NtRp463
(dp464
g61
(dp465
g88
g89
ssg70
g455
sg63
(lp466
S':'
asbag56
(g77
g58
NtRp467
(dp468
g61
(dp469
sg70
g455
sg63
(lp470
g56
(g57
g58
NtRp471
(dp472
g61
(dp473
g69
I3
ssg70
g467
sg63
(lp474
S''
asbasbasbag56
(g72
g58
NtRp475
(dp476
g61
(dp477
sg70
g451
sg63
(lp478
g56
(g77
g58
NtRp479
(dp480
g61
(dp481
g81
g82
ssg70
g475
sg63
(lp482
g291
asbag56
(g77
g58
NtRp483
(dp484
g61
(dp485
g88
g89
ssg70
g475
sg63
(lp486
S':'
asbag56
(g77
g58
NtRp487
(dp488
g61
(dp489
sg70
g475
sg63
(lp490
g56
(g57
g58
NtRp491
(dp492
g61
(dp493
g69
I3
ssg70
g487
sg63
(lp494
S''
asbasbasbag56
(g72
g58
NtRp495
(dp496
g61
(dp497
sg70
g451
sg63
(lp498
g56
(g77
g58
NtRp499
(dp500
g61
(dp501
g81
g82
ssg70
g495
sg63
(lp502
g312
asbag56
(g77
g58
NtRp503
(dp504
g61
(dp505
g88
g89
ssg70
g495
sg63
(lp506
S':'
asbag56
(g77
g58
NtRp507
(dp508
g61
(dp509
sg70
g495
sg63
(lp510
g56
(g57
g58
NtRp511
(dp512
g61
(dp513
g69
I3
ssg70
g507
sg63
(lp514
S''
asbasbasbag56
(g72
g58
NtRp515
(dp516
g61
(dp517
sg70
g451
sg63
(lp518
g56
(g77
g58
NtRp519
(dp520
g61
(dp521
g81
g82
ssg70
g515
sg63
(lp522
g333
asbag56
(g77
g58
NtRp523
(dp524
g61
(dp525
g88
g89
ssg70
g515
sg63
(lp526
S':'
asbag56
(g77
g58
NtRp527
(dp528
g61
(dp529
sg70
g515
sg63
(lp530
g56
(g57
g58
NtRp531
(dp532
g61
(dp533
g69
I3
ssg70
g527
sg63
(lp534
S''
asbasbasbag56
(g72
g58
NtRp535
(dp536
g61
(dp537
sg70
g451
sg63
(lp538
g56
(g77
g58
NtRp539
(dp540
g61
(dp541
g81
g82
ssg70
g535
sg63
(lp542
g354
asbag56
(g77
g58
NtRp543
(dp544
g61
(dp545
g88
g89
ssg70
g535
sg63
(lp546
S':'
asbag56
(g77
g58
NtRp547
(dp548
g61
(dp549
sg70
g535
sg63
(lp550
g56
(g57
g58
NtRp551
(dp552
g61
(dp553
g69
I3
ssg70
g547
sg63
(lp554
S''
asbasbasbag56
(g72
g58
NtRp555
(dp556
g61
(dp557
sg70
g451
sg63
(lp558
g56
(g77
g58
NtRp559
(dp560
g61
(dp561
g81
g82
ssg70
g555
sg63
(lp562
g375
asbag56
(g77
g58
NtRp563
(dp564
g61
(dp565
g88
g89
ssg70
g555
sg63
(lp566
S':'
asbag56
(g77
g58
NtRp567
(dp568
g61
(dp569
sg70
g555
sg63
(lp570
g56
(g57
g58
NtRp571
(dp572
g61
(dp573
g69
I3
ssg70
g567
sg63
(lp574
S''
asbasbasbag56
(g72
g58
NtRp575
(dp576
g61
(dp577
sg70
g451
sg63
(lp578
g56
(g77
g58
NtRp579
(dp580
g61
(dp581
g81
g82
ssg70
g575
sg63
(lp582
g396
asbag56
(g77
g58
NtRp583
(dp584
g61
(dp585
g88
g89
ssg70
g575
sg63
(lp586
S':'
asbag56
(g77
g58
NtRp587
(dp588
g61
(dp589
sg70
g575
sg63
(lp590
g56
(g57
g58
NtRp591
(dp592
g61
(dp593
g69
I3
ssg70
g587
sg63
(lp594
S''
asbasbasbag56
(g72
g58
NtRp595
(dp596
g61
(dp597
sg70
g451
sg63
(lp598
g56
(g77
g58
NtRp599
(dp600
g61
(dp601
g81
g82
ssg70
g595
sg63
(lp602
g417
asbag56
(g77
g58
NtRp603
(dp604
g61
(dp605
g88
g89
ssg70
g595
sg63
(lp606
S':'
asbag56
(g77
g58
NtRp607
(dp608
g61
(dp609
sg70
g595
sg63
(lp610
g56
(g57
g58
NtRp611
(dp612
g61
(dp613
g69
I3
ssg70
g607
sg63
(lp614
S''
asbasbasbasbasbasbasbasbasbasbasbag56
(g72
g58
NtRp615
(dp616
g61
(dp617
sg70
g66
sg63
(lp618
g56
(g77
g58
NtRp619
(dp620
g61
(dp621
g81
g82
ssg70
g615
sg63
(lp622
S'env'
p623
asbag56
(g77
g58
NtRp624
(dp625
g61
(dp626
g88
g89
ssg70
g615
sg63
(lp627
S':'
asbag56
(g77
g58
NtRp628
(dp629
g61
(dp630
sg70
g615
sg63
(lp631
g56
(g57
g58
NtRp632
(dp633
g61
(dp634
g69
I5
ssg70
g628
sg63
(lp635
g56
(g65
g58
NtRp636
(dp637
g61
(dp638
g69
I4
ssg70
Nsg63
(lp639
g56
(g72
g58
NtRp640
(dp641
g61
(dp642
sg70
g636
sg63
(lp643
g56
(g77
g58
NtRp644
(dp645
g61
(dp646
g81
g82
ssg70
g640
sg63
(lp647
S'app_folders'
p648
asbag56
(g77
g58
NtRp649
(dp650
g61
(dp651
g88
g89
ssg70
g640
sg63
(lp652
S':'
asbag56
(g77
g58
NtRp653
(dp654
g61
(dp655
sg70
g640
sg63
(lp656
g56
(g57
g58
NtRp657
(dp658
g61
(dp659
g69
I4
ssg70
g653
sg63
(lp660
S"set(['/Users/excon/Sites/dreamscape/applications/welcome/'])"
p661
asbasbasbag56
(g72
g58
NtRp662
(dp663
g61
(dp664
sg70
g636
sg63
(lp665
g56
(g77
g58
NtRp666
(dp667
g61
(dp668
g81
g82
ssg70
g662
sg63
(lp669
S'applications_parent'
p670
asbag56
(g77
g58
NtRp671
(dp672
g61
(dp673
g88
g89
ssg70
g662
sg63
(lp674
S':'
asbag56
(g77
g58
NtRp675
(dp676
g61
(dp677
sg70
g662
sg63
(lp678
g56
(g57
g58
NtRp679
(dp680
g61
(dp681
g69
I4
ssg70
g675
sg63
(lp682
S'/Users/excon/Sites/dreamscape'
p683
asbasbasbag56
(g72
g58
NtRp684
(dp685
g61
(dp686
sg70
g636
sg63
(lp687
g56
(g77
g58
NtRp688
(dp689
g61
(dp690
g81
g82
ssg70
g684
sg63
(lp691
S'cmd_args'
p692
asbag56
(g77
g58
NtRp693
(dp694
g61
(dp695
g88
g89
ssg70
g684
sg63
(lp696
S':'
asbag56
(g77
g58
NtRp697
(dp698
g61
(dp699
sg70
g684
sg63
(lp700
g56
(g57
g58
NtRp701
(dp702
g61
(dp703
g69
I4
ssg70
g697
sg63
(lp704
g56
(g65
g58
NtRp705
(dp706
g61
(dp707
g69
I3
ssg70
Nsg63
(lp708
sbasbasbasbag56
(g72
g58
NtRp709
(dp710
g61
(dp711
sg70
g636
sg63
(lp712
g56
(g77
g58
NtRp713
(dp714
g61
(dp715
g81
g82
ssg70
g709
sg63
(lp716
S'cmd_options'
p717
asbag56
(g77
g58
NtRp718
(dp719
g61
(dp720
g88
g89
ssg70
g709
sg63
(lp721
S':'
asbag56
(g77
g58
NtRp722
(dp723
g61
(dp724
sg70
g709
sg63
(lp725
g56
(g57
g58
NtRp726
(dp727
g61
(dp728
g69
I4
ssg70
g722
sg63
(lp729
S"<Values at 0x101c68170: {'verbose': False, 'ip': '127.0.0.1', 'shutdown_timeout': 5, 'taskbar': False, 'nocron': False, 'pid_filename': 'httpserver.pid', 'maxthreads': None, 'softcron': False, 'server_name': 'dhcp-227-132.cruznetsecure.ucsc.edu', 'bpython': False, 'nogui': False, 'port': 8000, 'extcron': False, 'debuglevel': 30, 'test': None, 'folder': '/Users/excon/Sites/dreamscape', 'config': '', 'import_models': False, 'winservice': '', 'shell': None, 'run': '', 'log_filename': 'httpserver.log', 'args': [''], 'ssl_ca_certificate': None, 'scheduler': None, 'profiler_filename': None, 'ssl_private_key': '', 'password': '<ask>', 'request_queue_size': 5, 'ssl_certificate': '', 'cronjob': False, 'plain': False, 'quiet': False, 'interfaces': None, 'minthreads': None, 'timeout': 10, 'numthreads': None, 'nobanner': False}>"
p730
asbasbasbag56
(g72
g58
NtRp731
(dp732
g61
(dp733
sg70
g636
sg63
(lp734
g56
(g77
g58
NtRp735
(dp736
g61
(dp737
g81
g82
ssg70
g731
sg63
(lp738
S'db_sessions'
p739
asbag56
(g77
g58
NtRp740
(dp741
g61
(dp742
g88
g89
ssg70
g731
sg63
(lp743
S':'
asbag56
(g77
g58
NtRp744
(dp745
g61
(dp746
sg70
g731
sg63
(lp747
g56
(g57
g58
NtRp748
(dp749
g61
(dp750
g69
I4
ssg70
g744
sg63
(lp751
S'set([])'
p752
asbasbasbag56
(g72
g58
NtRp753
(dp754
g61
(dp755
sg70
g636
sg63
(lp756
g56
(g77
g58
NtRp757
(dp758
g61
(dp759
g81
g82
ssg70
g753
sg63
(lp760
S'debugging'
p761
asbag56
(g77
g58
NtRp762
(dp763
g61
(dp764
g88
g89
ssg70
g753
sg63
(lp765
S':'
asbag56
(g77
g58
NtRp766
(dp767
g61
(dp768
sg70
g753
sg63
(lp769
g56
(g57
g58
NtRp770
(dp771
g61
(dp772
g69
I4
ssg70
g766
sg63
(lp773
g99
asbasbasbag56
(g72
g58
NtRp774
(dp775
g61
(dp776
sg70
g636
sg63
(lp777
g56
(g77
g58
NtRp778
(dp779
g61
(dp780
g81
g82
ssg70
g774
sg63
(lp781
S'gluon_parent'
p782
asbag56
(g77
g58
NtRp783
(dp784
g61
(dp785
g88
g89
ssg70
g774
sg63
(lp786
S':'
asbag56
(g77
g58
NtRp787
(dp788
g61
(dp789
sg70
g774
sg63
(lp790
g56
(g57
g58
NtRp791
(dp792
g61
(dp793
g69
I4
ssg70
g787
sg63
(lp794
S'/Users/excon/Sites/dreamscape'
p795
asbasbasbag56
(g72
g58
NtRp796
(dp797
g61
(dp798
sg70
g636
sg63
(lp799
g56
(g77
g58
NtRp800
(dp801
g61
(dp802
g81
g82
ssg70
g796
sg63
(lp803
S'http_accept'
p804
asbag56
(g77
g58
NtRp805
(dp806
g61
(dp807
g88
g89
ssg70
g796
sg63
(lp808
S':'
asbag56
(g77
g58
NtRp809
(dp810
g61
(dp811
sg70
g796
sg63
(lp812
g56
(g57
g58
NtRp813
(dp814
g61
(dp815
g69
I4
ssg70
g809
sg63
(lp816
S'text/html,application/xhtml+xml,application/xml;q=0.9,*/*;q=0.8'
p817
asbasbasbag56
(g72
g58
NtRp818
(dp819
g61
(dp820
sg70
g636
sg63
(lp821
g56
(g77
g58
NtRp822
(dp823
g61
(dp824
g81
g82
ssg70
g818
sg63
(lp825
S'http_accept_charset'
p826
asbag56
(g77
g58
NtRp827
(dp828
g61
(dp829
g88
g89
ssg70
g818
sg63
(lp830
S':'
asbag56
(g77
g58
NtRp831
(dp832
g61
(dp833
sg70
g818
sg63
(lp834
g56
(g57
g58
NtRp835
(dp836
g61
(dp837
g69
I4
ssg70
g831
sg63
(lp838
S'ISO-8859-1,utf-8;q=0.7,*;q=0.7'
p839
asbasbasbag56
(g72
g58
NtRp840
(dp841
g61
(dp842
sg70
g636
sg63
(lp843
g56
(g77
g58
NtRp844
(dp845
g61
(dp846
g81
g82
ssg70
g840
sg63
(lp847
S'http_accept_encoding'
p848
asbag56
(g77
g58
NtRp849
(dp850
g61
(dp851
g88
g89
ssg70
g840
sg63
(lp852
S':'
asbag56
(g77
g58
NtRp853
(dp854
g61
(dp855
sg70
g840
sg63
(lp856
g56
(g57
g58
NtRp857
(dp858
g61
(dp859
g69
I4
ssg70
g853
sg63
(lp860
S'gzip, deflate'
p861
asbasbasbag56
(g72
g58
NtRp862
(dp863
g61
(dp864
sg70
g636
sg63
(lp865
g56
(g77
g58
NtRp866
(dp867
g61
(dp868
g81
g82
ssg70
g862
sg63
(lp869
S'http_accept_language'
p870
asbag56
(g77
g58
NtRp871
(dp872
g61
(dp873
g88
g89
ssg70
g862
sg63
(lp874
S':'
asbag56
(g77
g58
NtRp875
(dp876
g61
(dp877
sg70
g862
sg63
(lp878
g56
(g57
g58
NtRp879
(dp880
g61
(dp881
g69
I4
ssg70
g875
sg63
(lp882
S'en-us,en;q=0.5'
p883
asbasbasbag56
(g72
g58
NtRp884
(dp885
g61
(dp886
sg70
g636
sg63
(lp887
g56
(g77
g58
NtRp888
(dp889
g61
(dp890
g81
g82
ssg70
g884
sg63
(lp891
S'http_connection'
p892
asbag56
(g77
g58
NtRp893
(dp894
g61
(dp895
g88
g89
ssg70
g884
sg63
(lp896
S':'
asbag56
(g77
g58
NtRp897
(dp898
g61
(dp899
sg70
g884
sg63
(lp900
g56
(g57
g58
NtRp901
(dp902
g61
(dp903
g69
I4
ssg70
g897
sg63
(lp904
S'keep-alive'
p905
asbasbasbag56
(g72
g58
NtRp906
(dp907
g61
(dp908
sg70
g636
sg63
(lp909
g56
(g77
g58
NtRp910
(dp911
g61
(dp912
g81
g82
ssg70
g906
sg63
(lp913
S'http_cookie'
p914
asbag56
(g77
g58
NtRp915
(dp916
g61
(dp917
g88
g89
ssg70
g906
sg63
(lp918
S':'
asbag56
(g77
g58
NtRp919
(dp920
g61
(dp921
sg70
g906
sg63
(lp922
g56
(g57
g58
NtRp923
(dp924
g61
(dp925
g69
I4
ssg70
g919
sg63
(lp926
S'session_id_welcome=127.0.0.1-b3033565-2f84-4c89-86aa-d3213cda62fe; session_id_admin=127.0.0.1-993934c6-8c29-41fb-a4cd-680d6a424004'
p927
asbasbasbag56
(g72
g58
NtRp928
(dp929
g61
(dp930
sg70
g636
sg63
(lp931
g56
(g77
g58
NtRp932
(dp933
g61
(dp934
g81
g82
ssg70
g928
sg63
(lp935
S'http_host'
p936
asbag56
(g77
g58
NtRp937
(dp938
g61
(dp939
g88
g89
ssg70
g928
sg63
(lp940
S':'
asbag56
(g77
g58
NtRp941
(dp942
g61
(dp943
sg70
g928
sg63
(lp944
g56
(g57
g58
NtRp945
(dp946
g61
(dp947
g69
I4
ssg70
g941
sg63
(lp948
S'127.0.0.1:8000'
p949
asbasbasbag56
(g72
g58
NtRp950
(dp951
g61
(dp952
sg70
g636
sg63
(lp953
g56
(g77
g58
NtRp954
(dp955
g61
(dp956
g81
g82
ssg70
g950
sg63
(lp957
S'http_user_agent'
p958
asbag56
(g77
g58
NtRp959
(dp960
g61
(dp961
g88
g89
ssg70
g950
sg63
(lp962
S':'
asbag56
(g77
g58
NtRp963
(dp964
g61
(dp965
sg70
g950
sg63
(lp966
g56
(g57
g58
NtRp967
(dp968
g61
(dp969
g69
I4
ssg70
g963
sg63
(lp970
S'Mozilla/5.0 (Macintosh; Intel Mac OS X 10.6; rv:6.0.2) Gecko/20100101 Firefox/6.0.2'
p971
asbasbasbag56
(g72
g58
NtRp972
(dp973
g61
(dp974
sg70
g636
sg63
(lp975
g56
(g77
g58
NtRp976
(dp977
g61
(dp978
g81
g82
ssg70
g972
sg63
(lp979
S'is_jython'
p980
asbag56
(g77
g58
NtRp981
(dp982
g61
(dp983
g88
g89
ssg70
g972
sg63
(lp984
S':'
asbag56
(g77
g58
NtRp985
(dp986
g61
(dp987
sg70
g972
sg63
(lp988
g56
(g57
g58
NtRp989
(dp990
g61
(dp991
g69
I4
ssg70
g985
sg63
(lp992
g99
asbasbasbag56
(g72
g58
NtRp993
(dp994
g61
(dp995
sg70
g636
sg63
(lp996
g56
(g77
g58
NtRp997
(dp998
g61
(dp999
g81
g82
ssg70
g993
sg63
(lp1000
S'path_info'
p1001
asbag56
(g77
g58
NtRp1002
(dp1003
g61
(dp1004
g88
g89
ssg70
g993
sg63
(lp1005
S':'
asbag56
(g77
g58
NtRp1006
(dp1007
g61
(dp1008
sg70
g993
sg63
(lp1009
g56
(g57
g58
NtRp1010
(dp1011
g61
(dp1012
g69
I4
ssg70
g1006
sg63
(lp1013
S'/'
asbasbasbag56
(g72
g58
NtRp1014
(dp1015
g61
(dp1016
sg70
g636
sg63
(lp1017
g56
(g77
g58
NtRp1018
(dp1019
g61
(dp1020
g81
g82
ssg70
g1014
sg63
(lp1021
S'query_string'
p1022
asbag56
(g77
g58
NtRp1023
(dp1024
g61
(dp1025
g88
g89
ssg70
g1014
sg63
(lp1026
S':'
asbag56
(g77
g58
NtRp1027
(dp1028
g61
(dp1029
sg70
g1014
sg63
(lp1030
g56
(g57
g58
NtRp1031
(dp1032
g61
(dp1033
g69
I4
ssg70
g1027
sg63
(lp1034
S''
asbasbasbag56
(g72
g58
NtRp1035
(dp1036
g61
(dp1037
sg70
g636
sg63
(lp1038
g56
(g77
g58
NtRp1039
(dp1040
g61
(dp1041
g81
g82
ssg70
g1035
sg63
(lp1042
S'remote_addr'
p1043
asbag56
(g77
g58
NtRp1044
(dp1045
g61
(dp1046
g88
g89
ssg70
g1035
sg63
(lp1047
S':'
asbag56
(g77
g58
NtRp1048
(dp1049
g61
(dp1050
sg70
g1035
sg63
(lp1051
g56
(g57
g58
NtRp1052
(dp1053
g61
(dp1054
g69
I4
ssg70
g1048
sg63
(lp1055
g189
asbasbasbag56
(g72
g58
NtRp1056
(dp1057
g61
(dp1058
sg70
g636
sg63
(lp1059
g56
(g77
g58
NtRp1060
(dp1061
g61
(dp1062
g81
g82
ssg70
g1056
sg63
(lp1063
S'remote_port'
p1064
asbag56
(g77
g58
NtRp1065
(dp1066
g61
(dp1067
g88
g89
ssg70
g1056
sg63
(lp1068
S':'
asbag56
(g77
g58
NtRp1069
(dp1070
g61
(dp1071
sg70
g1056
sg63
(lp1072
g56
(g57
g58
NtRp1073
(dp1074
g61
(dp1075
g69
I4
ssg70
g1069
sg63
(lp1076
S'51200'
p1077
asbasbasbag56
(g72
g58
NtRp1078
(dp1079
g61
(dp1080
sg70
g636
sg63
(lp1081
g56
(g77
g58
NtRp1082
(dp1083
g61
(dp1084
g81
g82
ssg70
g1078
sg63
(lp1085
S'request_method'
p1086
asbag56
(g77
g58
NtRp1087
(dp1088
g61
(dp1089
g88
g89
ssg70
g1078
sg63
(lp1090
S':'
asbag56
(g77
g58
NtRp1091
(dp1092
g61
(dp1093
sg70
g1078
sg63
(lp1094
g56
(g57
g58
NtRp1095
(dp1096
g61
(dp1097
g69
I4
ssg70
g1091
sg63
(lp1098
S'GET'
p1099
asbasbasbag56
(g72
g58
NtRp1100
(dp1101
g61
(dp1102
sg70
g636
sg63
(lp1103
g56
(g77
g58
NtRp1104
(dp1105
g61
(dp1106
g81
g82
ssg70
g1100
sg63
(lp1107
S'request_uri'
p1108
asbag56
(g77
g58
NtRp1109
(dp1110
g61
(dp1111
g88
g89
ssg70
g1100
sg63
(lp1112
S':'
asbag56
(g77
g58
NtRp1113
(dp1114
g61
(dp1115
sg70
g1100
sg63
(lp1116
g56
(g57
g58
NtRp1117
(dp1118
g61
(dp1119
g69
I4
ssg70
g1113
sg63
(lp1120
S'/welcome/default/index'
p1121
asbasbasbag56
(g72
g58
NtRp1122
(dp1123
g61
(dp1124
sg70
g636
sg63
(lp1125
g56
(g77
g58
NtRp1126
(dp1127
g61
(dp1128
g81
g82
ssg70
g1122
sg63
(lp1129
S'script_name'
p1130
asbag56
(g77
g58
NtRp1131
(dp1132
g61
(dp1133
g88
g89
ssg70
g1122
sg63
(lp1134
S':'
asbag56
(g77
g58
NtRp1135
(dp1136
g61
(dp1137
sg70
g1122
sg63
(lp1138
g56
(g57
g58
NtRp1139
(dp1140
g61
(dp1141
g69
I4
ssg70
g1135
sg63
(lp1142
S''
asbasbasbag56
(g72
g58
NtRp1143
(dp1144
g61
(dp1145
sg70
g636
sg63
(lp1146
g56
(g77
g58
NtRp1147
(dp1148
g61
(dp1149
g81
g82
ssg70
g1143
sg63
(lp1150
S'server_name'
p1151
asbag56
(g77
g58
NtRp1152
(dp1153
g61
(dp1154
g88
g89
ssg70
g1143
sg63
(lp1155
S':'
asbag56
(g77
g58
NtRp1156
(dp1157
g61
(dp1158
sg70
g1143
sg63
(lp1159
g56
(g57
g58
NtRp1160
(dp1161
g61
(dp1162
g69
I4
ssg70
g1156
sg63
(lp1163
S'dhcp-227-132.cruznetsecure.ucsc.edu'
p1164
asbasbasbag56
(g72
g58
NtRp1165
(dp1166
g61
(dp1167
sg70
g636
sg63
(lp1168
g56
(g77
g58
NtRp1169
(dp1170
g61
(dp1171
g81
g82
ssg70
g1165
sg63
(lp1172
S'server_port'
p1173
asbag56
(g77
g58
NtRp1174
(dp1175
g61
(dp1176
g88
g89
ssg70
g1165
sg63
(lp1177
S':'
asbag56
(g77
g58
NtRp1178
(dp1179
g61
(dp1180
sg70
g1165
sg63
(lp1181
g56
(g57
g58
NtRp1182
(dp1183
g61
(dp1184
g69
I4
ssg70
g1178
sg63
(lp1185
S'8000'
p1186
asbasbasbag56
(g72
g58
NtRp1187
(dp1188
g61
(dp1189
sg70
g636
sg63
(lp1190
g56
(g77
g58
NtRp1191
(dp1192
g61
(dp1193
g81
g82
ssg70
g1187
sg63
(lp1194
S'server_protocol'
p1195
asbag56
(g77
g58
NtRp1196
(dp1197
g61
(dp1198
g88
g89
ssg70
g1187
sg63
(lp1199
S':'
asbag56
(g77
g58
NtRp1200
(dp1201
g61
(dp1202
sg70
g1187
sg63
(lp1203
g56
(g57
g58
NtRp1204
(dp1205
g61
(dp1206
g69
I4
ssg70
g1200
sg63
(lp1207
S'HTTP/1.1'
p1208
asbasbasbag56
(g72
g58
NtRp1209
(dp1210
g61
(dp1211
sg70
g636
sg63
(lp1212
g56
(g77
g58
NtRp1213
(dp1214
g61
(dp1215
g81
g82
ssg70
g1209
sg63
(lp1216
S'server_software'
p1217
asbag56
(g77
g58
NtRp1218
(dp1219
g61
(dp1220
g88
g89
ssg70
g1209
sg63
(lp1221
S':'
asbag56
(g77
g58
NtRp1222
(dp1223
g61
(dp1224
sg70
g1209
sg63
(lp1225
g56
(g57
g58
NtRp1226
(dp1227
g61
(dp1228
g69
I4
ssg70
g1222
sg63
(lp1229
S'Rocket 1.2.4'
p1230
asbasbasbag56
(g72
g58
NtRp1231
(dp1232
g61
(dp1233
sg70
g636
sg63
(lp1234
g56
(g77
g58
NtRp1235
(dp1236
g61
(dp1237
g81
g82
ssg70
g1231
sg63
(lp1238
S'web2py_crontype'
p1239
asbag56
(g77
g58
NtRp1240
(dp1241
g61
(dp1242
g88
g89
ssg70
g1231
sg63
(lp1243
S':'
asbag56
(g77
g58
NtRp1244
(dp1245
g61
(dp1246
sg70
g1231
sg63
(lp1247
g56
(g57
g58
NtRp1248
(dp1249
g61
(dp1250
g69
I4
ssg70
g1244
sg63
(lp1251
S'hard'
p1252
asbasbasbag56
(g72
g58
NtRp1253
(dp1254
g61
(dp1255
sg70
g636
sg63
(lp1256
g56
(g77
g58
NtRp1257
(dp1258
g61
(dp1259
g81
g82
ssg70
g1253
sg63
(lp1260
S'web2py_original_uri'
p1261
asbag56
(g77
g58
NtRp1262
(dp1263
g61
(dp1264
g88
g89
ssg70
g1253
sg63
(lp1265
S':'
asbag56
(g77
g58
NtRp1266
(dp1267
g61
(dp1268
sg70
g1253
sg63
(lp1269
g56
(g57
g58
NtRp1270
(dp1271
g61
(dp1272
g69
I4
ssg70
g1266
sg63
(lp1273
S'/'
asbasbasbag56
(g72
g58
NtRp1274
(dp1275
g61
(dp1276
sg70
g636
sg63
(lp1277
g56
(g77
g58
NtRp1278
(dp1279
g61
(dp1280
g81
g82
ssg70
g1274
sg63
(lp1281
S'web2py_path'
p1282
asbag56
(g77
g58
NtRp1283
(dp1284
g61
(dp1285
g88
g89
ssg70
g1274
sg63
(lp1286
S':'
asbag56
(g77
g58
NtRp1287
(dp1288
g61
(dp1289
sg70
g1274
sg63
(lp1290
g56
(g57
g58
NtRp1291
(dp1292
g61
(dp1293
g69
I4
ssg70
g1287
sg63
(lp1294
g683
asbasbasbag56
(g72
g58
NtRp1295
(dp1296
g61
(dp1297
sg70
g636
sg63
(lp1298
g56
(g77
g58
NtRp1299
(dp1300
g61
(dp1301
g81
g82
ssg70
g1295
sg63
(lp1302
S'web2py_version'
p1303
asbag56
(g77
g58
NtRp1304
(dp1305
g61
(dp1306
g88
g89
ssg70
g1295
sg63
(lp1307
S':'
asbag56
(g77
g58
NtRp1308
(dp1309
g61
(dp1310
sg70
g1295
sg63
(lp1311
g56
(g57
g58
NtRp1312
(dp1313
g61
(dp1314
g69
I4
ssg70
g1308
sg63
(lp1315
g56
(g65
g58
NtRp1316
(dp1317
g61
(dp1318
g69
I3
ssg70
Nsg63
(lp1319
g56
(g72
g58
NtRp1320
(dp1321
g61
(dp1322
sg70
g1316
sg63
(lp1323
g56
(g77
g58
NtRp1324
(dp1325
g61
(dp1326
sg70
g1320
sg63
(lp1327
g56
(g57
g58
NtRp1328
(dp1329
g61
(dp1330
g69
I3
ssg70
g1324
sg63
(lp1331
S'1'
asbasbasbag56
(g72
g58
NtRp1332
(dp1333
g61
(dp1334
sg70
g1316
sg63
(lp1335
g56
(g77
g58
NtRp1336
(dp1337
g61
(dp1338
sg70
g1332
sg63
(lp1339
g56
(g57
g58
NtRp1340
(dp1341
g61
(dp1342
g69
I3
ssg70
g1336
sg63
(lp1343
S'99'
p1344
asbasbasbag56
(g72
g58
NtRp1345
(dp1346
g61
(dp1347
sg70
g1316
sg63
(lp1348
g56
(g77
g58
NtRp1349
(dp1350
g61
(dp1351
sg70
g1345
sg63
(lp1352
g56
(g57
g58
NtRp1353
(dp1354
g61
(dp1355
g69
I3
ssg70
g1349
sg63
(lp1356
S'2'
asbasbasbag56
(g72
g58
NtRp1357
(dp1358
g61
(dp1359
sg70
g1316
sg63
(lp1360
g56
(g77
g58
NtRp1361
(dp1362
g61
(dp1363
sg70
g1357
sg63
(lp1364
g56
(g57
g58
NtRp1365
(dp1366
g61
(dp1367
g69
I3
ssg70
g1361
sg63
(lp1368
S'datetime.datetime(2011, 9, 26, 6, 55, 33)'
p1369
asbasbasbag56
(g72
g58
NtRp1370
(dp1371
g61
(dp1372
sg70
g1316
sg63
(lp1373
g56
(g77
g58
NtRp1374
(dp1375
g61
(dp1376
sg70
g1370
sg63
(lp1377
g56
(g57
g58
NtRp1378
(dp1379
g61
(dp1380
g69
I3
ssg70
g1374
sg63
(lp1381
S'stable'
p1382
asbasbasbasbasbasbasbag56
(g72
g58
NtRp1383
(dp1384
g61
(dp1385
sg70
g636
sg63
(lp1386
g56
(g77
g58
NtRp1387
(dp1388
g61
(dp1389
g81
g82
ssg70
g1383
sg63
(lp1390
S'wsgi_errors'
p1391
asbag56
(g77
g58
NtRp1392
(dp1393
g61
(dp1394
g88
g89
ssg70
g1383
sg63
(lp1395
S':'
asbag56
(g77
g58
NtRp1396
(dp1397
g61
(dp1398
sg70
g1383
sg63
(lp1399
g56
(g57
g58
NtRp1400
(dp1401
g61
(dp1402
g69
I4
ssg70
g1396
sg63
(lp1403
S"<open file '<stderr>', mode 'w' at 0x100416140>"
p1404
asbasbasbag56
(g72
g58
NtRp1405
(dp1406
g61
(dp1407
sg70
g636
sg63
(lp1408
g56
(g77
g58
NtRp1409
(dp1410
g61
(dp1411
g81
g82
ssg70
g1405
sg63
(lp1412
S'wsgi_file_wrapper'
p1413
asbag56
(g77
g58
NtRp1414
(dp1415
g61
(dp1416
g88
g89
ssg70
g1405
sg63
(lp1417
S':'
asbag56
(g77
g58
NtRp1418
(dp1419
g61
(dp1420
sg70
g1405
sg63
(lp1421
g56
(g57
g58
NtRp1422
(dp1423
g61
(dp1424
g69
I4
ssg70
g1418
sg63
(lp1425
S'<class wsgiref.util.FileWrapper at 0x1014a2bf0>'
p1426
asbasbasbag56
(g72
g58
NtRp1427
(dp1428
g61
(dp1429
sg70
g636
sg63
(lp1430
g56
(g77
g58
NtRp1431
(dp1432
g61
(dp1433
g81
g82
ssg70
g1427
sg63
(lp1434
S'wsgi_input'
p1435
asbag56
(g77
g58
NtRp1436
(dp1437
g61
(dp1438
g88
g89
ssg70
g1427
sg63
(lp1439
S':'
asbag56
(g77
g58
NtRp1440
(dp1441
g61
(dp1442
sg70
g1427
sg63
(lp1443
g56
(g57
g58
NtRp1444
(dp1445
g61
(dp1446
g69
I4
ssg70
g1440
sg63
(lp1447
S'<socket._fileobject object at 0x1007766e0>'
p1448
asbasbasbag56
(g72
g58
NtRp1449
(dp1450
g61
(dp1451
sg70
g636
sg63
(lp1452
g56
(g77
g58
NtRp1453
(dp1454
g61
(dp1455
g81
g82
ssg70
g1449
sg63
(lp1456
S'wsgi_multiprocess'
p1457
asbag56
(g77
g58
NtRp1458
(dp1459
g61
(dp1460
g88
g89
ssg70
g1449
sg63
(lp1461
S':'
asbag56
(g77
g58
NtRp1462
(dp1463
g61
(dp1464
sg70
g1449
sg63
(lp1465
g56
(g57
g58
NtRp1466
(dp1467
g61
(dp1468
g69
I4
ssg70
g1462
sg63
(lp1469
g99
asbasbasbag56
(g72
g58
NtRp1470
(dp1471
g61
(dp1472
sg70
g636
sg63
(lp1473
g56
(g77
g58
NtRp1474
(dp1475
g61
(dp1476
g81
g82
ssg70
g1470
sg63
(lp1477
S'wsgi_multithread'
p1478
asbag56
(g77
g58
NtRp1479
(dp1480
g61
(dp1481
g88
g89
ssg70
g1470
sg63
(lp1482
S':'
asbag56
(g77
g58
NtRp1483
(dp1484
g61
(dp1485
sg70
g1470
sg63
(lp1486
g56
(g57
g58
NtRp1487
(dp1488
g61
(dp1489
g69
I4
ssg70
g1483
sg63
(lp1490
S'True'
p1491
asbasbasbag56
(g72
g58
NtRp1492
(dp1493
g61
(dp1494
sg70
g636
sg63
(lp1495
g56
(g77
g58
NtRp1496
(dp1497
g61
(dp1498
g81
g82
ssg70
g1492
sg63
(lp1499
S'wsgi_run_once'
p1500
asbag56
(g77
g58
NtRp1501
(dp1502
g61
(dp1503
g88
g89
ssg70
g1492
sg63
(lp1504
S':'
asbag56
(g77
g58
NtRp1505
(dp1506
g61
(dp1507
sg70
g1492
sg63
(lp1508
g56
(g57
g58
NtRp1509
(dp1510
g61
(dp1511
g69
I4
ssg70
g1505
sg63
(lp1512
g99
asbasbasbag56
(g72
g58
NtRp1513
(dp1514
g61
(dp1515
sg70
g636
sg63
(lp1516
g56
(g77
g58
NtRp1517
(dp1518
g61
(dp1519
g81
g82
ssg70
g1513
sg63
(lp1520
S'wsgi_url_scheme'
p1521
asbag56
(g77
g58
NtRp1522
(dp1523
g61
(dp1524
g88
g89
ssg70
g1513
sg63
(lp1525
S':'
asbag56
(g77
g58
NtRp1526
(dp1527
g61
(dp1528
sg70
g1513
sg63
(lp1529
g56
(g57
g58
NtRp1530
(dp1531
g61
(dp1532
g69
I4
ssg70
g1526
sg63
(lp1533
S'http'
p1534
asbasbasbag56
(g72
g58
NtRp1535
(dp1536
g61
(dp1537
sg70
g636
sg63
(lp1538
g56
(g77
g58
NtRp1539
(dp1540
g61
(dp1541
g81
g82
ssg70
g1535
sg63
(lp1542
S'wsgi_version'
p1543
asbag56
(g77
g58
NtRp1544
(dp1545
g61
(dp1546
g88
g89
ssg70
g1535
sg63
(lp1547
S':'
asbag56
(g77
g58
NtRp1548
(dp1549
g61
(dp1550
sg70
g1535
sg63
(lp1551
g56
(g57
g58
NtRp1552
(dp1553
g61
(dp1554
g69
I4
ssg70
g1548
sg63
(lp1555
g56
(g65
g58
NtRp1556
(dp1557
g61
(dp1558
g69
I3
ssg70
Nsg63
(lp1559
g56
(g72
g58
NtRp1560
(dp1561
g61
(dp1562
sg70
g1556
sg63
(lp1563
g56
(g77
g58
NtRp1564
(dp1565
g61
(dp1566
sg70
g1560
sg63
(lp1567
g56
(g57
g58
NtRp1568
(dp1569
g61
(dp1570
g69
I3
ssg70
g1564
sg63
(lp1571
S'1'
asbasbasbag56
(g72
g58
NtRp1572
(dp1573
g61
(dp1574
sg70
g1556
sg63
(lp1575
g56
(g77
g58
NtRp1576
(dp1577
g61
(dp1578
sg70
g1572
sg63
(lp1579
g56
(g57
g58
NtRp1580
(dp1581
g61
(dp1582
g69
I3
ssg70
g1576
sg63
(lp1583
S'0'
asbasbasbasbasbasbasbasbasbasbasbag56
(g72
g58
NtRp1584
(dp1585
g61
(dp1586
sg70
g66
sg63
(lp1587
g56
(g77
g58
NtRp1588
(dp1589
g61
(dp1590
g81
g82
ssg70
g1584
sg63
(lp1591
S'extension'
p1592
asbag56
(g77
g58
NtRp1593
(dp1594
g61
(dp1595
g88
g89
ssg70
g1584
sg63
(lp1596
S':'
asbag56
(g77
g58
NtRp1597
(dp1598
g61
(dp1599
sg70
g1584
sg63
(lp1600
g56
(g57
g58
NtRp1601
(dp1602
g61
(dp1603
g69
I5
ssg70
g1597
sg63
(lp1604
S'html'
p1605
asbasbasbag56
(g72
g58
NtRp1606
(dp1607
g61
(dp1608
sg70
g66
sg63
(lp1609
g56
(g77
g58
NtRp1610
(dp1611
g61
(dp1612
g81
g82
ssg70
g1606
sg63
(lp1613
S'folder'
p1614
asbag56
(g77
g58
NtRp1615
(dp1616
g61
(dp1617
g88
g89
ssg70
g1606
sg63
(lp1618
S':'
asbag56
(g77
g58
NtRp1619
(dp1620
g61
(dp1621
sg70
g1606
sg63
(lp1622
g56
(g57
g58
NtRp1623
(dp1624
g61
(dp1625
g69
I5
ssg70
g1619
sg63
(lp1626
S'/Users/excon/Sites/dreamscape/applications/welcome/'
p1627
asbasbasbag56
(g72
g58
NtRp1628
(dp1629
g61
(dp1630
sg70
g66
sg63
(lp1631
g56
(g77
g58
NtRp1632
(dp1633
g61
(dp1634
g81
g82
ssg70
g1628
sg63
(lp1635
S'function'
p1636
asbag56
(g77
g58
NtRp1637
(dp1638
g61
(dp1639
g88
g89
ssg70
g1628
sg63
(lp1640
S':'
asbag56
(g77
g58
NtRp1641
(dp1642
g61
(dp1643
sg70
g1628
sg63
(lp1644
g56
(g57
g58
NtRp1645
(dp1646
g61
(dp1647
g69
I5
ssg70
g1641
sg63
(lp1648
S'index'
p1649
asbasbasbag56
(g72
g58
NtRp1650
(dp1651
g61
(dp1652
sg70
g66
sg63
(lp1653
g56
(g77
g58
NtRp1654
(dp1655
g61
(dp1656
g81
g82
ssg70
g1650
sg63
(lp1657
S'get_vars'
p1658
asbag56
(g77
g58
NtRp1659
(dp1660
g61
(dp1661
g88
g89
ssg70
g1650
sg63
(lp1662
S':'
asbag56
(g77
g58
NtRp1663
(dp1664
g61
(dp1665
sg70
g1650
sg63
(lp1666
g56
(g57
g58
NtRp1667
(dp1668
g61
(dp1669
g69
I5
ssg70
g1663
sg63
(lp1670
g56
(g65
g58
NtRp1671
(dp1672
g61
(dp1673
g69
I4
ssg70
Nsg63
(lp1674
sbasbasbasbag56
(g72
g58
NtRp1675
(dp1676
g61
(dp1677
sg70
g66
sg63
(lp1678
g56
(g77
g58
NtRp1679
(dp1680
g61
(dp1681
g81
g82
ssg70
g1675
sg63
(lp1682
S'global_settings'
p1683
asbag56
(g77
g58
NtRp1684
(dp1685
g61
(dp1686
g88
g89
ssg70
g1675
sg63
(lp1687
S':'
asbag56
(g77
g58
NtRp1688
(dp1689
g61
(dp1690
sg70
g1675
sg63
(lp1691
g56
(g57
g58
NtRp1692
(dp1693
g61
(dp1694
g69
I5
ssg70
g1688
sg63
(lp1695
g56
(g65
g58
NtRp1696
(dp1697
g61
(dp1698
g69
I4
ssg70
Nsg63
(lp1699
g56
(g72
g58
NtRp1700
(dp1701
g61
(dp1702
sg70
g1696
sg63
(lp1703
g56
(g77
g58
NtRp1704
(dp1705
g61
(dp1706
g81
g82
ssg70
g1700
sg63
(lp1707
g648
asbag56
(g77
g58
NtRp1708
(dp1709
g61
(dp1710
g88
g89
ssg70
g1700
sg63
(lp1711
S':'
asbag56
(g77
g58
NtRp1712
(dp1713
g61
(dp1714
sg70
g1700
sg63
(lp1715
g56
(g57
g58
NtRp1716
(dp1717
g61
(dp1718
g69
I4
ssg70
g1712
sg63
(lp1719
S"set(['/Users/excon/Sites/dreamscape/applications/welcome/'])"
p1720
asbasbasbag56
(g72
g58
NtRp1721
(dp1722
g61
(dp1723
sg70
g1696
sg63
(lp1724
g56
(g77
g58
NtRp1725
(dp1726
g61
(dp1727
g81
g82
ssg70
g1721
sg63
(lp1728
g670
asbag56
(g77
g58
NtRp1729
(dp1730
g61
(dp1731
g88
g89
ssg70
g1721
sg63
(lp1732
S':'
asbag56
(g77
g58
NtRp1733
(dp1734
g61
(dp1735
sg70
g1721
sg63
(lp1736
g56
(g57
g58
NtRp1737
(dp1738
g61
(dp1739
g69
I4
ssg70
g1733
sg63
(lp1740
g683
asbasbasbag56
(g72
g58
NtRp1741
(dp1742
g61
(dp1743
sg70
g1696
sg63
(lp1744
g56
(g77
g58
NtRp1745
(dp1746
g61
(dp1747
g81
g82
ssg70
g1741
sg63
(lp1748
g692
asbag56
(g77
g58
NtRp1749
(dp1750
g61
(dp1751
g88
g89
ssg70
g1741
sg63
(lp1752
S':'
asbag56
(g77
g58
NtRp1753
(dp1754
g61
(dp1755
sg70
g1741
sg63
(lp1756
g56
(g57
g58
NtRp1757
(dp1758
g61
(dp1759
g69
I4
ssg70
g1753
sg63
(lp1760
g56
(g65
g58
NtRp1761
(dp1762
g61
(dp1763
g69
I3
ssg70
Nsg63
(lp1764
sbasbasbasbag56
(g72
g58
NtRp1765
(dp1766
g61
(dp1767
sg70
g1696
sg63
(lp1768
g56
(g77
g58
NtRp1769
(dp1770
g61
(dp1771
g81
g82
ssg70
g1765
sg63
(lp1772
g717
asbag56
(g77
g58
NtRp1773
(dp1774
g61
(dp1775
g88
g89
ssg70
g1765
sg63
(lp1776
S':'
asbag56
(g77
g58
NtRp1777
(dp1778
g61
(dp1779
sg70
g1765
sg63
(lp1780
g56
(g57
g58
NtRp1781
(dp1782
g61
(dp1783
g69
I4
ssg70
g1777
sg63
(lp1784
S"<Values at 0x101c68170: {'verbose': False, 'ip': '127.0.0.1', 'shutdown_timeout': 5, 'taskbar': False, 'nocron': False, 'pid_filename': 'httpserver.pid', 'maxthreads': None, 'softcron': False, 'server_name': 'dhcp-227-132.cruznetsecure.ucsc.edu', 'bpython': False, 'nogui': False, 'port': 8000, 'extcron': False, 'debuglevel': 30, 'test': None, 'folder': '/Users/excon/Sites/dreamscape', 'config': '', 'import_models': False, 'winservice': '', 'shell': None, 'run': '', 'log_filename': 'httpserver.log', 'args': [''], 'ssl_ca_certificate': None, 'scheduler': None, 'profiler_filename': None, 'ssl_private_key': '', 'password': '<ask>', 'request_queue_size': 5, 'ssl_certificate': '', 'cronjob': False, 'plain': False, 'quiet': False, 'interfaces': None, 'minthreads': None, 'timeout': 10, 'numthreads': None, 'nobanner': False}>"
p1785
asbasbasbag56
(g72
g58
NtRp1786
(dp1787
g61
(dp1788
sg70
g1696
sg63
(lp1789
g56
(g77
g58
NtRp1790
(dp1791
g61
(dp1792
g81
g82
ssg70
g1786
sg63
(lp1793
g739
asbag56
(g77
g58
NtRp1794
(dp1795
g61
(dp1796
g88
g89
ssg70
g1786
sg63
(lp1797
S':'
asbag56
(g77
g58
NtRp1798
(dp1799
g61
(dp1800
sg70
g1786
sg63
(lp1801
g56
(g57
g58
NtRp1802
(dp1803
g61
(dp1804
g69
I4
ssg70
g1798
sg63
(lp1805
S'set([])'
p1806
asbasbasbag56
(g72
g58
NtRp1807
(dp1808
g61
(dp1809
sg70
g1696
sg63
(lp1810
g56
(g77
g58
NtRp1811
(dp1812
g61
(dp1813
g81
g82
ssg70
g1807
sg63
(lp1814
g761
asbag56
(g77
g58
NtRp1815
(dp1816
g61
(dp1817
g88
g89
ssg70
g1807
sg63
(lp1818
S':'
asbag56
(g77
g58
NtRp1819
(dp1820
g61
(dp1821
sg70
g1807
sg63
(lp1822
g56
(g57
g58
NtRp1823
(dp1824
g61
(dp1825
g69
I4
ssg70
g1819
sg63
(lp1826
g99
asbasbasbag56
(g72
g58
NtRp1827
(dp1828
g61
(dp1829
sg70
g1696
sg63
(lp1830
g56
(g77
g58
NtRp1831
(dp1832
g61
(dp1833
g81
g82
ssg70
g1827
sg63
(lp1834
g782
asbag56
(g77
g58
NtRp1835
(dp1836
g61
(dp1837
g88
g89
ssg70
g1827
sg63
(lp1838
S':'
asbag56
(g77
g58
NtRp1839
(dp1840
g61
(dp1841
sg70
g1827
sg63
(lp1842
g56
(g57
g58
NtRp1843
(dp1844
g61
(dp1845
g69
I4
ssg70
g1839
sg63
(lp1846
g795
asbasbasbag56
(g72
g58
NtRp1847
(dp1848
g61
(dp1849
sg70
g1696
sg63
(lp1850
g56
(g77
g58
NtRp1851
(dp1852
g61
(dp1853
g81
g82
ssg70
g1847
sg63
(lp1854
g980
asbag56
(g77
g58
NtRp1855
(dp1856
g61
(dp1857
g88
g89
ssg70
g1847
sg63
(lp1858
S':'
asbag56
(g77
g58
NtRp1859
(dp1860
g61
(dp1861
sg70
g1847
sg63
(lp1862
g56
(g57
g58
NtRp1863
(dp1864
g61
(dp1865
g69
I4
ssg70
g1859
sg63
(lp1866
g99
asbasbasbag56
(g72
g58
NtRp1867
(dp1868
g61
(dp1869
sg70
g1696
sg63
(lp1870
g56
(g77
g58
NtRp1871
(dp1872
g61
(dp1873
g81
g82
ssg70
g1867
sg63
(lp1874
g1239
asbag56
(g77
g58
NtRp1875
(dp1876
g61
(dp1877
g88
g89
ssg70
g1867
sg63
(lp1878
S':'
asbag56
(g77
g58
NtRp1879
(dp1880
g61
(dp1881
sg70
g1867
sg63
(lp1882
g56
(g57
g58
NtRp1883
(dp1884
g61
(dp1885
g69
I4
ssg70
g1879
sg63
(lp1886
g1252
asbasbasbag56
(g72
g58
NtRp1887
(dp1888
g61
(dp1889
sg70
g1696
sg63
(lp1890
g56
(g77
g58
NtRp1891
(dp1892
g61
(dp1893
g81
g82
ssg70
g1887
sg63
(lp1894
g1303
asbag56
(g77
g58
NtRp1895
(dp1896
g61
(dp1897
g88
g89
ssg70
g1887
sg63
(lp1898
S':'
asbag56
(g77
g58
NtRp1899
(dp1900
g61
(dp1901
sg70
g1887
sg63
(lp1902
g56
(g57
g58
NtRp1903
(dp1904
g61
(dp1905
g69
I4
ssg70
g1899
sg63
(lp1906
g56
(g65
g58
NtRp1907
(dp1908
g61
(dp1909
g69
I3
ssg70
Nsg63
(lp1910
g56
(g72
g58
NtRp1911
(dp1912
g61
(dp1913
sg70
g1907
sg63
(lp1914
g56
(g77
g58
NtRp1915
(dp1916
g61
(dp1917
sg70
g1911
sg63
(lp1918
g56
(g57
g58
NtRp1919
(dp1920
g61
(dp1921
g69
I3
ssg70
g1915
sg63
(lp1922
S'1'
asbasbasbag56
(g72
g58
NtRp1923
(dp1924
g61
(dp1925
sg70
g1907
sg63
(lp1926
g56
(g77
g58
NtRp1927
(dp1928
g61
(dp1929
sg70
g1923
sg63
(lp1930
g56
(g57
g58
NtRp1931
(dp1932
g61
(dp1933
g69
I3
ssg70
g1927
sg63
(lp1934
S'99'
p1935
asbasbasbag56
(g72
g58
NtRp1936
(dp1937
g61
(dp1938
sg70
g1907
sg63
(lp1939
g56
(g77
g58
NtRp1940
(dp1941
g61
(dp1942
sg70
g1936
sg63
(lp1943
g56
(g57
g58
NtRp1944
(dp1945
g61
(dp1946
g69
I3
ssg70
g1940
sg63
(lp1947
S'2'
asbasbasbag56
(g72
g58
NtRp1948
(dp1949
g61
(dp1950
sg70
g1907
sg63
(lp1951
g56
(g77
g58
NtRp1952
(dp1953
g61
(dp1954
sg70
g1948
sg63
(lp1955
g56
(g57
g58
NtRp1956
(dp1957
g61
(dp1958
g69
I3
ssg70
g1952
sg63
(lp1959
S'datetime.datetime(2011, 9, 26, 6, 55, 33)'
p1960
asbasbasbag56
(g72
g58
NtRp1961
(dp1962
g61
(dp1963
sg70
g1907
sg63
(lp1964
g56
(g77
g58
NtRp1965
(dp1966
g61
(dp1967
sg70
g1961
sg63
(lp1968
g56
(g57
g58
NtRp1969
(dp1970
g61
(dp1971
g69
I3
ssg70
g1965
sg63
(lp1972
g1382
asbasbasbasbasbasbasbasbasbasbasbag56
(g72
g58
NtRp1973
(dp1974
g61
(dp1975
sg70
g66
sg63
(lp1976
g56
(g77
g58
NtRp1977
(dp1978
g61
(dp1979
g81
g82
ssg70
g1973
sg63
(lp1980
S'is_https'
p1981
asbag56
(g77
g58
NtRp1982
(dp1983
g61
(dp1984
g88
g89
ssg70
g1973
sg63
(lp1985
S':'
asbag56
(g77
g58
NtRp1986
(dp1987
g61
(dp1988
sg70
g1973
sg63
(lp1989
g56
(g57
g58
NtRp1990
(dp1991
g61
(dp1992
g69
I5
ssg70
g1986
sg63
(lp1993
g99
asbasbasbag56
(g72
g58
NtRp1994
(dp1995
g61
(dp1996
sg70
g66
sg63
(lp1997
g56
(g77
g58
NtRp1998
(dp1999
g61
(dp2000
g81
g82
ssg70
g1994
sg63
(lp2001
S'is_local'
p2002
asbag56
(g77
g58
NtRp2003
(dp2004
g61
(dp2005
g88
g89
ssg70
g1994
sg63
(lp2006
S':'
asbag56
(g77
g58
NtRp2007
(dp2008
g61
(dp2009
sg70
g1994
sg63
(lp2010
g56
(g57
g58
NtRp2011
(dp2012
g61
(dp2013
g69
I5
ssg70
g2007
sg63
(lp2014
g1491
asbasbasbag56
(g72
g58
NtRp2015
(dp2016
g61
(dp2017
sg70
g66
sg63
(lp2018
g56
(g77
g58
NtRp2019
(dp2020
g61
(dp2021
g81
g82
ssg70
g2015
sg63
(lp2022
S'is_restful'
p2023
asbag56
(g77
g58
NtRp2024
(dp2025
g61
(dp2026
g88
g89
ssg70
g2015
sg63
(lp2027
S':'
asbag56
(g77
g58
NtRp2028
(dp2029
g61
(dp2030
sg70
g2015
sg63
(lp2031
g56
(g57
g58
NtRp2032
(dp2033
g61
(dp2034
g69
I5
ssg70
g2028
sg63
(lp2035
g99
asbasbasbag56
(g72
g58
NtRp2036
(dp2037
g61
(dp2038
sg70
g66
sg63
(lp2039
g56
(g77
g58
NtRp2040
(dp2041
g61
(dp2042
g81
g82
ssg70
g2036
sg63
(lp2043
S'now'
p2044
asbag56
(g77
g58
NtRp2045
(dp2046
g61
(dp2047
g88
g89
ssg70
g2036
sg63
(lp2048
S':'
asbag56
(g77
g58
NtRp2049
(dp2050
g61
(dp2051
sg70
g2036
sg63
(lp2052
g56
(g57
g58
NtRp2053
(dp2054
g61
(dp2055
g69
I5
ssg70
g2049
sg63
(lp2056
S'datetime.datetime(2011, 9, 29, 13, 20, 35, 819821)'
p2057
asbasbasbag56
(g72
g58
NtRp2058
(dp2059
g61
(dp2060
sg70
g66
sg63
(lp2061
g56
(g77
g58
NtRp2062
(dp2063
g61
(dp2064
g81
g82
ssg70
g2058
sg63
(lp2065
S'post_vars'
p2066
asbag56
(g77
g58
NtRp2067
(dp2068
g61
(dp2069
g88
g89
ssg70
g2058
sg63
(lp2070
S':'
asbag56
(g77
g58
NtRp2071
(dp2072
g61
(dp2073
sg70
g2058
sg63
(lp2074
g56
(g57
g58
NtRp2075
(dp2076
g61
(dp2077
g69
I5
ssg70
g2071
sg63
(lp2078
g56
(g65
g58
NtRp2079
(dp2080
g61
(dp2081
g69
I4
ssg70
Nsg63
(lp2082
sbasbasbasbag56
(g72
g58
NtRp2083
(dp2084
g61
(dp2085
sg70
g66
sg63
(lp2086
g56
(g77
g58
NtRp2087
(dp2088
g61
(dp2089
g81
g82
ssg70
g2083
sg63
(lp2090
S'url'
p2091
asbag56
(g77
g58
NtRp2092
(dp2093
g61
(dp2094
g88
g89
ssg70
g2083
sg63
(lp2095
S':'
asbag56
(g77
g58
NtRp2096
(dp2097
g61
(dp2098
sg70
g2083
sg63
(lp2099
g56
(g57
g58
NtRp2100
(dp2101
g61
(dp2102
g69
I5
ssg70
g2096
sg63
(lp2103
S'/'
asbasbasbag56
(g72
g58
NtRp2104
(dp2105
g61
(dp2106
sg70
g66
sg63
(lp2107
g56
(g77
g58
NtRp2108
(dp2109
g61
(dp2110
g81
g82
ssg70
g2104
sg63
(lp2111
S'utcnow'
p2112
asbag56
(g77
g58
NtRp2113
(dp2114
g61
(dp2115
g88
g89
ssg70
g2104
sg63
(lp2116
S':'
asbag56
(g77
g58
NtRp2117
(dp2118
g61
(dp2119
sg70
g2104
sg63
(lp2120
g56
(g57
g58
NtRp2121
(dp2122
g61
(dp2123
g69
I5
ssg70
g2117
sg63
(lp2124
S'datetime.datetime(2011, 9, 29, 20, 20, 35, 819836)'
p2125
asbasbasbag56
(g72
g58
NtRp2126
(dp2127
g61
(dp2128
sg70
g66
sg63
(lp2129
g56
(g77
g58
NtRp2130
(dp2131
g61
(dp2132
g81
g82
ssg70
g2126
sg63
(lp2133
S'uuid'
p2134
asbag56
(g77
g58
NtRp2135
(dp2136
g61
(dp2137
g88
g89
ssg70
g2126
sg63
(lp2138
S':'
asbag56
(g77
g58
NtRp2139
(dp2140
g61
(dp2141
sg70
g2126
sg63
(lp2142
g56
(g57
g58
NtRp2143
(dp2144
g61
(dp2145
g69
I5
ssg70
g2139
sg63
(lp2146
S'welcome/127.0.0.1.2011-09-29.13-20-35.437f17ac-8fe7-4a70-9968-f98b90cf2986'
p2147
asbasbasbag56
(g72
g58
NtRp2148
(dp2149
g61
(dp2150
sg70
g66
sg63
(lp2151
g56
(g77
g58
NtRp2152
(dp2153
g61
(dp2154
g81
g82
ssg70
g2148
sg63
(lp2155
S'vars'
p2156
asbag56
(g77
g58
NtRp2157
(dp2158
g61
(dp2159
g88
g89
ssg70
g2148
sg63
(lp2160
S':'
asbag56
(g77
g58
NtRp2161
(dp2162
g61
(dp2163
sg70
g2148
sg63
(lp2164
g56
(g57
g58
NtRp2165
(dp2166
g61
(dp2167
g69
I5
ssg70
g2161
sg63
(lp2168
g56
(g65
g58
NtRp2169
(dp2170
g61
(dp2171
g69
I4
ssg70
Nsg63
(lp2172
sbasbasbasbag56
(g72
g58
NtRp2173
(dp2174
g61
(dp2175
sg70
g66
sg63
(lp2176
g56
(g77
g58
NtRp2177
(dp2178
g61
(dp2179
g81
g82
ssg70
g2173
sg63
(lp2180
S'wsgi'
p2181
asbag56
(g77
g58
NtRp2182
(dp2183
g61
(dp2184
g88
g89
ssg70
g2173
sg63
(lp2185
S':'
asbag56
(g77
g58
NtRp2186
(dp2187
g61
(dp2188
sg70
g2173
sg63
(lp2189
g56
(g57
g58
NtRp2190
(dp2191
g61
(dp2192
g69
I5
ssg70
g2186
sg63
(lp2193
g56
(g65
g58
NtRp2194
(dp2195
g61
(dp2196
g69
I4
ssg70
Nsg63
(lp2197
g56
(g72
g58
NtRp2198
(dp2199
g61
(dp2200
sg70
g2194
sg63
(lp2201
g56
(g77
g58
NtRp2202
(dp2203
g61
(dp2204
g81
g82
ssg70
g2198
sg63
(lp2205
S'environ'
p2206
asbag56
(g77
g58
NtRp2207
(dp2208
g61
(dp2209
g88
g89
ssg70
g2198
sg63
(lp2210
S':'
asbag56
(g77
g58
NtRp2211
(dp2212
g61
(dp2213
sg70
g2198
sg63
(lp2214
g56
(g57
g58
NtRp2215
(dp2216
g61
(dp2217
g69
I4
ssg70
g2211
sg63
(lp2218
g56
(g65
g58
NtRp2219
(dp2220
g61
(dp2221
g69
I3
ssg70
Nsg63
(lp2222
g56
(g72
g58
NtRp2223
(dp2224
g61
(dp2225
sg70
g2219
sg63
(lp2226
g56
(g77
g58
NtRp2227
(dp2228
g61
(dp2229
g81
g82
ssg70
g2223
sg63
(lp2230
S'HTTP_ACCEPT'
p2231
asbag56
(g77
g58
NtRp2232
(dp2233
g61
(dp2234
g88
g89
ssg70
g2223
sg63
(lp2235
S':'
asbag56
(g77
g58
NtRp2236
(dp2237
g61
(dp2238
sg70
g2223
sg63
(lp2239
g56
(g57
g58
NtRp2240
(dp2241
g61
(dp2242
g69
I3
ssg70
g2236
sg63
(lp2243
g817
asbasbasbag56
(g72
g58
NtRp2244
(dp2245
g61
(dp2246
sg70
g2219
sg63
(lp2247
g56
(g77
g58
NtRp2248
(dp2249
g61
(dp2250
g81
g82
ssg70
g2244
sg63
(lp2251
S'HTTP_ACCEPT_CHARSET'
p2252
asbag56
(g77
g58
NtRp2253
(dp2254
g61
(dp2255
g88
g89
ssg70
g2244
sg63
(lp2256
S':'
asbag56
(g77
g58
NtRp2257
(dp2258
g61
(dp2259
sg70
g2244
sg63
(lp2260
g56
(g57
g58
NtRp2261
(dp2262
g61
(dp2263
g69
I3
ssg70
g2257
sg63
(lp2264
g839
asbasbasbag56
(g72
g58
NtRp2265
(dp2266
g61
(dp2267
sg70
g2219
sg63
(lp2268
g56
(g77
g58
NtRp2269
(dp2270
g61
(dp2271
g81
g82
ssg70
g2265
sg63
(lp2272
S'HTTP_ACCEPT_ENCODING'
p2273
asbag56
(g77
g58
NtRp2274
(dp2275
g61
(dp2276
g88
g89
ssg70
g2265
sg63
(lp2277
S':'
asbag56
(g77
g58
NtRp2278
(dp2279
g61
(dp2280
sg70
g2265
sg63
(lp2281
g56
(g57
g58
NtRp2282
(dp2283
g61
(dp2284
g69
I3
ssg70
g2278
sg63
(lp2285
g861
asbasbasbag56
(g72
g58
NtRp2286
(dp2287
g61
(dp2288
sg70
g2219
sg63
(lp2289
g56
(g77
g58
NtRp2290
(dp2291
g61
(dp2292
g81
g82
ssg70
g2286
sg63
(lp2293
S'HTTP_ACCEPT_LANGUAGE'
p2294
asbag56
(g77
g58
NtRp2295
(dp2296
g61
(dp2297
g88
g89
ssg70
g2286
sg63
(lp2298
S':'
asbag56
(g77
g58
NtRp2299
(dp2300
g61
(dp2301
sg70
g2286
sg63
(lp2302
g56
(g57
g58
NtRp2303
(dp2304
g61
(dp2305
g69
I3
ssg70
g2299
sg63
(lp2306
g883
asbasbasbag56
(g72
g58
NtRp2307
(dp2308
g61
(dp2309
sg70
g2219
sg63
(lp2310
g56
(g77
g58
NtRp2311
(dp2312
g61
(dp2313
g81
g82
ssg70
g2307
sg63
(lp2314
S'HTTP_CONNECTION'
p2315
asbag56
(g77
g58
NtRp2316
(dp2317
g61
(dp2318
g88
g89
ssg70
g2307
sg63
(lp2319
S':'
asbag56
(g77
g58
NtRp2320
(dp2321
g61
(dp2322
sg70
g2307
sg63
(lp2323
g56
(g57
g58
NtRp2324
(dp2325
g61
(dp2326
g69
I3
ssg70
g2320
sg63
(lp2327
g905
asbasbasbag56
(g72
g58
NtRp2328
(dp2329
g61
(dp2330
sg70
g2219
sg63
(lp2331
g56
(g77
g58
NtRp2332
(dp2333
g61
(dp2334
g81
g82
ssg70
g2328
sg63
(lp2335
S'HTTP_COOKIE'
p2336
asbag56
(g77
g58
NtRp2337
(dp2338
g61
(dp2339
g88
g89
ssg70
g2328
sg63
(lp2340
S':'
asbag56
(g77
g58
NtRp2341
(dp2342
g61
(dp2343
sg70
g2328
sg63
(lp2344
g56
(g57
g58
NtRp2345
(dp2346
g61
(dp2347
g69
I3
ssg70
g2341
sg63
(lp2348
g927
asbasbasbag56
(g72
g58
NtRp2349
(dp2350
g61
(dp2351
sg70
g2219
sg63
(lp2352
g56
(g77
g58
NtRp2353
(dp2354
g61
(dp2355
g81
g82
ssg70
g2349
sg63
(lp2356
S'HTTP_HOST'
p2357
asbag56
(g77
g58
NtRp2358
(dp2359
g61
(dp2360
g88
g89
ssg70
g2349
sg63
(lp2361
S':'
asbag56
(g77
g58
NtRp2362
(dp2363
g61
(dp2364
sg70
g2349
sg63
(lp2365
g56
(g57
g58
NtRp2366
(dp2367
g61
(dp2368
g69
I3
ssg70
g2362
sg63
(lp2369
g949
asbasbasbag56
(g72
g58
NtRp2370
(dp2371
g61
(dp2372
sg70
g2219
sg63
(lp2373
g56
(g77
g58
NtRp2374
(dp2375
g61
(dp2376
g81
g82
ssg70
g2370
sg63
(lp2377
S'HTTP_USER_AGENT'
p2378
asbag56
(g77
g58
NtRp2379
(dp2380
g61
(dp2381
g88
g89
ssg70
g2370
sg63
(lp2382
S':'
asbag56
(g77
g58
NtRp2383
(dp2384
g61
(dp2385
sg70
g2370
sg63
(lp2386
g56
(g57
g58
NtRp2387
(dp2388
g61
(dp2389
g69
I3
ssg70
g2383
sg63
(lp2390
g971
asbasbasbag56
(g72
g58
NtRp2391
(dp2392
g61
(dp2393
sg70
g2219
sg63
(lp2394
g56
(g77
g58
NtRp2395
(dp2396
g61
(dp2397
g81
g82
ssg70
g2391
sg63
(lp2398
S'PATH_INFO'
p2399
asbag56
(g77
g58
NtRp2400
(dp2401
g61
(dp2402
g88
g89
ssg70
g2391
sg63
(lp2403
S':'
asbag56
(g77
g58
NtRp2404
(dp2405
g61
(dp2406
sg70
g2391
sg63
(lp2407
g56
(g57
g58
NtRp2408
(dp2409
g61
(dp2410
g69
I3
ssg70
g2404
sg63
(lp2411
S'/'
asbasbasbag56
(g72
g58
NtRp2412
(dp2413
g61
(dp2414
sg70
g2219
sg63
(lp2415
g56
(g77
g58
NtRp2416
(dp2417
g61
(dp2418
g81
g82
ssg70
g2412
sg63
(lp2419
S'QUERY_STRING'
p2420
asbag56
(g77
g58
NtRp2421
(dp2422
g61
(dp2423
g88
g89
ssg70
g2412
sg63
(lp2424
S':'
asbag56
(g77
g58
NtRp2425
(dp2426
g61
(dp2427
sg70
g2412
sg63
(lp2428
g56
(g57
g58
NtRp2429
(dp2430
g61
(dp2431
g69
I3
ssg70
g2425
sg63
(lp2432
S''
asbasbasbag56
(g72
g58
NtRp2433
(dp2434
g61
(dp2435
sg70
g2219
sg63
(lp2436
g56
(g77
g58
NtRp2437
(dp2438
g61
(dp2439
g81
g82
ssg70
g2433
sg63
(lp2440
S'REMOTE_ADDR'
p2441
asbag56
(g77
g58
NtRp2442
(dp2443
g61
(dp2444
g88
g89
ssg70
g2433
sg63
(lp2445
S':'
asbag56
(g77
g58
NtRp2446
(dp2447
g61
(dp2448
sg70
g2433
sg63
(lp2449
g56
(g57
g58
NtRp2450
(dp2451
g61
(dp2452
g69
I3
ssg70
g2446
sg63
(lp2453
g189
asbasbasbag56
(g72
g58
NtRp2454
(dp2455
g61
(dp2456
sg70
g2219
sg63
(lp2457
g56
(g77
g58
NtRp2458
(dp2459
g61
(dp2460
g81
g82
ssg70
g2454
sg63
(lp2461
S'REMOTE_PORT'
p2462
asbag56
(g77
g58
NtRp2463
(dp2464
g61
(dp2465
g88
g89
ssg70
g2454
sg63
(lp2466
S':'
asbag56
(g77
g58
NtRp2467
(dp2468
g61
(dp2469
sg70
g2454
sg63
(lp2470
g56
(g57
g58
NtRp2471
(dp2472
g61
(dp2473
g69
I3
ssg70
g2467
sg63
(lp2474
g1077
asbasbasbag56
(g72
g58
NtRp2475
(dp2476
g61
(dp2477
sg70
g2219
sg63
(lp2478
g56
(g77
g58
NtRp2479
(dp2480
g61
(dp2481
g81
g82
ssg70
g2475
sg63
(lp2482
S'REQUEST_METHOD'
p2483
asbag56
(g77
g58
NtRp2484
(dp2485
g61
(dp2486
g88
g89
ssg70
g2475
sg63
(lp2487
S':'
asbag56
(g77
g58
NtRp2488
(dp2489
g61
(dp2490
sg70
g2475
sg63
(lp2491
g56
(g57
g58
NtRp2492
(dp2493
g61
(dp2494
g69
I3
ssg70
g2488
sg63
(lp2495
g1099
asbasbasbag56
(g72
g58
NtRp2496
(dp2497
g61
(dp2498
sg70
g2219
sg63
(lp2499
g56
(g77
g58
NtRp2500
(dp2501
g61
(dp2502
g81
g82
ssg70
g2496
sg63
(lp2503
S'REQUEST_URI'
p2504
asbag56
(g77
g58
NtRp2505
(dp2506
g61
(dp2507
g88
g89
ssg70
g2496
sg63
(lp2508
S':'
asbag56
(g77
g58
NtRp2509
(dp2510
g61
(dp2511
sg70
g2496
sg63
(lp2512
g56
(g57
g58
NtRp2513
(dp2514
g61
(dp2515
g69
I3
ssg70
g2509
sg63
(lp2516
g1121
asbasbasbag56
(g72
g58
NtRp2517
(dp2518
g61
(dp2519
sg70
g2219
sg63
(lp2520
g56
(g77
g58
NtRp2521
(dp2522
g61
(dp2523
g81
g82
ssg70
g2517
sg63
(lp2524
S'SCRIPT_NAME'
p2525
asbag56
(g77
g58
NtRp2526
(dp2527
g61
(dp2528
g88
g89
ssg70
g2517
sg63
(lp2529
S':'
asbag56
(g77
g58
NtRp2530
(dp2531
g61
(dp2532
sg70
g2517
sg63
(lp2533
g56
(g57
g58
NtRp2534
(dp2535
g61
(dp2536
g69
I3
ssg70
g2530
sg63
(lp2537
S''
asbasbasbag56
(g72
g58
NtRp2538
(dp2539
g61
(dp2540
sg70
g2219
sg63
(lp2541
g56
(g77
g58
NtRp2542
(dp2543
g61
(dp2544
g81
g82
ssg70
g2538
sg63
(lp2545
S'SERVER_NAME'
p2546
asbag56
(g77
g58
NtRp2547
(dp2548
g61
(dp2549
g88
g89
ssg70
g2538
sg63
(lp2550
S':'
asbag56
(g77
g58
NtRp2551
(dp2552
g61
(dp2553
sg70
g2538
sg63
(lp2554
g56
(g57
g58
NtRp2555
(dp2556
g61
(dp2557
g69
I3
ssg70
g2551
sg63
(lp2558
g1164
asbasbasbag56
(g72
g58
NtRp2559
(dp2560
g61
(dp2561
sg70
g2219
sg63
(lp2562
g56
(g77
g58
NtRp2563
(dp2564
g61
(dp2565
g81
g82
ssg70
g2559
sg63
(lp2566
S'SERVER_PORT'
p2567
asbag56
(g77
g58
NtRp2568
(dp2569
g61
(dp2570
g88
g89
ssg70
g2559
sg63
(lp2571
S':'
asbag56
(g77
g58
NtRp2572
(dp2573
g61
(dp2574
sg70
g2559
sg63
(lp2575
g56
(g57
g58
NtRp2576
(dp2577
g61
(dp2578
g69
I3
ssg70
g2572
sg63
(lp2579
g1186
asbasbasbag56
(g72
g58
NtRp2580
(dp2581
g61
(dp2582
sg70
g2219
sg63
(lp2583
g56
(g77
g58
NtRp2584
(dp2585
g61
(dp2586
g81
g82
ssg70
g2580
sg63
(lp2587
S'SERVER_PROTOCOL'
p2588
asbag56
(g77
g58
NtRp2589
(dp2590
g61
(dp2591
g88
g89
ssg70
g2580
sg63
(lp2592
S':'
asbag56
(g77
g58
NtRp2593
(dp2594
g61
(dp2595
sg70
g2580
sg63
(lp2596
g56
(g57
g58
NtRp2597
(dp2598
g61
(dp2599
g69
I3
ssg70
g2593
sg63
(lp2600
g1208
asbasbasbag56
(g72
g58
NtRp2601
(dp2602
g61
(dp2603
sg70
g2219
sg63
(lp2604
g56
(g77
g58
NtRp2605
(dp2606
g61
(dp2607
g81
g82
ssg70
g2601
sg63
(lp2608
S'SERVER_SOFTWARE'
p2609
asbag56
(g77
g58
NtRp2610
(dp2611
g61
(dp2612
g88
g89
ssg70
g2601
sg63
(lp2613
S':'
asbag56
(g77
g58
NtRp2614
(dp2615
g61
(dp2616
sg70
g2601
sg63
(lp2617
g56
(g57
g58
NtRp2618
(dp2619
g61
(dp2620
g69
I3
ssg70
g2614
sg63
(lp2621
g1230
asbasbasbag56
(g72
g58
NtRp2622
(dp2623
g61
(dp2624
sg70
g2219
sg63
(lp2625
g56
(g77
g58
NtRp2626
(dp2627
g61
(dp2628
g81
g82
ssg70
g2622
sg63
(lp2629
S'WEB2PY_ORIGINAL_URI'
p2630
asbag56
(g77
g58
NtRp2631
(dp2632
g61
(dp2633
g88
g89
ssg70
g2622
sg63
(lp2634
S':'
asbag56
(g77
g58
NtRp2635
(dp2636
g61
(dp2637
sg70
g2622
sg63
(lp2638
g56
(g57
g58
NtRp2639
(dp2640
g61
(dp2641
g69
I3
ssg70
g2635
sg63
(lp2642
S'/'
asbasbasbag56
(g72
g58
NtRp2643
(dp2644
g61
(dp2645
sg70
g2219
sg63
(lp2646
g56
(g77
g58
NtRp2647
(dp2648
g61
(dp2649
g81
g82
ssg70
g2643
sg63
(lp2650
S'wsgi.errors'
p2651
asbag56
(g77
g58
NtRp2652
(dp2653
g61
(dp2654
g88
g89
ssg70
g2643
sg63
(lp2655
S':'
asbag56
(g77
g58
NtRp2656
(dp2657
g61
(dp2658
sg70
g2643
sg63
(lp2659
g56
(g57
g58
NtRp2660
(dp2661
g61
(dp2662
g69
I3
ssg70
g2656
sg63
(lp2663
S"<open file '<stderr>', mode 'w' at 0x100416140>"
p2664
asbasbasbag56
(g72
g58
NtRp2665
(dp2666
g61
(dp2667
sg70
g2219
sg63
(lp2668
g56
(g77
g58
NtRp2669
(dp2670
g61
(dp2671
g81
g82
ssg70
g2665
sg63
(lp2672
S'wsgi.file_wrapper'
p2673
asbag56
(g77
g58
NtRp2674
(dp2675
g61
(dp2676
g88
g89
ssg70
g2665
sg63
(lp2677
S':'
asbag56
(g77
g58
NtRp2678
(dp2679
g61
(dp2680
sg70
g2665
sg63
(lp2681
g56
(g57
g58
NtRp2682
(dp2683
g61
(dp2684
g69
I3
ssg70
g2678
sg63
(lp2685
S'<class wsgiref.util.FileWrapper at 0x1014a2bf0>'
p2686
asbasbasbag56
(g72
g58
NtRp2687
(dp2688
g61
(dp2689
sg70
g2219
sg63
(lp2690
g56
(g77
g58
NtRp2691
(dp2692
g61
(dp2693
g81
g82
ssg70
g2687
sg63
(lp2694
S'wsgi.input'
p2695
asbag56
(g77
g58
NtRp2696
(dp2697
g61
(dp2698
g88
g89
ssg70
g2687
sg63
(lp2699
S':'
asbag56
(g77
g58
NtRp2700
(dp2701
g61
(dp2702
sg70
g2687
sg63
(lp2703
g56
(g57
g58
NtRp2704
(dp2705
g61
(dp2706
g69
I3
ssg70
g2700
sg63
(lp2707
S'<cStringIO.StringO object at 0x1007c7c38>'
p2708
asbasbasbag56
(g72
g58
NtRp2709
(dp2710
g61
(dp2711
sg70
g2219
sg63
(lp2712
g56
(g77
g58
NtRp2713
(dp2714
g61
(dp2715
g81
g82
ssg70
g2709
sg63
(lp2716
S'wsgi.multiprocess'
p2717
asbag56
(g77
g58
NtRp2718
(dp2719
g61
(dp2720
g88
g89
ssg70
g2709
sg63
(lp2721
S':'
asbag56
(g77
g58
NtRp2722
(dp2723
g61
(dp2724
sg70
g2709
sg63
(lp2725
g56
(g57
g58
NtRp2726
(dp2727
g61
(dp2728
g69
I3
ssg70
g2722
sg63
(lp2729
g99
asbasbasbag56
(g72
g58
NtRp2730
(dp2731
g61
(dp2732
sg70
g2219
sg63
(lp2733
g56
(g77
g58
NtRp2734
(dp2735
g61
(dp2736
g81
g82
ssg70
g2730
sg63
(lp2737
S'wsgi.multithread'
p2738
asbag56
(g77
g58
NtRp2739
(dp2740
g61
(dp2741
g88
g89
ssg70
g2730
sg63
(lp2742
S':'
asbag56
(g77
g58
NtRp2743
(dp2744
g61
(dp2745
sg70
g2730
sg63
(lp2746
g56
(g57
g58
NtRp2747
(dp2748
g61
(dp2749
g69
I3
ssg70
g2743
sg63
(lp2750
g1491
asbasbasbag56
(g72
g58
NtRp2751
(dp2752
g61
(dp2753
sg70
g2219
sg63
(lp2754
g56
(g77
g58
NtRp2755
(dp2756
g61
(dp2757
g81
g82
ssg70
g2751
sg63
(lp2758
S'wsgi.run_once'
p2759
asbag56
(g77
g58
NtRp2760
(dp2761
g61
(dp2762
g88
g89
ssg70
g2751
sg63
(lp2763
S':'
asbag56
(g77
g58
NtRp2764
(dp2765
g61
(dp2766
sg70
g2751
sg63
(lp2767
g56
(g57
g58
NtRp2768
(dp2769
g61
(dp2770
g69
I3
ssg70
g2764
sg63
(lp2771
g99
asbasbasbag56
(g72
g58
NtRp2772
(dp2773
g61
(dp2774
sg70
g2219
sg63
(lp2775
g56
(g77
g58
NtRp2776
(dp2777
g61
(dp2778
g81
g82
ssg70
g2772
sg63
(lp2779
S'wsgi.url_scheme'
p2780
asbag56
(g77
g58
NtRp2781
(dp2782
g61
(dp2783
g88
g89
ssg70
g2772
sg63
(lp2784
S':'
asbag56
(g77
g58
NtRp2785
(dp2786
g61
(dp2787
sg70
g2772
sg63
(lp2788
g56
(g57
g58
NtRp2789
(dp2790
g61
(dp2791
g69
I3
ssg70
g2785
sg63
(lp2792
g1534
asbasbasbag56
(g72
g58
NtRp2793
(dp2794
g61
(dp2795
sg70
g2219
sg63
(lp2796
g56
(g77
g58
NtRp2797
(dp2798
g61
(dp2799
g81
g82
ssg70
g2793
sg63
(lp2800
S'wsgi.version'
p2801
asbag56
(g77
g58
NtRp2802
(dp2803
g61
(dp2804
g88
g89
ssg70
g2793
sg63
(lp2805
S':'
asbag56
(g77
g58
NtRp2806
(dp2807
g61
(dp2808
sg70
g2793
sg63
(lp2809
g56
(g57
g58
NtRp2810
(dp2811
g61
(dp2812
g69
I3
ssg70
g2806
sg63
(lp2813
S'1'
asbasbasbasbasbasbasbasbasbasbasbasbasbsS'frames'
p2814
(lp2815
(dp2816
S'file'
p2817
S'/Users/excon/Sites/dreamscape/gluon/restricted.py'
p2818
sS'dump'
p2819
(dp2820
S'environment'
p2821
S"{'A': <class 'gluon.html.A'>, 'Auth': <class 'gluon.tools.Auth'>, 'B': <class 'gluon.html.B'>, 'BEAUTIFY': <class 'gluon.html.BEAUTIFY'>, 'BODY': <class 'gluon.html.BODY'>, 'BR': <class 'gluon.html.BR'>, 'BUTTON': <class 'gluon.html.BUTTON'>, 'CAT': <class 'gluon.html.CAT'>, 'CENTER': <class 'gluon.html.CENTER'>, 'CLEANUP': <class 'gluon.validators.CLEANUP'>, ...}"
p2822
sS'ccode'
p2823
S'<code object <module> at 0x1010b3300, file "/Use...ations/welcome/views/default/index.html", line 1>'
p2824
ssS'lnum'
p2825
I194
sS'lines'
p2826
(dp2827
I192
S'        else:'
p2828
sI193
S'            ccode = compile2(code,layer)'
p2829
sI194
S'        exec ccode in environment'
p2830
sI195
S'    except HTTP:'
p2831
sI196
S'        raise'
p2832
sI197
S'    except Exception, error:'
p2833
sI198
S'        # XXX Show exception in Wing IDE if running in debugger'
p2834
sI189
S'    try:'
p2835
sI190
S'        if type(code) == types.CodeType:'
p2836
sI191
S'            ccode = code'
p2837
ssS'call'
p2838
S'(code=\'response.write(\\\'<!DOCTYPE html>\\\\n<html lang="\\\', ...nse.write(\\\'\\\\n  </body>\\\\n</html>\\\\n\\\', escape=False)\', environment={\'A\': <class \'gluon.html.A\'>, \'Auth\': <class \'gluon.tools.Auth\'>, \'B\': <class \'gluon.html.B\'>, \'BEAUTIFY\': <class \'gluon.html.BEAUTIFY\'>, \'BODY\': <class \'gluon.html.BODY\'>, \'BR\': <class \'gluon.html.BR\'>, \'BUTTON\': <class \'gluon.html.BUTTON\'>, \'CAT\': <class \'gluon.html.CAT\'>, \'CENTER\': <class \'gluon.html.CENTER\'>, \'CLEANUP\': <class \'gluon.validators.CLEANUP\'>, ...}, layer=\'/Users/excon/Sites/dreamscape/applications/welcome/views/default/index.html\')'
p2839
sS'func'
p2840
S'restricted'
p2841
sa(dp2842
g2817
S'/Users/excon/Sites/dreamscape/applications/welcome/views/default/index.html'
p2843
sg2819
(dp2844
sg2825
I84
sg2826
(dp2845
I75
S"    response.write('Content Left Sidebar', escape=False)"
p2846
sI76
S"    response.write('       \\n            </div>\\n          </div><!-- left_sidebar -->\\n      ', escape=False)"
p2847
sI77
S'    pass'
p2848
sI78
S'response.write(\'\\n\\n      <!-- content -->\\n      <div id="content" \', escape=False)'
p2849
sI79
S'response.write(XML(style_content))'
p2850
sI80
S"response.write(' >\\n        ', escape=False)"
p2851
sI81
S"response.write('\\n', escape=False)"
p2852
sI82
S'for num in nums:'
p2853
sI83
S"    response.write('\\n', escape=False)"
p2854
sI84
S'    response.write(P("a" + num))'
p2855
sI85
S"    response.write('\\n', escape=False)"
p2856
sI86
S'    pass'
p2857
sI87
S"response.write('\\n<h1>Dreamscape</h1>\\n<p>Share your dreams with other dreamers to turn passions to realities.</p>\\n<p>We are really intent on everyone achieving their dreams.</p>\\n', escape=False)"
p2858
sI88
S'pass'
p2859
sI89
S"response.write('\\n      </div>\\n      <!-- content -->\\n\\n      ', escape=False)"
p2860
sI90
S'if right_sidebar_enabled:'
p2861
sI91
S'    response.write(\'\\n          <div id="right_sidebar" \', escape=False)'
p2862
sI92
S'    response.write(XML(right_sidebar_style))'
p2863
sI93
S'    response.write(\' >\\n            <div style="padding: 4px;">\\n              \', escape=False)'
p2864
sI94
S"    response.write('Content Right Sidebar', escape=False)"
p2865
ssg2838
S'()'
p2866
sg2840
S'<module>'
p2867
sasS'pyver'
p2868
S'Python 2.6.1: /usr/bin/python'
p2869
sS'session'
p2870
g56
(g57
g58
NtRp2871
(dp2872
g61
(dp2873
sg63
(lp2874
g56
(g65
g58
NtRp2875
(dp2876
g61
(dp2877
g69
I5
ssg70
Nsg63
(lp2878
sbasbsS'etype'
p2879
S"<type 'exceptions.TypeError'>"
p2880
sS'date'
p2881
S'Thu Sep 29 13:20:36 2011'
p2882
sS'response'
p2883
g56
(g57
g58
NtRp2884
(dp2885
g61
(dp2886
sg63
(lp2887
g56
(g65
g58
NtRp2888
(dp2889
g61
(dp2890
g69
I5
ssg70
Nsg63
(lp2891
g56
(g72
g58
NtRp2892
(dp2893
g61
(dp2894
sg70
g2888
sg63
(lp2895
g56
(g77
g58
NtRp2896
(dp2897
g61
(dp2898
g81
g82
ssg70
g2892
sg63
(lp2899
g154
asbag56
(g77
g58
NtRp2900
(dp2901
g61
(dp2902
g88
g89
ssg70
g2892
sg63
(lp2903
S':'
asbag56
(g77
g58
NtRp2904
(dp2905
g61
(dp2906
sg70
g2892
sg63
(lp2907
g56
(g57
g58
NtRp2908
(dp2909
g61
(dp2910
g69
I5
ssg70
g2904
sg63
(lp2911
S'<cStringIO.StringO object at 0x101c2dae8>'
p2912
asbasbasbag56
(g72
g58
NtRp2913
(dp2914
g61
(dp2915
sg70
g2888
sg63
(lp2916
g56
(g77
g58
NtRp2917
(dp2918
g61
(dp2919
g81
g82
ssg70
g2913
sg63
(lp2920
g220
asbag56
(g77
g58
NtRp2921
(dp2922
g61
(dp2923
g88
g89
ssg70
g2913
sg63
(lp2924
S':'
asbag56
(g77
g58
NtRp2925
(dp2926
g61
(dp2927
sg70
g2913
sg63
(lp2928
g56
(g57
g58
NtRp2929
(dp2930
g61
(dp2931
g69
I5
ssg70
g2925
sg63
(lp2932
g56
(g65
g58
NtRp2933
(dp2934
g61
(dp2935
g69
I4
ssg70
Nsg63
(lp2936
g56
(g72
g58
NtRp2937
(dp2938
g61
(dp2939
sg70
g2933
sg63
(lp2940
g56
(g77
g58
NtRp2941
(dp2942
g61
(dp2943
g81
g82
ssg70
g2937
sg63
(lp2944
S'session_id_welcome'
p2945
asbag56
(g77
g58
NtRp2946
(dp2947
g61
(dp2948
g88
g89
ssg70
g2937
sg63
(lp2949
S':'
asbag56
(g77
g58
NtRp2950
(dp2951
g61
(dp2952
sg70
g2937
sg63
(lp2953
g56
(g57
g58
NtRp2954
(dp2955
g61
(dp2956
g69
I4
ssg70
g2950
sg63
(lp2957
g56
(g65
g58
NtRp2958
(dp2959
g61
(dp2960
g69
I3
ssg70
Nsg63
(lp2961
g56
(g72
g58
NtRp2962
(dp2963
g61
(dp2964
sg70
g2958
sg63
(lp2965
g56
(g77
g58
NtRp2966
(dp2967
g61
(dp2968
g81
g82
ssg70
g2962
sg63
(lp2969
g270
asbag56
(g77
g58
NtRp2970
(dp2971
g61
(dp2972
g88
g89
ssg70
g2962
sg63
(lp2973
S':'
asbag56
(g77
g58
NtRp2974
(dp2975
g61
(dp2976
sg70
g2962
sg63
(lp2977
g56
(g57
g58
NtRp2978
(dp2979
g61
(dp2980
g69
I3
ssg70
g2974
sg63
(lp2981
S''
asbasbasbag56
(g72
g58
NtRp2982
(dp2983
g61
(dp2984
sg70
g2958
sg63
(lp2985
g56
(g77
g58
NtRp2986
(dp2987
g61
(dp2988
g81
g82
ssg70
g2982
sg63
(lp2989
g291
asbag56
(g77
g58
NtRp2990
(dp2991
g61
(dp2992
g88
g89
ssg70
g2982
sg63
(lp2993
S':'
asbag56
(g77
g58
NtRp2994
(dp2995
g61
(dp2996
sg70
g2982
sg63
(lp2997
g56
(g57
g58
NtRp2998
(dp2999
g61
(dp3000
g69
I3
ssg70
g2994
sg63
(lp3001
S''
asbasbasbag56
(g72
g58
NtRp3002
(dp3003
g61
(dp3004
sg70
g2958
sg63
(lp3005
g56
(g77
g58
NtRp3006
(dp3007
g61
(dp3008
g81
g82
ssg70
g3002
sg63
(lp3009
g312
asbag56
(g77
g58
NtRp3010
(dp3011
g61
(dp3012
g88
g89
ssg70
g3002
sg63
(lp3013
S':'
asbag56
(g77
g58
NtRp3014
(dp3015
g61
(dp3016
sg70
g3002
sg63
(lp3017
g56
(g57
g58
NtRp3018
(dp3019
g61
(dp3020
g69
I3
ssg70
g3014
sg63
(lp3021
S''
asbasbasbag56
(g72
g58
NtRp3022
(dp3023
g61
(dp3024
sg70
g2958
sg63
(lp3025
g56
(g77
g58
NtRp3026
(dp3027
g61
(dp3028
g81
g82
ssg70
g3022
sg63
(lp3029
g333
asbag56
(g77
g58
NtRp3030
(dp3031
g61
(dp3032
g88
g89
ssg70
g3022
sg63
(lp3033
S':'
asbag56
(g77
g58
NtRp3034
(dp3035
g61
(dp3036
sg70
g3022
sg63
(lp3037
g56
(g57
g58
NtRp3038
(dp3039
g61
(dp3040
g69
I3
ssg70
g3034
sg63
(lp3041
S''
asbasbasbag56
(g72
g58
NtRp3042
(dp3043
g61
(dp3044
sg70
g2958
sg63
(lp3045
g56
(g77
g58
NtRp3046
(dp3047
g61
(dp3048
g81
g82
ssg70
g3042
sg63
(lp3049
g354
asbag56
(g77
g58
NtRp3050
(dp3051
g61
(dp3052
g88
g89
ssg70
g3042
sg63
(lp3053
S':'
asbag56
(g77
g58
NtRp3054
(dp3055
g61
(dp3056
sg70
g3042
sg63
(lp3057
g56
(g57
g58
NtRp3058
(dp3059
g61
(dp3060
g69
I3
ssg70
g3054
sg63
(lp3061
S''
asbasbasbag56
(g72
g58
NtRp3062
(dp3063
g61
(dp3064
sg70
g2958
sg63
(lp3065
g56
(g77
g58
NtRp3066
(dp3067
g61
(dp3068
g81
g82
ssg70
g3062
sg63
(lp3069
g375
asbag56
(g77
g58
NtRp3070
(dp3071
g61
(dp3072
g88
g89
ssg70
g3062
sg63
(lp3073
S':'
asbag56
(g77
g58
NtRp3074
(dp3075
g61
(dp3076
sg70
g3062
sg63
(lp3077
g56
(g57
g58
NtRp3078
(dp3079
g61
(dp3080
g69
I3
ssg70
g3074
sg63
(lp3081
S'/'
asbasbasbag56
(g72
g58
NtRp3082
(dp3083
g61
(dp3084
sg70
g2958
sg63
(lp3085
g56
(g77
g58
NtRp3086
(dp3087
g61
(dp3088
g81
g82
ssg70
g3082
sg63
(lp3089
g396
asbag56
(g77
g58
NtRp3090
(dp3091
g61
(dp3092
g88
g89
ssg70
g3082
sg63
(lp3093
S':'
asbag56
(g77
g58
NtRp3094
(dp3095
g61
(dp3096
sg70
g3082
sg63
(lp3097
g56
(g57
g58
NtRp3098
(dp3099
g61
(dp3100
g69
I3
ssg70
g3094
sg63
(lp3101
S''
asbasbasbag56
(g72
g58
NtRp3102
(dp3103
g61
(dp3104
sg70
g2958
sg63
(lp3105
g56
(g77
g58
NtRp3106
(dp3107
g61
(dp3108
g81
g82
ssg70
g3102
sg63
(lp3109
g417
asbag56
(g77
g58
NtRp3110
(dp3111
g61
(dp3112
g88
g89
ssg70
g3102
sg63
(lp3113
S':'
asbag56
(g77
g58
NtRp3114
(dp3115
g61
(dp3116
sg70
g3102
sg63
(lp3117
g56
(g57
g58
NtRp3118
(dp3119
g61
(dp3120
g69
I3
ssg70
g3114
sg63
(lp3121
S''
asbasbasbasbasbasbasbasbasbasbasbag56
(g72
g58
NtRp3122
(dp3123
g61
(dp3124
sg70
g2888
sg63
(lp3125
g56
(g77
g58
NtRp3126
(dp3127
g61
(dp3128
g81
g82
ssg70
g3122
sg63
(lp3129
S'files'
p3130
asbag56
(g77
g58
NtRp3131
(dp3132
g61
(dp3133
g88
g89
ssg70
g3122
sg63
(lp3134
S':'
asbag56
(g77
g58
NtRp3135
(dp3136
g61
(dp3137
sg70
g3122
sg63
(lp3138
g56
(g57
g58
NtRp3139
(dp3140
g61
(dp3141
g69
I5
ssg70
g3135
sg63
(lp3142
g56
(g65
g58
NtRp3143
(dp3144
g61
(dp3145
g69
I4
ssg70
Nsg63
(lp3146
g56
(g72
g58
NtRp3147
(dp3148
g61
(dp3149
sg70
g3143
sg63
(lp3150
g56
(g77
g58
NtRp3151
(dp3152
g61
(dp3153
sg70
g3147
sg63
(lp3154
g56
(g57
g58
NtRp3155
(dp3156
g61
(dp3157
g69
I4
ssg70
g3151
sg63
(lp3158
S'/welcome/static/js/jquery.js'
p3159
asbasbasbag56
(g72
g58
NtRp3160
(dp3161
g61
(dp3162
sg70
g3143
sg63
(lp3163
g56
(g77
g58
NtRp3164
(dp3165
g61
(dp3166
sg70
g3160
sg63
(lp3167
g56
(g57
g58
NtRp3168
(dp3169
g61
(dp3170
g69
I4
ssg70
g3164
sg63
(lp3171
S'/welcome/static/css/anytime.css'
p3172
asbasbasbag56
(g72
g58
NtRp3173
(dp3174
g61
(dp3175
sg70
g3143
sg63
(lp3176
g56
(g77
g58
NtRp3177
(dp3178
g61
(dp3179
sg70
g3173
sg63
(lp3180
g56
(g57
g58
NtRp3181
(dp3182
g61
(dp3183
g69
I4
ssg70
g3177
sg63
(lp3184
S'/welcome/static/js/anytime.js'
p3185
asbasbasbag56
(g72
g58
NtRp3186
(dp3187
g61
(dp3188
sg70
g3143
sg63
(lp3189
g56
(g77
g58
NtRp3190
(dp3191
g61
(dp3192
sg70
g3186
sg63
(lp3193
g56
(g57
g58
NtRp3194
(dp3195
g61
(dp3196
g69
I4
ssg70
g3190
sg63
(lp3197
S'/welcome/static/css/base.css'
p3198
asbasbasbag56
(g72
g58
NtRp3199
(dp3200
g61
(dp3201
sg70
g3143
sg63
(lp3202
g56
(g77
g58
NtRp3203
(dp3204
g61
(dp3205
sg70
g3199
sg63
(lp3206
g56
(g57
g58
NtRp3207
(dp3208
g61
(dp3209
g69
I4
ssg70
g3203
sg63
(lp3210
S'/welcome/static/css/superfish.css'
p3211
asbasbasbag56
(g72
g58
NtRp3212
(dp3213
g61
(dp3214
sg70
g3143
sg63
(lp3215
g56
(g77
g58
NtRp3216
(dp3217
g61
(dp3218
sg70
g3212
sg63
(lp3219
g56
(g57
g58
NtRp3220
(dp3221
g61
(dp3222
g69
I4
ssg70
g3216
sg63
(lp3223
S'/welcome/static/js/superfish.js'
p3224
asbasbasbasbasbasbasbag56
(g72
g58
NtRp3225
(dp3226
g61
(dp3227
sg70
g2888
sg63
(lp3228
g56
(g77
g58
NtRp3229
(dp3230
g61
(dp3231
g81
g82
ssg70
g3225
sg63
(lp3232
S'flash'
p3233
asbag56
(g77
g58
NtRp3234
(dp3235
g61
(dp3236
g88
g89
ssg70
g3225
sg63
(lp3237
S':'
asbag56
(g77
g58
NtRp3238
(dp3239
g61
(dp3240
sg70
g3225
sg63
(lp3241
g56
(g57
g58
NtRp3242
(dp3243
g61
(dp3244
g69
I5
ssg70
g3238
sg63
(lp3245
S''
asbasbasbag56
(g72
g58
NtRp3246
(dp3247
g61
(dp3248
sg70
g2888
sg63
(lp3249
g56
(g77
g58
NtRp3250
(dp3251
g61
(dp3252
g81
g82
ssg70
g3246
sg63
(lp3253
S'generic_patterns'
p3254
asbag56
(g77
g58
NtRp3255
(dp3256
g61
(dp3257
g88
g89
ssg70
g3246
sg63
(lp3258
S':'
asbag56
(g77
g58
NtRp3259
(dp3260
g61
(dp3261
sg70
g3246
sg63
(lp3262
g56
(g57
g58
NtRp3263
(dp3264
g61
(dp3265
g69
I5
ssg70
g3259
sg63
(lp3266
g56
(g65
g58
NtRp3267
(dp3268
g61
(dp3269
g69
I4
ssg70
Nsg63
(lp3270
g56
(g72
g58
NtRp3271
(dp3272
g61
(dp3273
sg70
g3267
sg63
(lp3274
g56
(g77
g58
NtRp3275
(dp3276
g61
(dp3277
sg70
g3271
sg63
(lp3278
g56
(g57
g58
NtRp3279
(dp3280
g61
(dp3281
g69
I4
ssg70
g3275
sg63
(lp3282
S'*'
asbasbasbasbasbasbasbag56
(g72
g58
NtRp3283
(dp3284
g61
(dp3285
sg70
g2888
sg63
(lp3286
g56
(g77
g58
NtRp3287
(dp3288
g61
(dp3289
g81
g82
ssg70
g3283
sg63
(lp3290
S'headers'
p3291
asbag56
(g77
g58
NtRp3292
(dp3293
g61
(dp3294
g88
g89
ssg70
g3283
sg63
(lp3295
S':'
asbag56
(g77
g58
NtRp3296
(dp3297
g61
(dp3298
sg70
g3283
sg63
(lp3299
g56
(g57
g58
NtRp3300
(dp3301
g61
(dp3302
g69
I5
ssg70
g3296
sg63
(lp3303
g56
(g65
g58
NtRp3304
(dp3305
g61
(dp3306
g69
I4
ssg70
Nsg63
(lp3307
g56
(g72
g58
NtRp3308
(dp3309
g61
(dp3310
sg70
g3304
sg63
(lp3311
g56
(g77
g58
NtRp3312
(dp3313
g61
(dp3314
g81
g82
ssg70
g3308
sg63
(lp3315
S'Cache-Control'
p3316
asbag56
(g77
g58
NtRp3317
(dp3318
g61
(dp3319
g88
g89
ssg70
g3308
sg63
(lp3320
S':'
asbag56
(g77
g58
NtRp3321
(dp3322
g61
(dp3323
sg70
g3308
sg63
(lp3324
g56
(g57
g58
NtRp3325
(dp3326
g61
(dp3327
g69
I4
ssg70
g3321
sg63
(lp3328
S'no-store, no-cache, must-revalidate, post-check=0, pre-check=0'
p3329
asbasbasbag56
(g72
g58
NtRp3330
(dp3331
g61
(dp3332
sg70
g3304
sg63
(lp3333
g56
(g77
g58
NtRp3334
(dp3335
g61
(dp3336
g81
g82
ssg70
g3330
sg63
(lp3337
S'Content-Type'
p3338
asbag56
(g77
g58
NtRp3339
(dp3340
g61
(dp3341
g88
g89
ssg70
g3330
sg63
(lp3342
S':'
asbag56
(g77
g58
NtRp3343
(dp3344
g61
(dp3345
sg70
g3330
sg63
(lp3346
g56
(g57
g58
NtRp3347
(dp3348
g61
(dp3349
g69
I4
ssg70
g3343
sg63
(lp3350
S'text/html; charset=utf-8'
p3351
asbasbasbag56
(g72
g58
NtRp3352
(dp3353
g61
(dp3354
sg70
g3304
sg63
(lp3355
g56
(g77
g58
NtRp3356
(dp3357
g61
(dp3358
g81
g82
ssg70
g3352
sg63
(lp3359
S'Expires'
p3360
asbag56
(g77
g58
NtRp3361
(dp3362
g61
(dp3363
g88
g89
ssg70
g3352
sg63
(lp3364
S':'
asbag56
(g77
g58
NtRp3365
(dp3366
g61
(dp3367
sg70
g3352
sg63
(lp3368
g56
(g57
g58
NtRp3369
(dp3370
g61
(dp3371
g69
I4
ssg70
g3365
sg63
(lp3372
S'Thu, 29 Sep 2011 20:20:35 GMT'
p3373
asbasbasbag56
(g72
g58
NtRp3374
(dp3375
g61
(dp3376
sg70
g3304
sg63
(lp3377
g56
(g77
g58
NtRp3378
(dp3379
g61
(dp3380
g81
g82
ssg70
g3374
sg63
(lp3381
S'Pragma'
p3382
asbag56
(g77
g58
NtRp3383
(dp3384
g61
(dp3385
g88
g89
ssg70
g3374
sg63
(lp3386
S':'
asbag56
(g77
g58
NtRp3387
(dp3388
g61
(dp3389
sg70
g3374
sg63
(lp3390
g56
(g57
g58
NtRp3391
(dp3392
g61
(dp3393
g69
I4
ssg70
g3387
sg63
(lp3394
S'no-cache'
p3395
asbasbasbag56
(g72
g58
NtRp3396
(dp3397
g61
(dp3398
sg70
g3304
sg63
(lp3399
g56
(g77
g58
NtRp3400
(dp3401
g61
(dp3402
g81
g82
ssg70
g3396
sg63
(lp3403
S'X-Powered-By'
p3404
asbag56
(g77
g58
NtRp3405
(dp3406
g61
(dp3407
g88
g89
ssg70
g3396
sg63
(lp3408
S':'
asbag56
(g77
g58
NtRp3409
(dp3410
g61
(dp3411
sg70
g3396
sg63
(lp3412
g56
(g57
g58
NtRp3413
(dp3414
g61
(dp3415
g69
I4
ssg70
g3409
sg63
(lp3416
S'web2py'
p3417
asbasbasbasbasbasbasbag56
(g72
g58
NtRp3418
(dp3419
g61
(dp3420
sg70
g2888
sg63
(lp3421
g56
(g77
g58
NtRp3422
(dp3423
g61
(dp3424
g81
g82
ssg70
g3418
sg63
(lp3425
S'menu'
p3426
asbag56
(g77
g58
NtRp3427
(dp3428
g61
(dp3429
g88
g89
ssg70
g3418
sg63
(lp3430
S':'
asbag56
(g77
g58
NtRp3431
(dp3432
g61
(dp3433
sg70
g3418
sg63
(lp3434
g56
(g57
g58
NtRp3435
(dp3436
g61
(dp3437
g69
I5
ssg70
g3431
sg63
(lp3438
g56
(g65
g58
NtRp3439
(dp3440
g61
(dp3441
g69
I4
ssg70
Nsg63
(lp3442
g56
(g72
g58
NtRp3443
(dp3444
g61
(dp3445
sg70
g3439
sg63
(lp3446
g56
(g77
g58
NtRp3447
(dp3448
g61
(dp3449
sg70
g3443
sg63
(lp3450
g56
(g57
g58
NtRp3451
(dp3452
g61
(dp3453
g69
I4
ssg70
g3447
sg63
(lp3454
g56
(g65
g58
NtRp3455
(dp3456
g61
(dp3457
g69
I3
ssg70
Nsg63
(lp3458
g56
(g72
g58
NtRp3459
(dp3460
g61
(dp3461
sg70
g3455
sg63
(lp3462
g56
(g77
g58
NtRp3463
(dp3464
g61
(dp3465
sg70
g3459
sg63
(lp3466
g56
(g57
g58
NtRp3467
(dp3468
g61
(dp3469
g69
I3
ssg70
g3463
sg63
(lp3470
cgluon.languages
lazyT_unpickle
p3471
(S's\x04\x00\x00\x00Home'
tRp3472
asbasbasbag56
(g72
g58
NtRp3473
(dp3474
g61
(dp3475
sg70
g3455
sg63
(lp3476
g56
(g77
g58
NtRp3477
(dp3478
g61
(dp3479
sg70
g3473
sg63
(lp3480
g56
(g57
g58
NtRp3481
(dp3482
g61
(dp3483
g69
I3
ssg70
g3477
sg63
(lp3484
g99
asbasbasbag56
(g72
g58
NtRp3485
(dp3486
g61
(dp3487
sg70
g3455
sg63
(lp3488
g56
(g77
g58
NtRp3489
(dp3490
g61
(dp3491
sg70
g3485
sg63
(lp3492
g56
(g57
g58
NtRp3493
(dp3494
g61
(dp3495
g69
I3
ssg70
g3489
sg63
(lp3496
S'/'
asbasbasbag56
(g72
g58
NtRp3497
(dp3498
g61
(dp3499
sg70
g3455
sg63
(lp3500
g56
(g77
g58
NtRp3501
(dp3502
g61
(dp3503
sg70
g3497
sg63
(lp3504
g56
(g57
g58
NtRp3505
(dp3506
g61
(dp3507
g69
I3
ssg70
g3501
sg63
(lp3508
g56
(g65
g58
NtRp3509
(dp3510
g61
(dp3511
g69
I2
ssg70
Nsg63
(lp3512
sbasbasbasbasbasbasbasbag56
(g72
g58
NtRp3513
(dp3514
g61
(dp3515
sg70
g3439
sg63
(lp3516
g56
(g77
g58
NtRp3517
(dp3518
g61
(dp3519
sg70
g3513
sg63
(lp3520
g56
(g57
g58
NtRp3521
(dp3522
g61
(dp3523
g69
I4
ssg70
g3517
sg63
(lp3524
g56
(g65
g58
NtRp3525
(dp3526
g61
(dp3527
g69
I3
ssg70
Nsg63
(lp3528
g56
(g72
g58
NtRp3529
(dp3530
g61
(dp3531
sg70
g3525
sg63
(lp3532
g56
(g77
g58
NtRp3533
(dp3534
g61
(dp3535
sg70
g3529
sg63
(lp3536
g56
(g57
g58
NtRp3537
(dp3538
g61
(dp3539
g69
I3
ssg70
g3533
sg63
(lp3540
g3471
(S's\x08\x00\x00\x00This App'
tRp3541
asbasbasbag56
(g72
g58
NtRp3542
(dp3543
g61
(dp3544
sg70
g3525
sg63
(lp3545
g56
(g77
g58
NtRp3546
(dp3547
g61
(dp3548
sg70
g3542
sg63
(lp3549
g56
(g57
g58
NtRp3550
(dp3551
g61
(dp3552
g69
I3
ssg70
g3546
sg63
(lp3553
g99
asbasbasbag56
(g72
g58
NtRp3554
(dp3555
g61
(dp3556
sg70
g3525
sg63
(lp3557
g56
(g77
g58
NtRp3558
(dp3559
g61
(dp3560
sg70
g3554
sg63
(lp3561
g56
(g57
g58
NtRp3562
(dp3563
g61
(dp3564
g69
I3
ssg70
g3558
sg63
(lp3565
S'/admin/design/welcome'
p3566
asbasbasbag56
(g72
g58
NtRp3567
(dp3568
g61
(dp3569
sg70
g3525
sg63
(lp3570
g56
(g77
g58
NtRp3571
(dp3572
g61
(dp3573
sg70
g3567
sg63
(lp3574
g56
(g57
g58
NtRp3575
(dp3576
g61
(dp3577
g69
I3
ssg70
g3571
sg63
(lp3578
g56
(g65
g58
NtRp3579
(dp3580
g61
(dp3581
g69
I2
ssg70
Nsg63
(lp3582
g56
(g72
g58
NtRp3583
(dp3584
g61
(dp3585
sg70
g3579
sg63
(lp3586
g56
(g77
g58
NtRp3587
(dp3588
g61
(dp3589
sg70
g3583
sg63
(lp3590
g56
(g57
g58
NtRp3591
(dp3592
g61
(dp3593
g69
I2
ssg70
g3587
sg63
(lp3594
g56
(g65
g58
NtRp3595
(dp3596
g61
(dp3597
g69
I1
ssg70
Nsg63
(lp3598
g56
(g72
g58
NtRp3599
(dp3600
g61
(dp3601
sg70
g3595
sg63
(lp3602
g56
(g77
g58
NtRp3603
(dp3604
g61
(dp3605
sg70
g3599
sg63
(lp3606
g56
(g57
g58
NtRp3607
(dp3608
g61
(dp3609
g69
I1
ssg70
g3603
sg63
(lp3610
g3471
(S's\n\x00\x00\x00Controller'
tRp3611
asbasbasbag56
(g72
g58
NtRp3612
(dp3613
g61
(dp3614
sg70
g3595
sg63
(lp3615
g56
(g77
g58
NtRp3616
(dp3617
g61
(dp3618
sg70
g3612
sg63
(lp3619
g56
(g57
g58
NtRp3620
(dp3621
g61
(dp3622
g69
I1
ssg70
g3616
sg63
(lp3623
I00
asbasbasbag56
(g72
g58
NtRp3624
(dp3625
g61
(dp3626
sg70
g3595
sg63
(lp3627
g56
(g77
g58
NtRp3628
(dp3629
g61
(dp3630
sg70
g3624
sg63
(lp3631
g56
(g57
g58
NtRp3632
(dp3633
g61
(dp3634
g69
I1
ssg70
g3628
sg63
(lp3635
S'/admin/edit/welcome/controllers/default.py'
p3636
asbasbasbasbasbasbasbag56
(g72
g58
NtRp3637
(dp3638
g61
(dp3639
sg70
g3579
sg63
(lp3640
g56
(g77
g58
NtRp3641
(dp3642
g61
(dp3643
sg70
g3637
sg63
(lp3644
g56
(g57
g58
NtRp3645
(dp3646
g61
(dp3647
g69
I2
ssg70
g3641
sg63
(lp3648
g56
(g65
g58
NtRp3649
(dp3650
g61
(dp3651
g69
I1
ssg70
Nsg63
(lp3652
g56
(g72
g58
NtRp3653
(dp3654
g61
(dp3655
sg70
g3649
sg63
(lp3656
g56
(g77
g58
NtRp3657
(dp3658
g61
(dp3659
sg70
g3653
sg63
(lp3660
g56
(g57
g58
NtRp3661
(dp3662
g61
(dp3663
g69
I1
ssg70
g3657
sg63
(lp3664
g3471
(S's\x04\x00\x00\x00View'
tRp3665
asbasbasbag56
(g72
g58
NtRp3666
(dp3667
g61
(dp3668
sg70
g3649
sg63
(lp3669
g56
(g77
g58
NtRp3670
(dp3671
g61
(dp3672
sg70
g3666
sg63
(lp3673
g56
(g57
g58
NtRp3674
(dp3675
g61
(dp3676
g69
I1
ssg70
g3670
sg63
(lp3677
I00
asbasbasbag56
(g72
g58
NtRp3678
(dp3679
g61
(dp3680
sg70
g3649
sg63
(lp3681
g56
(g77
g58
NtRp3682
(dp3683
g61
(dp3684
sg70
g3678
sg63
(lp3685
g56
(g57
g58
NtRp3686
(dp3687
g61
(dp3688
g69
I1
ssg70
g3682
sg63
(lp3689
S'/admin/edit/welcome/views/default/index.html'
p3690
asbasbasbasbasbasbasbag56
(g72
g58
NtRp3691
(dp3692
g61
(dp3693
sg70
g3579
sg63
(lp3694
g56
(g77
g58
NtRp3695
(dp3696
g61
(dp3697
sg70
g3691
sg63
(lp3698
g56
(g57
g58
NtRp3699
(dp3700
g61
(dp3701
g69
I2
ssg70
g3695
sg63
(lp3702
g56
(g65
g58
NtRp3703
(dp3704
g61
(dp3705
g69
I1
ssg70
Nsg63
(lp3706
g56
(g72
g58
NtRp3707
(dp3708
g61
(dp3709
sg70
g3703
sg63
(lp3710
g56
(g77
g58
NtRp3711
(dp3712
g61
(dp3713
sg70
g3707
sg63
(lp3714
g56
(g57
g58
NtRp3715
(dp3716
g61
(dp3717
g69
I1
ssg70
g3711
sg63
(lp3718
g3471
(S's\x06\x00\x00\x00Layout'
tRp3719
asbasbasbag56
(g72
g58
NtRp3720
(dp3721
g61
(dp3722
sg70
g3703
sg63
(lp3723
g56
(g77
g58
NtRp3724
(dp3725
g61
(dp3726
sg70
g3720
sg63
(lp3727
g56
(g57
g58
NtRp3728
(dp3729
g61
(dp3730
g69
I1
ssg70
g3724
sg63
(lp3731
I00
asbasbasbag56
(g72
g58
NtRp3732
(dp3733
g61
(dp3734
sg70
g3703
sg63
(lp3735
g56
(g77
g58
NtRp3736
(dp3737
g61
(dp3738
sg70
g3732
sg63
(lp3739
g56
(g57
g58
NtRp3740
(dp3741
g61
(dp3742
g69
I1
ssg70
g3736
sg63
(lp3743
S'/admin/edit/welcome/views/layout.html'
p3744
asbasbasbasbasbasbasbag56
(g72
g58
NtRp3745
(dp3746
g61
(dp3747
sg70
g3579
sg63
(lp3748
g56
(g77
g58
NtRp3749
(dp3750
g61
(dp3751
sg70
g3745
sg63
(lp3752
g56
(g57
g58
NtRp3753
(dp3754
g61
(dp3755
g69
I2
ssg70
g3749
sg63
(lp3756
g56
(g65
g58
NtRp3757
(dp3758
g61
(dp3759
g69
I1
ssg70
Nsg63
(lp3760
g56
(g72
g58
NtRp3761
(dp3762
g61
(dp3763
sg70
g3757
sg63
(lp3764
g56
(g77
g58
NtRp3765
(dp3766
g61
(dp3767
sg70
g3761
sg63
(lp3768
g56
(g57
g58
NtRp3769
(dp3770
g61
(dp3771
g69
I1
ssg70
g3765
sg63
(lp3772
g3471
(S's\n\x00\x00\x00Stylesheet'
tRp3773
asbasbasbag56
(g72
g58
NtRp3774
(dp3775
g61
(dp3776
sg70
g3757
sg63
(lp3777
g56
(g77
g58
NtRp3778
(dp3779
g61
(dp3780
sg70
g3774
sg63
(lp3781
g56
(g57
g58
NtRp3782
(dp3783
g61
(dp3784
g69
I1
ssg70
g3778
sg63
(lp3785
I00
asbasbasbag56
(g72
g58
NtRp3786
(dp3787
g61
(dp3788
sg70
g3757
sg63
(lp3789
g56
(g77
g58
NtRp3790
(dp3791
g61
(dp3792
sg70
g3786
sg63
(lp3793
g56
(g57
g58
NtRp3794
(dp3795
g61
(dp3796
g69
I1
ssg70
g3790
sg63
(lp3797
S'/admin/edit/welcome/static/base.css'
p3798
asbasbasbasbasbasbasbag56
(g72
g58
NtRp3799
(dp3800
g61
(dp3801
sg70
g3579
sg63
(lp3802
g56
(g77
g58
NtRp3803
(dp3804
g61
(dp3805
sg70
g3799
sg63
(lp3806
g56
(g57
g58
NtRp3807
(dp3808
g61
(dp3809
g69
I2
ssg70
g3803
sg63
(lp3810
g56
(g65
g58
NtRp3811
(dp3812
g61
(dp3813
g69
I1
ssg70
Nsg63
(lp3814
g56
(g72
g58
NtRp3815
(dp3816
g61
(dp3817
sg70
g3811
sg63
(lp3818
g56
(g77
g58
NtRp3819
(dp3820
g61
(dp3821
sg70
g3815
sg63
(lp3822
g56
(g57
g58
NtRp3823
(dp3824
g61
(dp3825
g69
I1
ssg70
g3819
sg63
(lp3826
g3471
(S's\x08\x00\x00\x00DB Model'
tRp3827
asbasbasbag56
(g72
g58
NtRp3828
(dp3829
g61
(dp3830
sg70
g3811
sg63
(lp3831
g56
(g77
g58
NtRp3832
(dp3833
g61
(dp3834
sg70
g3828
sg63
(lp3835
g56
(g57
g58
NtRp3836
(dp3837
g61
(dp3838
g69
I1
ssg70
g3832
sg63
(lp3839
I00
asbasbasbag56
(g72
g58
NtRp3840
(dp3841
g61
(dp3842
sg70
g3811
sg63
(lp3843
g56
(g77
g58
NtRp3844
(dp3845
g61
(dp3846
sg70
g3840
sg63
(lp3847
g56
(g57
g58
NtRp3848
(dp3849
g61
(dp3850
g69
I1
ssg70
g3844
sg63
(lp3851
S'/admin/edit/welcome/models/db.py'
p3852
asbasbasbasbasbasbasbag56
(g72
g58
NtRp3853
(dp3854
g61
(dp3855
sg70
g3579
sg63
(lp3856
g56
(g77
g58
NtRp3857
(dp3858
g61
(dp3859
sg70
g3853
sg63
(lp3860
g56
(g57
g58
NtRp3861
(dp3862
g61
(dp3863
g69
I2
ssg70
g3857
sg63
(lp3864
g56
(g65
g58
NtRp3865
(dp3866
g61
(dp3867
g69
I1
ssg70
Nsg63
(lp3868
g56
(g72
g58
NtRp3869
(dp3870
g61
(dp3871
sg70
g3865
sg63
(lp3872
g56
(g77
g58
NtRp3873
(dp3874
g61
(dp3875
sg70
g3869
sg63
(lp3876
g56
(g57
g58
NtRp3877
(dp3878
g61
(dp3879
g69
I1
ssg70
g3873
sg63
(lp3880
g3471
(S's\n\x00\x00\x00Menu Model'
tRp3881
asbasbasbag56
(g72
g58
NtRp3882
(dp3883
g61
(dp3884
sg70
g3865
sg63
(lp3885
g56
(g77
g58
NtRp3886
(dp3887
g61
(dp3888
sg70
g3882
sg63
(lp3889
g56
(g57
g58
NtRp3890
(dp3891
g61
(dp3892
g69
I1
ssg70
g3886
sg63
(lp3893
I00
asbasbasbag56
(g72
g58
NtRp3894
(dp3895
g61
(dp3896
sg70
g3865
sg63
(lp3897
g56
(g77
g58
NtRp3898
(dp3899
g61
(dp3900
sg70
g3894
sg63
(lp3901
g56
(g57
g58
NtRp3902
(dp3903
g61
(dp3904
g69
I1
ssg70
g3898
sg63
(lp3905
S'/admin/edit/welcome/models/menu.py'
p3906
asbasbasbasbasbasbasbag56
(g72
g58
NtRp3907
(dp3908
g61
(dp3909
sg70
g3579
sg63
(lp3910
g56
(g77
g58
NtRp3911
(dp3912
g61
(dp3913
sg70
g3907
sg63
(lp3914
g56
(g57
g58
NtRp3915
(dp3916
g61
(dp3917
g69
I2
ssg70
g3911
sg63
(lp3918
g56
(g65
g58
NtRp3919
(dp3920
g61
(dp3921
g69
I1
ssg70
Nsg63
(lp3922
g56
(g72
g58
NtRp3923
(dp3924
g61
(dp3925
sg70
g3919
sg63
(lp3926
g56
(g77
g58
NtRp3927
(dp3928
g61
(dp3929
sg70
g3923
sg63
(lp3930
g56
(g57
g58
NtRp3931
(dp3932
g61
(dp3933
g69
I1
ssg70
g3927
sg63
(lp3934
g3471
(S's\x08\x00\x00\x00Database'
tRp3935
asbasbasbag56
(g72
g58
NtRp3936
(dp3937
g61
(dp3938
sg70
g3919
sg63
(lp3939
g56
(g77
g58
NtRp3940
(dp3941
g61
(dp3942
sg70
g3936
sg63
(lp3943
g56
(g57
g58
NtRp3944
(dp3945
g61
(dp3946
g69
I1
ssg70
g3940
sg63
(lp3947
I00
asbasbasbag56
(g72
g58
NtRp3948
(dp3949
g61
(dp3950
sg70
g3919
sg63
(lp3951
g56
(g77
g58
NtRp3952
(dp3953
g61
(dp3954
sg70
g3948
sg63
(lp3955
g56
(g57
g58
NtRp3956
(dp3957
g61
(dp3958
g69
I1
ssg70
g3952
sg63
(lp3959
S'/appadmin'
p3960
asbasbasbasbasbasbasbag56
(g72
g58
NtRp3961
(dp3962
g61
(dp3963
sg70
g3579
sg63
(lp3964
g56
(g77
g58
NtRp3965
(dp3966
g61
(dp3967
sg70
g3961
sg63
(lp3968
g56
(g57
g58
NtRp3969
(dp3970
g61
(dp3971
g69
I2
ssg70
g3965
sg63
(lp3972
g56
(g65
g58
NtRp3973
(dp3974
g61
(dp3975
g69
I1
ssg70
Nsg63
(lp3976
g56
(g72
g58
NtRp3977
(dp3978
g61
(dp3979
sg70
g3973
sg63
(lp3980
g56
(g77
g58
NtRp3981
(dp3982
g61
(dp3983
sg70
g3977
sg63
(lp3984
g56
(g57
g58
NtRp3985
(dp3986
g61
(dp3987
g69
I1
ssg70
g3981
sg63
(lp3988
g3471
(S's\x06\x00\x00\x00Errors'
tRp3989
asbasbasbag56
(g72
g58
NtRp3990
(dp3991
g61
(dp3992
sg70
g3973
sg63
(lp3993
g56
(g77
g58
NtRp3994
(dp3995
g61
(dp3996
sg70
g3990
sg63
(lp3997
g56
(g57
g58
NtRp3998
(dp3999
g61
(dp4000
g69
I1
ssg70
g3994
sg63
(lp4001
I00
asbasbasbag56
(g72
g58
NtRp4002
(dp4003
g61
(dp4004
sg70
g3973
sg63
(lp4005
g56
(g77
g58
NtRp4006
(dp4007
g61
(dp4008
sg70
g4002
sg63
(lp4009
g56
(g57
g58
NtRp4010
(dp4011
g61
(dp4012
g69
I1
ssg70
g4006
sg63
(lp4013
S'/admin/errors/welcome'
p4014
asbasbasbasbasbasbasbag56
(g72
g58
NtRp4015
(dp4016
g61
(dp4017
sg70
g3579
sg63
(lp4018
g56
(g77
g58
NtRp4019
(dp4020
g61
(dp4021
sg70
g4015
sg63
(lp4022
g56
(g57
g58
NtRp4023
(dp4024
g61
(dp4025
g69
I2
ssg70
g4019
sg63
(lp4026
g56
(g65
g58
NtRp4027
(dp4028
g61
(dp4029
g69
I1
ssg70
Nsg63
(lp4030
g56
(g72
g58
NtRp4031
(dp4032
g61
(dp4033
sg70
g4027
sg63
(lp4034
g56
(g77
g58
NtRp4035
(dp4036
g61
(dp4037
sg70
g4031
sg63
(lp4038
g56
(g57
g58
NtRp4039
(dp4040
g61
(dp4041
g69
I1
ssg70
g4035
sg63
(lp4042
g3471
(S's\x05\x00\x00\x00About'
tRp4043
asbasbasbag56
(g72
g58
NtRp4044
(dp4045
g61
(dp4046
sg70
g4027
sg63
(lp4047
g56
(g77
g58
NtRp4048
(dp4049
g61
(dp4050
sg70
g4044
sg63
(lp4051
g56
(g57
g58
NtRp4052
(dp4053
g61
(dp4054
g69
I1
ssg70
g4048
sg63
(lp4055
I00
asbasbasbag56
(g72
g58
NtRp4056
(dp4057
g61
(dp4058
sg70
g4027
sg63
(lp4059
g56
(g77
g58
NtRp4060
(dp4061
g61
(dp4062
sg70
g4056
sg63
(lp4063
g56
(g57
g58
NtRp4064
(dp4065
g61
(dp4066
g69
I1
ssg70
g4060
sg63
(lp4067
S'/admin/about/welcome'
p4068
asbasbasbasbasbasbasbasbasbasbasbasbasbasbasbag56
(g72
g58
NtRp4069
(dp4070
g61
(dp4071
sg70
g3439
sg63
(lp4072
g56
(g77
g58
NtRp4073
(dp4074
g61
(dp4075
sg70
g4069
sg63
(lp4076
g56
(g57
g58
NtRp4077
(dp4078
g61
(dp4079
g69
I4
ssg70
g4073
sg63
(lp4080
g56
(g65
g58
NtRp4081
(dp4082
g61
(dp4083
g69
I3
ssg70
Nsg63
(lp4084
g56
(g72
g58
NtRp4085
(dp4086
g61
(dp4087
sg70
g4081
sg63
(lp4088
g56
(g77
g58
NtRp4089
(dp4090
g61
(dp4091
sg70
g4085
sg63
(lp4092
g56
(g57
g58
NtRp4093
(dp4094
g61
(dp4095
g69
I3
ssg70
g4089
sg63
(lp4096
g3471
(S's\t\x00\x00\x00Resources'
tRp4097
asbasbasbag56
(g72
g58
NtRp4098
(dp4099
g61
(dp4100
sg70
g4081
sg63
(lp4101
g56
(g77
g58
NtRp4102
(dp4103
g61
(dp4104
sg70
g4098
sg63
(lp4105
g56
(g57
g58
NtRp4106
(dp4107
g61
(dp4108
g69
I3
ssg70
g4102
sg63
(lp4109
g99
asbasbasbag56
(g72
g58
NtRp4110
(dp4111
g61
(dp4112
sg70
g4081
sg63
(lp4113
g56
(g77
g58
NtRp4114
(dp4115
g61
(dp4116
sg70
g4110
sg63
(lp4117
g56
(g57
g58
NtRp4118
(dp4119
g61
(dp4120
g69
I3
ssg70
g4114
sg63
(lp4121
S'None'
p4122
asbasbasbag56
(g72
g58
NtRp4123
(dp4124
g61
(dp4125
sg70
g4081
sg63
(lp4126
g56
(g77
g58
NtRp4127
(dp4128
g61
(dp4129
sg70
g4123
sg63
(lp4130
g56
(g57
g58
NtRp4131
(dp4132
g61
(dp4133
g69
I3
ssg70
g4127
sg63
(lp4134
g56
(g65
g58
NtRp4135
(dp4136
g61
(dp4137
g69
I2
ssg70
Nsg63
(lp4138
g56
(g72
g58
NtRp4139
(dp4140
g61
(dp4141
sg70
g4135
sg63
(lp4142
g56
(g77
g58
NtRp4143
(dp4144
g61
(dp4145
sg70
g4139
sg63
(lp4146
g56
(g57
g58
NtRp4147
(dp4148
g61
(dp4149
g69
I2
ssg70
g4143
sg63
(lp4150
g56
(g65
g58
NtRp4151
(dp4152
g61
(dp4153
g69
I1
ssg70
Nsg63
(lp4154
g56
(g72
g58
NtRp4155
(dp4156
g61
(dp4157
sg70
g4151
sg63
(lp4158
g56
(g77
g58
NtRp4159
(dp4160
g61
(dp4161
sg70
g4155
sg63
(lp4162
g56
(g57
g58
NtRp4163
(dp4164
g61
(dp4165
g69
I1
ssg70
g4159
sg63
(lp4166
g3471
(S's\r\x00\x00\x00Documentation'
tRp4167
asbasbasbag56
(g72
g58
NtRp4168
(dp4169
g61
(dp4170
sg70
g4151
sg63
(lp4171
g56
(g77
g58
NtRp4172
(dp4173
g61
(dp4174
sg70
g4168
sg63
(lp4175
g56
(g57
g58
NtRp4176
(dp4177
g61
(dp4178
g69
I1
ssg70
g4172
sg63
(lp4179
I00
asbasbasbag56
(g72
g58
NtRp4180
(dp4181
g61
(dp4182
sg70
g4151
sg63
(lp4183
g56
(g77
g58
NtRp4184
(dp4185
g61
(dp4186
sg70
g4180
sg63
(lp4187
g56
(g57
g58
NtRp4188
(dp4189
g61
(dp4190
g69
I1
ssg70
g4184
sg63
(lp4191
S'http://www.web2py.com/book'
p4192
asbasbasbag56
(g72
g58
NtRp4193
(dp4194
g61
(dp4195
sg70
g4151
sg63
(lp4196
g56
(g77
g58
NtRp4197
(dp4198
g61
(dp4199
sg70
g4193
sg63
(lp4200
g56
(g57
g58
NtRp4201
(dp4202
g61
(dp4203
g69
I1
ssg70
g4197
sg63
(lp4204
(lp4205
(g3471
(S's\x07\x00\x00\x00Preface'
tRp4206
I00
S'http://www.web2py.com/book/default/chapter/00'
p4207
tp4208
a(g3471
(S's\x0c\x00\x00\x00Introduction'
tRp4209
I00
S'http://www.web2py.com/book/default/chapter/01'
p4210
tp4211
a(g3471
(S's\x06\x00\x00\x00Python'
tRp4212
I00
S'http://www.web2py.com/book/default/chapter/02'
p4213
tp4214
a(g3471
(S's\x08\x00\x00\x00Overview'
tRp4215
I00
S'http://www.web2py.com/book/default/chapter/03'
p4216
tp4217
a(g3471
(S's\x08\x00\x00\x00The Core'
tRp4218
I00
S'http://www.web2py.com/book/default/chapter/04'
p4219
tp4220
a(g3471
(S's\t\x00\x00\x00The Views'
tRp4221
I00
S'http://www.web2py.com/book/default/chapter/05'
p4222
tp4223
a(g3471
(S's\x08\x00\x00\x00Database'
tRp4224
I00
S'http://www.web2py.com/book/default/chapter/06'
p4225
tp4226
a(g3471
(S's\x14\x00\x00\x00Forms and Validators'
tRp4227
I00
S'http://www.web2py.com/book/default/chapter/07'
p4228
tp4229
a(g3471
(S's\x0e\x00\x00\x00Access Control'
tRp4230
I00
S'http://www.web2py.com/book/default/chapter/08'
p4231
tp4232
a(g3471
(S's\x08\x00\x00\x00Services'
tRp4233
I00
S'http://www.web2py.com/book/default/chapter/09'
p4234
tp4235
a(g3471
(S's\x0c\x00\x00\x00Ajax Recipes'
tRp4236
I00
S'http://www.web2py.com/book/default/chapter/10'
p4237
tp4238
a(g3471
(S's\x12\x00\x00\x00Deployment Recipes'
tRp4239
I00
S'http://www.web2py.com/book/default/chapter/11'
p4240
tp4241
a(g3471
(S's\r\x00\x00\x00Other Recipes'
tRp4242
I00
S'http://www.web2py.com/book/default/chapter/12'
p4243
tp4244
a(g3471
(S's\r\x00\x00\x00Buy this book'
tRp4245
I00
S'http://stores.lulu.com/web2py'
p4246
tp4247
aasbasbasbasbasbasbasbag56
(g72
g58
NtRp4248
(dp4249
g61
(dp4250
sg70
g4135
sg63
(lp4251
g56
(g77
g58
NtRp4252
(dp4253
g61
(dp4254
sg70
g4248
sg63
(lp4255
g56
(g57
g58
NtRp4256
(dp4257
g61
(dp4258
g69
I2
ssg70
g4252
sg63
(lp4259
g56
(g65
g58
NtRp4260
(dp4261
g61
(dp4262
g69
I1
ssg70
Nsg63
(lp4263
g56
(g72
g58
NtRp4264
(dp4265
g61
(dp4266
sg70
g4260
sg63
(lp4267
g56
(g77
g58
NtRp4268
(dp4269
g61
(dp4270
sg70
g4264
sg63
(lp4271
g56
(g57
g58
NtRp4272
(dp4273
g61
(dp4274
g69
I1
ssg70
g4268
sg63
(lp4275
g3471
(S's\t\x00\x00\x00Community'
tRp4276
asbasbasbag56
(g72
g58
NtRp4277
(dp4278
g61
(dp4279
sg70
g4260
sg63
(lp4280
g56
(g77
g58
NtRp4281
(dp4282
g61
(dp4283
sg70
g4277
sg63
(lp4284
g56
(g57
g58
NtRp4285
(dp4286
g61
(dp4287
g69
I1
ssg70
g4281
sg63
(lp4288
I00
asbasbasbag56
(g72
g58
NtRp4289
(dp4290
g61
(dp4291
sg70
g4260
sg63
(lp4292
g56
(g77
g58
NtRp4293
(dp4294
g61
(dp4295
sg70
g4289
sg63
(lp4296
g56
(g57
g58
NtRp4297
(dp4298
g61
(dp4299
g69
I1
ssg70
g4293
sg63
(lp4300
Nasbasbasbag56
(g72
g58
NtRp4301
(dp4302
g61
(dp4303
sg70
g4260
sg63
(lp4304
g56
(g77
g58
NtRp4305
(dp4306
g61
(dp4307
sg70
g4301
sg63
(lp4308
g56
(g57
g58
NtRp4309
(dp4310
g61
(dp4311
g69
I1
ssg70
g4305
sg63
(lp4312
(lp4313
(g3471
(S's\x06\x00\x00\x00Groups'
tRp4314
I00
S'http://www.web2py.com/examples/default/usergroups'
p4315
tp4316
a(g3471
(S's\x07\x00\x00\x00Twitter'
tRp4317
I00
S'http://twitter.com/web2py'
p4318
tp4319
a(g3471
(S's\t\x00\x00\x00Live chat'
tRp4320
I00
S'http://mibbit.com/?channel=%23web2py&server=irc.mibbit.net'
p4321
tp4322
a(g3471
(S's\n\x00\x00\x00User Voice'
tRp4323
I00
S'http://web2py.uservoice.com/'
p4324
tp4325
aasbasbasbasbasbasbasbag56
(g72
g58
NtRp4326
(dp4327
g61
(dp4328
sg70
g4135
sg63
(lp4329
g56
(g77
g58
NtRp4330
(dp4331
g61
(dp4332
sg70
g4326
sg63
(lp4333
g56
(g57
g58
NtRp4334
(dp4335
g61
(dp4336
g69
I2
ssg70
g4330
sg63
(lp4337
g56
(g65
g58
NtRp4338
(dp4339
g61
(dp4340
g69
I1
ssg70
Nsg63
(lp4341
g56
(g72
g58
NtRp4342
(dp4343
g61
(dp4344
sg70
g4338
sg63
(lp4345
g56
(g77
g58
NtRp4346
(dp4347
g61
(dp4348
sg70
g4342
sg63
(lp4349
g56
(g57
g58
NtRp4350
(dp4351
g61
(dp4352
g69
I1
ssg70
g4346
sg63
(lp4353
g3471
(S's\x06\x00\x00\x00Web2py'
tRp4354
asbasbasbag56
(g72
g58
NtRp4355
(dp4356
g61
(dp4357
sg70
g4338
sg63
(lp4358
g56
(g77
g58
NtRp4359
(dp4360
g61
(dp4361
sg70
g4355
sg63
(lp4362
g56
(g57
g58
NtRp4363
(dp4364
g61
(dp4365
g69
I1
ssg70
g4359
sg63
(lp4366
I00
asbasbasbag56
(g72
g58
NtRp4367
(dp4368
g61
(dp4369
sg70
g4338
sg63
(lp4370
g56
(g77
g58
NtRp4371
(dp4372
g61
(dp4373
sg70
g4367
sg63
(lp4374
g56
(g57
g58
NtRp4375
(dp4376
g61
(dp4377
g69
I1
ssg70
g4371
sg63
(lp4378
S'http://www.web2py.com'
p4379
asbasbasbag56
(g72
g58
NtRp4380
(dp4381
g61
(dp4382
sg70
g4338
sg63
(lp4383
g56
(g77
g58
NtRp4384
(dp4385
g61
(dp4386
sg70
g4380
sg63
(lp4387
g56
(g57
g58
NtRp4388
(dp4389
g61
(dp4390
g69
I1
ssg70
g4384
sg63
(lp4391
(lp4392
(g3471
(S's\x08\x00\x00\x00Download'
tRp4393
I00
S'http://www.web2py.com/examples/default/download'
p4394
tp4395
a(g3471
(S's\x07\x00\x00\x00Support'
tRp4396
I00
S'http://www.web2py.com/examples/default/support'
p4397
tp4398
a(g3471
(S's\x0e\x00\x00\x00Quick Examples'
tRp4399
I00
S'http://web2py.com/examples/default/examples'
p4400
tp4401
a(g3471
(S's\x03\x00\x00\x00FAQ'
tRp4402
I00
S'http://web2py.com/AlterEgo'
p4403
tp4404
a(g3471
(S's\x11\x00\x00\x00Free Applications'
tRp4405
I00
S'http://web2py.com/appliances'
p4406
tp4407
a(g3471
(S's\x07\x00\x00\x00Plugins'
tRp4408
I00
S'http://web2py.com/plugins'
p4409
tp4410
a(g3471
(S's\x07\x00\x00\x00Recipes'
tRp4411
I00
S'http://web2pyslices.com/'
p4412
tp4413
a(g3471
(S's\x04\x00\x00\x00Demo'
tRp4414
I00
S'http://web2py.com/demo_admin'
p4415
tp4416
a(g3471
(S's\x08\x00\x00\x00Semantic'
tRp4417
I00
S'http://web2py.com/semantic'
p4418
tp4419
a(g3471
(S's\x07\x00\x00\x00Layouts'
tRp4420
I00
S'http://web2py.com/layouts'
p4421
tp4422
a(g3471
(S's\x06\x00\x00\x00Videos'
tRp4423
I00
S'http://www.web2py.com/examples/default/videos/'
p4424
tp4425
aasbasbasbasbasbasbasbasbasbasbasbasbasbasbasbasbasbasbasbag56
(g72
g58
NtRp4426
(dp4427
g61
(dp4428
sg70
g2888
sg63
(lp4429
g56
(g77
g58
NtRp4430
(dp4431
g61
(dp4432
g81
g82
ssg70
g4426
sg63
(lp4433
S'meta'
p4434
asbag56
(g77
g58
NtRp4435
(dp4436
g61
(dp4437
g88
g89
ssg70
g4426
sg63
(lp4438
S':'
asbag56
(g77
g58
NtRp4439
(dp4440
g61
(dp4441
sg70
g4426
sg63
(lp4442
g56
(g57
g58
NtRp4443
(dp4444
g61
(dp4445
g69
I5
ssg70
g4439
sg63
(lp4446
g56
(g65
g58
NtRp4447
(dp4448
g61
(dp4449
g69
I4
ssg70
Nsg63
(lp4450
g56
(g72
g58
NtRp4451
(dp4452
g61
(dp4453
sg70
g4447
sg63
(lp4454
g56
(g77
g58
NtRp4455
(dp4456
g61
(dp4457
g81
g82
ssg70
g4451
sg63
(lp4458
S'author'
p4459
asbag56
(g77
g58
NtRp4460
(dp4461
g61
(dp4462
g88
g89
ssg70
g4451
sg63
(lp4463
S':'
asbag56
(g77
g58
NtRp4464
(dp4465
g61
(dp4466
sg70
g4451
sg63
(lp4467
g56
(g57
g58
NtRp4468
(dp4469
g61
(dp4470
g69
I4
ssg70
g4464
sg63
(lp4471
S'Your Name <you@example.com>'
p4472
asbasbasbag56
(g72
g58
NtRp4473
(dp4474
g61
(dp4475
sg70
g4447
sg63
(lp4476
g56
(g77
g58
NtRp4477
(dp4478
g61
(dp4479
g81
g82
ssg70
g4473
sg63
(lp4480
S'copyright'
p4481
asbag56
(g77
g58
NtRp4482
(dp4483
g61
(dp4484
g88
g89
ssg70
g4473
sg63
(lp4485
S':'
asbag56
(g77
g58
NtRp4486
(dp4487
g61
(dp4488
sg70
g4473
sg63
(lp4489
g56
(g57
g58
NtRp4490
(dp4491
g61
(dp4492
g69
I4
ssg70
g4486
sg63
(lp4493
S'Copyright 2011'
p4494
asbasbasbag56
(g72
g58
NtRp4495
(dp4496
g61
(dp4497
sg70
g4447
sg63
(lp4498
g56
(g77
g58
NtRp4499
(dp4500
g61
(dp4501
g81
g82
ssg70
g4495
sg63
(lp4502
S'description'
p4503
asbag56
(g77
g58
NtRp4504
(dp4505
g61
(dp4506
g88
g89
ssg70
g4495
sg63
(lp4507
S':'
asbag56
(g77
g58
NtRp4508
(dp4509
g61
(dp4510
sg70
g4495
sg63
(lp4511
g56
(g57
g58
NtRp4512
(dp4513
g61
(dp4514
g69
I4
ssg70
g4508
sg63
(lp4515
S'a cool new app'
p4516
asbasbasbag56
(g72
g58
NtRp4517
(dp4518
g61
(dp4519
sg70
g4447
sg63
(lp4520
g56
(g77
g58
NtRp4521
(dp4522
g61
(dp4523
g81
g82
ssg70
g4517
sg63
(lp4524
S'generator'
p4525
asbag56
(g77
g58
NtRp4526
(dp4527
g61
(dp4528
g88
g89
ssg70
g4517
sg63
(lp4529
S':'
asbag56
(g77
g58
NtRp4530
(dp4531
g61
(dp4532
sg70
g4517
sg63
(lp4533
g56
(g57
g58
NtRp4534
(dp4535
g61
(dp4536
g69
I4
ssg70
g4530
sg63
(lp4537
S'Web2py Web Framework'
p4538
asbasbasbag56
(g72
g58
NtRp4539
(dp4540
g61
(dp4541
sg70
g4447
sg63
(lp4542
g56
(g77
g58
NtRp4543
(dp4544
g61
(dp4545
g81
g82
ssg70
g4539
sg63
(lp4546
S'keywords'
p4547
asbag56
(g77
g58
NtRp4548
(dp4549
g61
(dp4550
g88
g89
ssg70
g4539
sg63
(lp4551
S':'
asbag56
(g77
g58
NtRp4552
(dp4553
g61
(dp4554
sg70
g4539
sg63
(lp4555
g56
(g57
g58
NtRp4556
(dp4557
g61
(dp4558
g69
I4
ssg70
g4552
sg63
(lp4559
S'web2py, python, framework'
p4560
asbasbasbasbasbasbasbag56
(g72
g58
NtRp4561
(dp4562
g61
(dp4563
sg70
g2888
sg63
(lp4564
g56
(g77
g58
NtRp4565
(dp4566
g61
(dp4567
g81
g82
ssg70
g4561
sg63
(lp4568
S'postprocessing'
p4569
asbag56
(g77
g58
NtRp4570
(dp4571
g61
(dp4572
g88
g89
ssg70
g4561
sg63
(lp4573
S':'
asbag56
(g77
g58
NtRp4574
(dp4575
g61
(dp4576
sg70
g4561
sg63
(lp4577
g56
(g57
g58
NtRp4578
(dp4579
g61
(dp4580
g69
I5
ssg70
g4574
sg63
(lp4581
g56
(g65
g58
NtRp4582
(dp4583
g61
(dp4584
g69
I4
ssg70
Nsg63
(lp4585
sbasbasbasbag56
(g72
g58
NtRp4586
(dp4587
g61
(dp4588
sg70
g2888
sg63
(lp4589
g56
(g77
g58
NtRp4590
(dp4591
g61
(dp4592
g81
g82
ssg70
g4586
sg63
(lp4593
S'session_filename'
p4594
asbag56
(g77
g58
NtRp4595
(dp4596
g61
(dp4597
g88
g89
ssg70
g4586
sg63
(lp4598
S':'
asbag56
(g77
g58
NtRp4599
(dp4600
g61
(dp4601
sg70
g4586
sg63
(lp4602
g56
(g57
g58
NtRp4603
(dp4604
g61
(dp4605
g69
I5
ssg70
g4599
sg63
(lp4606
S'/Users/excon/Sites/dreamscape/applications/welcome/sessions/127.0.0.1-31ffabeb-d124-4862-bef0-dad894735b94'
p4607
asbasbasbag56
(g72
g58
NtRp4608
(dp4609
g61
(dp4610
sg70
g2888
sg63
(lp4611
g56
(g77
g58
NtRp4612
(dp4613
g61
(dp4614
g81
g82
ssg70
g4608
sg63
(lp4615
S'session_id'
p4616
asbag56
(g77
g58
NtRp4617
(dp4618
g61
(dp4619
g88
g89
ssg70
g4608
sg63
(lp4620
S':'
asbag56
(g77
g58
NtRp4621
(dp4622
g61
(dp4623
sg70
g4608
sg63
(lp4624
g56
(g57
g58
NtRp4625
(dp4626
g61
(dp4627
g69
I5
ssg70
g4621
sg63
(lp4628
S'127.0.0.1-31ffabeb-d124-4862-bef0-dad894735b94'
p4629
asbasbasbag56
(g72
g58
NtRp4630
(dp4631
g61
(dp4632
sg70
g2888
sg63
(lp4633
g56
(g77
g58
NtRp4634
(dp4635
g61
(dp4636
g81
g82
ssg70
g4630
sg63
(lp4637
S'session_id_name'
p4638
asbag56
(g77
g58
NtRp4639
(dp4640
g61
(dp4641
g88
g89
ssg70
g4630
sg63
(lp4642
S':'
asbag56
(g77
g58
NtRp4643
(dp4644
g61
(dp4645
sg70
g4630
sg63
(lp4646
g56
(g57
g58
NtRp4647
(dp4648
g61
(dp4649
g69
I5
ssg70
g4643
sg63
(lp4650
g2945
asbasbasbag56
(g72
g58
NtRp4651
(dp4652
g61
(dp4653
sg70
g2888
sg63
(lp4654
g56
(g77
g58
NtRp4655
(dp4656
g61
(dp4657
g81
g82
ssg70
g4651
sg63
(lp4658
S'session_new'
p4659
asbag56
(g77
g58
NtRp4660
(dp4661
g61
(dp4662
g88
g89
ssg70
g4651
sg63
(lp4663
S':'
asbag56
(g77
g58
NtRp4664
(dp4665
g61
(dp4666
sg70
g4651
sg63
(lp4667
g56
(g57
g58
NtRp4668
(dp4669
g61
(dp4670
g69
I5
ssg70
g4664
sg63
(lp4671
g1491
asbasbasbag56
(g72
g58
NtRp4672
(dp4673
g61
(dp4674
sg70
g2888
sg63
(lp4675
g56
(g77
g58
NtRp4676
(dp4677
g61
(dp4678
g81
g82
ssg70
g4672
sg63
(lp4679
S'status'
p4680
asbag56
(g77
g58
NtRp4681
(dp4682
g61
(dp4683
g88
g89
ssg70
g4672
sg63
(lp4684
S':'
asbag56
(g77
g58
NtRp4685
(dp4686
g61
(dp4687
sg70
g4672
sg63
(lp4688
g56
(g57
g58
NtRp4689
(dp4690
g61
(dp4691
g69
I5
ssg70
g4685
sg63
(lp4692
S'200'
p4693
asbasbasbag56
(g72
g58
NtRp4694
(dp4695
g61
(dp4696
sg70
g2888
sg63
(lp4697
g56
(g77
g58
NtRp4698
(dp4699
g61
(dp4700
g81
g82
ssg70
g4694
sg63
(lp4701
S'subtitle'
p4702
asbag56
(g77
g58
NtRp4703
(dp4704
g61
(dp4705
g88
g89
ssg70
g4694
sg63
(lp4706
S':'
asbag56
(g77
g58
NtRp4707
(dp4708
g61
(dp4709
sg70
g4694
sg63
(lp4710
g56
(g57
g58
NtRp4711
(dp4712
g61
(dp4713
g69
I5
ssg70
g4707
sg63
(lp4714
g3471
(S's\r\x00\x00\x00customize me!'
tRp4715
asbasbasbag56
(g72
g58
NtRp4716
(dp4717
g61
(dp4718
sg70
g2888
sg63
(lp4719
g56
(g77
g58
NtRp4720
(dp4721
g61
(dp4722
g81
g82
ssg70
g4716
sg63
(lp4723
S'title'
p4724
asbag56
(g77
g58
NtRp4725
(dp4726
g61
(dp4727
g88
g89
ssg70
g4716
sg63
(lp4728
S':'
asbag56
(g77
g58
NtRp4729
(dp4730
g61
(dp4731
sg70
g4716
sg63
(lp4732
g56
(g57
g58
NtRp4733
(dp4734
g61
(dp4735
g69
I5
ssg70
g4729
sg63
(lp4736
g121
asbasbasbag56
(g72
g58
NtRp4737
(dp4738
g61
(dp4739
sg70
g2888
sg63
(lp4740
g56
(g77
g58
NtRp4741
(dp4742
g61
(dp4743
g81
g82
ssg70
g4737
sg63
(lp4744
g2134
asbag56
(g77
g58
NtRp4745
(dp4746
g61
(dp4747
g88
g89
ssg70
g4737
sg63
(lp4748
S':'
asbag56
(g77
g58
NtRp4749
(dp4750
g61
(dp4751
sg70
g4737
sg63
(lp4752
g56
(g57
g58
NtRp4753
(dp4754
g61
(dp4755
g69
I5
ssg70
g4749
sg63
(lp4756
g2147
asbasbasbag56
(g72
g58
NtRp4757
(dp4758
g61
(dp4759
sg70
g2888
sg63
(lp4760
g56
(g77
g58
NtRp4761
(dp4762
g61
(dp4763
g81
g82
ssg70
g4757
sg63
(lp4764
S'view'
p4765
asbag56
(g77
g58
NtRp4766
(dp4767
g61
(dp4768
g88
g89
ssg70
g4757
sg63
(lp4769
S':'
asbag56
(g77
g58
NtRp4770
(dp4771
g61
(dp4772
sg70
g4757
sg63
(lp4773
g56
(g57
g58
NtRp4774
(dp4775
g61
(dp4776
g69
I5
ssg70
g4770
sg63
(lp4777
S'default/index.html'
p4778
asbasbasbasbasbsS'locals'
p4779
(dp4780
S'Service'
p4781
S"<class 'gluon.tools.Service'>"
p4782
sS'OBJECT'
p4783
S"<class 'gluon.html.OBJECT'>"
p4784
sS'SQLDB'
p4785
S"<class 'gluon.dal.DAL'>"
p4786
sg2870
S"<Storage {'_Session__hash': '\\xc8[\\xd5\\xc1#\\xd8e\\x10\\xe3\\x06\\x0ba\\xddT\\x92m'}>"
p4787
sS'LINK'
p4788
S"<class 'gluon.html.LINK'>"
p4789
sS'BR'
p4790
S"<class 'gluon.html.BR'>"
p4791
sS'local_import'
p4792
S'<function <lambda> at 0x100791a28>'
p4793
sS'OPTGROUP'
p4794
S"<class 'gluon.html.OPTGROUP'>"
p4795
sS'PRE'
p4796
S"<class 'gluon.html.PRE'>"
p4797
sS'IS_INT_IN_RANGE'
p4798
S"<class 'gluon.validators.IS_INT_IN_RANGE'>"
p4799
sS'left_sidebar_enabled'
p4800
g99
sS'IS_LOWER'
p4801
S"<class 'gluon.validators.IS_LOWER'>"
p4802
sS'IS_STRONG'
p4803
S"<class 'gluon.validators.IS_STRONG'>"
p4804
sS'cache'
p4805
S'<gluon.cache.Cache object at 0x1007c8250>'
p4806
sS'IS_IN_DB'
p4807
S"<class 'gluon.validators.IS_IN_DB'>"
p4808
sS'TAG'
p4809
S'<gluon.html.__TAG__ object at 0x10071d410>'
p4810
sS'SQLField'
p4811
S"<class 'gluon.dal.Field'>"
p4812
sS'mail'
p4813
S'<gluon.tools.Mail object at 0x1015587d0>'
p4814
sS'BODY'
p4815
S"<class 'gluon.html.BODY'>"
p4816
sS'IS_DATE_IN_RANGE'
p4817
S"<class 'gluon.validators.IS_DATE_IN_RANGE'>"
p4818
sS'TH'
p4819
S"<class 'gluon.html.TH'>"
p4820
sS'URL'
p4821
S'<function URL at 0x100554de8>'
p4822
sS'__file__'
p4823
S"'/Users/excon/Sites/dreamscape/applications/welcome/views/default/index.html'"
p4824
sS'db'
p4825
S"<DAL {'auth_event': <Table {'origin': <gluon.dal...'id': <gluon.dal.Field object at 0x1010ae810>}>}>"
p4826
sS'auth'
p4827
S'<gluon.tools.Auth object at 0x101558690>'
p4828
sS'P'
S"<class 'gluon.html.P'>"
p4829
sS'TFOOT'
p4830
S"<class 'gluon.html.TFOOT'>"
p4831
sS'XHTML'
p4832
S"<class 'gluon.html.XHTML'>"
p4833
sS'ON'
p4834
g1491
sS'OL'
p4835
S"<class 'gluon.html.OL'>"
p4836
sS'TEXTAREA'
p4837
S"<class 'gluon.html.TEXTAREA'>"
p4838
sS'MENU'
p4839
S"<class 'gluon.html.MENU'>"
p4840
sS'LOAD'
p4841
S'<gluon.compileapp.LoadFactory object at 0x1007c8f50>'
p4842
sS'CODE'
p4843
S"<class 'gluon.html.CODE'>"
p4844
sS'HTTP'
p4845
S"<class 'gluon.http.HTTP'>"
p4846
sS'HR'
p4847
S"<class 'gluon.html.HR'>"
p4848
sS'IS_DATETIME'
p4849
S"<class 'gluon.validators.IS_DATETIME'>"
p4850
sS'HEAD'
p4851
S"<class 'gluon.html.HEAD'>"
p4852
sS'LABEL'
p4853
S"<class 'gluon.html.LABEL'>"
p4854
sS'CLEANUP'
p4855
S"<class 'gluon.validators.CLEANUP'>"
p4856
sS'plugins'
p4857
S'<gluon.tools.PluginManager object at 0x10109dd10>'
p4858
sS'SELECT'
p4859
S"<class 'gluon.html.SELECT'>"
p4860
sS'use_janrain'
p4861
S'<function use_janrain at 0x1010ac320>'
p4862
sS'CENTER'
p4863
S"<class 'gluon.html.CENTER'>"
p4864
sS'prettydate'
p4865
S'<function prettydate at 0x1010a59b0>'
p4866
sS'Crud'
p4867
S"<class 'gluon.tools.Crud'>"
p4868
sS'Auth'
p4869
S"<class 'gluon.tools.Auth'>"
p4870
sS'__builtins__'
p4871
S"{'ArithmeticError': <type 'exceptions.ArithmeticError'>, 'AssertionError': <type 'exceptions.AssertionError'>, 'AttributeError': <type 'exceptions.AttributeError'>, 'BaseException': <type 'exceptions.BaseException'>, 'BufferError': <type 'exceptions.BufferError'>, 'BytesWarning': <type 'exceptions.BytesWarning'>, 'DeprecationWarning': <type 'exceptions.DeprecationWarning'>, 'EOFError': <type 'exceptions.EOFError'>, 'Ellipsis': Ellipsis, 'EnvironmentError': <type 'exceptions.EnvironmentError'>, ...}"
p4872
sS'BEAUTIFY'
p4873
S"<class 'gluon.html.BEAUTIFY'>"
p4874
sS'SQLFORM'
p4875
S"<class 'gluon.sqlhtml.SQLFORM'>"
p4876
sS'EM'
p4877
S"<class 'gluon.html.EM'>"
p4878
sS'redirect'
p4879
S'<function redirect at 0x101040758>'
p4880
sS'FIELDSET'
p4881
S"<class 'gluon.html.FIELDSET'>"
p4882
sS'IS_EQUAL_TO'
p4883
S"<class 'gluon.validators.IS_EQUAL_TO'>"
p4884
sS'embed64'
p4885
S'<function embed64 at 0x10068ff50>'
p4886
sS'IS_LIST_OF'
p4887
S"<class 'gluon.validators.IS_LIST_OF'>"
p4888
sS'INPUT'
p4889
S"<class 'gluon.html.INPUT'>"
p4890
sS'EMBED'
p4891
S"<class 'gluon.html.EMBED'>"
p4892
sS'_'
S'<function _ at 0x1010ac230>'
p4893
sS'FORM'
p4894
S"<class 'gluon.html.FORM'>"
p4895
sS'width_content'
p4896
S"'100%'"
p4897
sS'H2'
p4898
S"<class 'gluon.html.H2'>"
p4899
sS'H3'
p4900
S"<class 'gluon.html.H3'>"
p4901
sS'BUTTON'
p4902
S"<class 'gluon.html.BUTTON'>"
p4903
sS'H1'
p4904
S"<class 'gluon.html.H1'>"
p4905
sS'H6'
p4906
S"<class 'gluon.html.H6'>"
p4907
sS'H4'
p4908
S"<class 'gluon.html.H4'>"
p4909
sS'H5'
p4910
S"<class 'gluon.html.H5'>"
p4911
sS'UL'
p4912
S"<class 'gluon.html.UL'>"
p4913
sS'IS_UPPER'
p4914
S"<class 'gluon.validators.IS_UPPER'>"
p4915
sS'xmlescape'
p4916
S'<function xmlescape at 0x10054b0c8>'
p4917
sS'IS_TIME'
p4918
S"<class 'gluon.validators.IS_TIME'>"
p4919
sS'OPTION'
p4920
S"<class 'gluon.html.OPTION'>"
p4921
sS'TITLE'
p4922
S"<class 'gluon.html.TITLE'>"
p4923
sS'CRYPT'
p4924
S"<class 'gluon.validators.CRYPT'>"
p4925
sS'IS_EMPTY_OR'
p4926
S"<class 'gluon.validators.IS_EMPTY_OR'>"
p4927
sS'MARKMIN'
p4928
S"<class 'gluon.html.MARKMIN'>"
p4929
sS'COL'
p4930
S"<class 'gluon.html.COL'>"
p4931
sS'service'
p4932
S'<gluon.tools.Service object at 0x10109dcd0>'
p4933
sS'SCRIPT'
p4934
S"<class 'gluon.html.SCRIPT'>"
p4935
sS'TABLE'
p4936
S"<class 'gluon.html.TABLE'>"
p4937
sS'IS_IPV4'
p4938
S"<class 'gluon.validators.IS_IPV4'>"
p4939
sS'IS_LENGTH'
p4940
S"<class 'gluon.validators.IS_LENGTH'>"
p4941
sS'XML'
p4942
S"<class 'gluon.html.XML'>"
p4943
sS'B'
S"<class 'gluon.html.B'>"
p4944
sS'IMG'
p4945
S"<class 'gluon.html.IMG'>"
p4946
sS'SQLTABLE'
p4947
S"<class 'gluon.sqlhtml.SQLTABLE'>"
p4948
sS'IS_MATCH'
p4949
S"<class 'gluon.validators.IS_MATCH'>"
p4950
sS'IS_ALPHANUMERIC'
p4951
S"<class 'gluon.validators.IS_ALPHANUMERIC'>"
p4952
sS'SPAN'
p4953
S"<class 'gluon.html.SPAN'>"
p4954
sS'IS_SLUG'
p4955
S"<class 'gluon.validators.IS_SLUG'>"
p4956
sS'num'
p4957
S'1'
sS'META'
p4958
S"<class 'gluon.html.META'>"
p4959
sS'IS_DATE'
p4960
S"<class 'gluon.validators.IS_DATE'>"
p4961
sS'IS_EMAIL'
p4962
S"<class 'gluon.validators.IS_EMAIL'>"
p4963
sS'IS_NOT_EMPTY'
p4964
S"<class 'gluon.validators.IS_NOT_EMPTY'>"
p4965
sS'IS_FLOAT_IN_RANGE'
p4966
S"<class 'gluon.validators.IS_FLOAT_IN_RANGE'>"
p4967
sS'TBODY'
p4968
S"<class 'gluon.html.TBODY'>"
p4969
sS'CAT'
p4970
S"<class 'gluon.html.CAT'>"
p4971
sS'Field'
p4972
S"<class 'gluon.dal.Field'>"
p4973
sS'DIV'
p4974
S"<class 'gluon.html.DIV'>"
p4975
sS'LEGEND'
p4976
S"<class 'gluon.html.LEGEND'>"
p4977
sS'COLGROUP'
p4978
S"<class 'gluon.html.COLGROUP'>"
p4979
sS'DAL'
p4980
S"<class 'gluon.dal.DAL'>"
p4981
sS'TT'
p4982
S"<class 'gluon.html.TT'>"
p4983
sS'TR'
p4984
S"<class 'gluon.html.TR'>"
p4985
sS'LI'
p4986
S"<class 'gluon.html.LI'>"
p4987
sS'right_sidebar_enabled'
p4988
g99
sS'IFRAME'
p4989
S"<class 'gluon.html.IFRAME'>"
p4990
sS'TD'
p4991
S"<class 'gluon.html.TD'>"
p4992
sS'PluginManager'
p4993
S"<class 'gluon.tools.PluginManager'>"
p4994
sS'IS_URL'
p4995
S"<class 'gluon.validators.IS_URL'>"
p4996
sS'A'
S"<class 'gluon.html.A'>"
p4997
sS'STYLE'
p4998
S"<class 'gluon.html.STYLE'>"
p4999
sS'IS_DATETIME_IN_RANGE'
p5000
S"<class 'gluon.validators.IS_DATETIME_IN_RANGE'>"
p5001
sS'HTML'
p5002
S"<class 'gluon.html.HTML'>"
p5003
sS'IS_IMAGE'
p5004
S"<class 'gluon.validators.IS_IMAGE'>"
p5005
sS'nums'
p5006
S'(1, 2, 3, 4)'
p5007
sS'I'
S"<class 'gluon.html.I'>"
p5008
sS'crud'
p5009
S'<gluon.tools.Crud object at 0x10109dc90>'
p5010
sS'right_sidebar_style'
p5011
S'\'style="display: none;"\''
p5012
sS'IS_NOT_IN_DB'
p5013
S"<class 'gluon.validators.IS_NOT_IN_DB'>"
p5014
sg2883
S"<Storage {'status': 200, 'body': <cStringIO.Stri...js/superfish.js'], 'view': 'default/index.html'}>"
p5015
sS'THEAD'
p5016
S"<class 'gluon.html.THEAD'>"
p5017
sS'IS_NULL_OR'
p5018
S"<class 'gluon.validators.IS_EMPTY_OR'>"
p5019
sS'left_sidebar_style'
p5020
S'\'style="display: none;"\''
p5021
sg55
S"<Storage {'body': <cStringIO.StringO object at 0..._vars': <Storage {}>, 'post_vars': <Storage {}>}>"
p5022
sS'IS_EXPR'
p5023
S"<class 'gluon.validators.IS_EXPR'>"
p5024
sS'T'
S'<gluon.languages.translator object at 0x1007c8210>'
p5025
sS'IS_IN_SET'
p5026
S"<class 'gluon.validators.IS_IN_SET'>"
p5027
sS'IS_UPLOAD_FILENAME'
p5028
S"<class 'gluon.validators.IS_UPLOAD_FILENAME'>"
p5029
sS'style_content'
p5030
S'\'style="width: 100%"\''
p5031
sS'IS_DECIMAL_IN_RANGE'
p5032
S"<class 'gluon.validators.IS_DECIMAL_IN_RANGE'>"
p5033
sssS'traceback'
p5034
S'Traceback (most recent call last):\n  File "/Users/excon/Sites/dreamscape/gluon/restricted.py", line 194, in restricted\n    exec ccode in environment\n  File "/Users/excon/Sites/dreamscape/applications/welcome/views/default/index.html", line 84, in <module>\nTypeError: cannot concatenate \'str\' and \'int\' objects\n'
p5035
s.