(dp1
S'output'
p2
S''
sS'layer'
p3
S'/Users/excon/Sites/dreamscape/applications/welcome/controllers/default.py'
p4
sS'code'
p5
S'# -*- coding: utf-8 -*-\n# this file is released under public domain and you can use without limitations\n\n#########################################################################\n## This is a samples controller\n## - index is the default action of any application\n## - user is required for authentication and authorization\n## - download is for downloading files uploaded in the db (does streaming)\n## - call exposes all registered services (none by default)\n#########################################################################\n\nCOMING_SOON = True\n\ndef index():\n    """\n    example action using the internationalization operator T and flash\n    rendered by views/default/index.html or views/generic.html\n    """\n    if COMING_SOON:\n        redirect(URL(r=request, f=\'coming_soon\'))\n    return dict()\n    \ndef coming_soon():\n    form = SQLFORM.factory(db.invitation, submit_button=\'DREAM\')\n            \n    if form.process().accepted:\n        db.invitation.insert(email=form.vars.email)\n        response.flash = \'You have wonderful dreams!\'\n    elif form.errors:\n        response.flash = \'Invalid Email\'\n    else:\n        response.flash = \'Type your email\'\n        \n    return dict(form=form, invitations=emails)\n\ndef user():\n    """\n    exposes:\n    http://..../[app]/default/user/login\n    http://..../[app]/default/user/logout\n    http://..../[app]/default/user/register\n    http://..../[app]/default/user/profile\n    http://..../[app]/default/user/retrieve_password\n    http://..../[app]/default/user/change_password\n    use @auth.requires_login()\n        @auth.requires_membership(\'group name\')\n        @auth.requires_permission(\'read\',\'table name\',record_id)\n    to decorate functions that need access control\n    """\n    if COMING_SOON:\n        redirect(URL(r=request, f=\'coming_soon\'))\n    return dict(form=auth())\n\n\ndef download():\n    """\n    allows downloading of uploaded files\n    http://..../[app]/default/download/[filename]\n    """\n    if COMING_SOON:\n        redirect(URL(r=request, f=\'coming_soon\'))\n    return response.download(request,db)\n\n\ndef call():\n    """\n    exposes services. for example:\n    http://..../[app]/default/call/jsonrpc\n    decorate with @services.jsonrpc the functions to expose\n    supports xml, json, xmlrpc, jsonrpc, amfrpc, rss, csv\n    """\n    if COMING_SOON:\n        redirect(URL(r=request, f=\'coming_soon\'))\n    return service()\n\n\n@auth.requires_signature()\ndef data():\n    """\n    http://..../[app]/default/data/tables\n    http://..../[app]/default/data/create/[table]\n    http://..../[app]/default/data/read/[table]/[id]\n    http://..../[app]/default/data/update/[table]/[id]\n    http://..../[app]/default/data/delete/[table]/[id]\n    http://..../[app]/default/data/select/[table]\n    http://..../[app]/default/data/search/[table]\n    but URLs bust be signed, i.e. linked with\n      A(\'table\',_href=URL(\'data/tables\',user_signature=True))\n    or with the signed load operator\n      LOAD(\'default\',\'data.load\',args=\'tables\',ajax=True,user_signature=True)\n    """\n    if COMING_SOON:\n        redirect(URL(r=request, f=\'coming_soon\'))\n    return dict(form=crud())\n\nresponse._vars=response._caller(coming_soon)\n'
p6
sS'snapshot'
p7
(dp8
S'exception'
p9
(dp10
S'__hash__'
p11
S"<method-wrapper '__hash__' of exceptions.NameError object at 0x1016d5ea8>"
p12
sS'__setattr__'
p13
S"<method-wrapper '__setattr__' of exceptions.NameError object at 0x1016d5ea8>"
p14
sS'__reduce_ex__'
p15
S'<built-in method __reduce_ex__ of exceptions.NameError object at 0x1016d5ea8>'
p16
sS'__getslice__'
p17
S"<method-wrapper '__getslice__' of exceptions.NameError object at 0x1016d5ea8>"
p18
sS'__getitem__'
p19
S"<method-wrapper '__getitem__' of exceptions.NameError object at 0x1016d5ea8>"
p20
sS'__setstate__'
p21
S'<built-in method __setstate__ of exceptions.NameError object at 0x1016d5ea8>'
p22
sS'args'
p23
S'("global name \'emails\' is not defined",)'
p24
sS'__reduce__'
p25
S'<built-in method __reduce__ of exceptions.NameError object at 0x1016d5ea8>'
p26
sS'__str__'
p27
S"<method-wrapper '__str__' of exceptions.NameError object at 0x1016d5ea8>"
p28
sS'__format__'
p29
S'<built-in method __format__ of exceptions.NameError object at 0x1016d5ea8>'
p30
sS'__getattribute__'
p31
S"<method-wrapper '__getattribute__' of exceptions.NameError object at 0x1016d5ea8>"
p32
sS'__class__'
p33
S"<type 'exceptions.NameError'>"
p34
sS'__unicode__'
p35
S'<built-in method __unicode__ of exceptions.NameError object at 0x1016d5ea8>'
p36
sS'__delattr__'
p37
S"<method-wrapper '__delattr__' of exceptions.NameError object at 0x1016d5ea8>"
p38
sS'__subclasshook__'
p39
S'<built-in method __subclasshook__ of type object at 0x10011b640>'
p40
sS'__repr__'
p41
S"<method-wrapper '__repr__' of exceptions.NameError object at 0x1016d5ea8>"
p42
sS'__dict__'
p43
S'{}'
p44
sS'__sizeof__'
p45
S'<built-in method __sizeof__ of exceptions.NameError object at 0x1016d5ea8>'
p46
sS'__doc__'
p47
S"'Name not found globally.'"
p48
sS'__init__'
p49
S"<method-wrapper '__init__' of exceptions.NameError object at 0x1016d5ea8>"
p50
sS'__new__'
p51
S'<built-in method __new__ of type object at 0x10011b640>'
p52
ssS'evalue'
p53
S"global name 'emails' is not defined"
p54
sS'request'
p55
ccopy_reg
_reconstructor
p56
(cgluon.html
BEAUTIFY
p57
c__builtin__
object
p58
NtRp59
(dp60
S'attributes'
p61
(dp62
sS'components'
p63
(lp64
g56
(cgluon.html
TABLE
p65
g58
NtRp66
(dp67
g61
(dp68
S'level'
p69
I5
ssS'parent'
p70
Nsg63
(lp71
g56
(cgluon.html
TR
p72
g58
NtRp73
(dp74
g61
(dp75
sg70
g66
sg63
(lp76
g56
(cgluon.html
TD
p77
g58
NtRp78
(dp79
g61
(dp80
S'_style'
p81
S'font-weight:bold;'
p82
ssg70
g73
sg63
(lp83
S'ajax'
p84
asbag56
(g77
g58
NtRp85
(dp86
g61
(dp87
S'_valign'
p88
S'top'
p89
ssg70
g73
sg63
(lp90
S':'
asbag56
(g77
g58
NtRp91
(dp92
g61
(dp93
sg70
g73
sg63
(lp94
g56
(g57
g58
NtRp95
(dp96
g61
(dp97
g69
I5
ssg70
g91
sg63
(lp98
S'False'
p99
asbasbasbag56
(g72
g58
NtRp100
(dp101
g61
(dp102
sg70
g66
sg63
(lp103
g56
(g77
g58
NtRp104
(dp105
g61
(dp106
g81
g82
ssg70
g100
sg63
(lp107
S'application'
p108
asbag56
(g77
g58
NtRp109
(dp110
g61
(dp111
g88
g89
ssg70
g100
sg63
(lp112
S':'
asbag56
(g77
g58
NtRp113
(dp114
g61
(dp115
sg70
g100
sg63
(lp116
g56
(g57
g58
NtRp117
(dp118
g61
(dp119
g69
I5
ssg70
g113
sg63
(lp120
S'welcome'
p121
asbasbasbag56
(g72
g58
NtRp122
(dp123
g61
(dp124
sg70
g66
sg63
(lp125
g56
(g77
g58
NtRp126
(dp127
g61
(dp128
g81
g82
ssg70
g122
sg63
(lp129
g23
asbag56
(g77
g58
NtRp130
(dp131
g61
(dp132
g88
g89
ssg70
g122
sg63
(lp133
S':'
asbag56
(g77
g58
NtRp134
(dp135
g61
(dp136
sg70
g122
sg63
(lp137
g56
(g57
g58
NtRp138
(dp139
g61
(dp140
g69
I5
ssg70
g134
sg63
(lp141
g56
(g65
g58
NtRp142
(dp143
g61
(dp144
g69
I4
ssg70
Nsg63
(lp145
sbasbasbasbag56
(g72
g58
NtRp146
(dp147
g61
(dp148
sg70
g66
sg63
(lp149
g56
(g77
g58
NtRp150
(dp151
g61
(dp152
g81
g82
ssg70
g146
sg63
(lp153
S'body'
p154
asbag56
(g77
g58
NtRp155
(dp156
g61
(dp157
g88
g89
ssg70
g146
sg63
(lp158
S':'
asbag56
(g77
g58
NtRp159
(dp160
g61
(dp161
sg70
g146
sg63
(lp162
g56
(g57
g58
NtRp163
(dp164
g61
(dp165
g69
I5
ssg70
g159
sg63
(lp166
S"<open file '<fdopen>', mode 'w+b' at 0x101ae7828>"
p167
asbasbasbag56
(g72
g58
NtRp168
(dp169
g61
(dp170
sg70
g66
sg63
(lp171
g56
(g77
g58
NtRp172
(dp173
g61
(dp174
g81
g82
ssg70
g168
sg63
(lp175
S'client'
p176
asbag56
(g77
g58
NtRp177
(dp178
g61
(dp179
g88
g89
ssg70
g168
sg63
(lp180
S':'
asbag56
(g77
g58
NtRp181
(dp182
g61
(dp183
sg70
g168
sg63
(lp184
g56
(g57
g58
NtRp185
(dp186
g61
(dp187
g69
I5
ssg70
g181
sg63
(lp188
S'127.0.0.1'
p189
asbasbasbag56
(g72
g58
NtRp190
(dp191
g61
(dp192
sg70
g66
sg63
(lp193
g56
(g77
g58
NtRp194
(dp195
g61
(dp196
g81
g82
ssg70
g190
sg63
(lp197
S'controller'
p198
asbag56
(g77
g58
NtRp199
(dp200
g61
(dp201
g88
g89
ssg70
g190
sg63
(lp202
S':'
asbag56
(g77
g58
NtRp203
(dp204
g61
(dp205
sg70
g190
sg63
(lp206
g56
(g57
g58
NtRp207
(dp208
g61
(dp209
g69
I5
ssg70
g203
sg63
(lp210
S'default'
p211
asbasbasbag56
(g72
g58
NtRp212
(dp213
g61
(dp214
sg70
g66
sg63
(lp215
g56
(g77
g58
NtRp216
(dp217
g61
(dp218
g81
g82
ssg70
g212
sg63
(lp219
S'cookies'
p220
asbag56
(g77
g58
NtRp221
(dp222
g61
(dp223
g88
g89
ssg70
g212
sg63
(lp224
S':'
asbag56
(g77
g58
NtRp225
(dp226
g61
(dp227
sg70
g212
sg63
(lp228
g56
(g57
g58
NtRp229
(dp230
g61
(dp231
g69
I5
ssg70
g225
sg63
(lp232
g56
(g65
g58
NtRp233
(dp234
g61
(dp235
g69
I4
ssg70
Nsg63
(lp236
g56
(g72
g58
NtRp237
(dp238
g61
(dp239
sg70
g233
sg63
(lp240
g56
(g77
g58
NtRp241
(dp242
g61
(dp243
g81
g82
ssg70
g237
sg63
(lp244
S'session_id_admin'
p245
asbag56
(g77
g58
NtRp246
(dp247
g61
(dp248
g88
g89
ssg70
g237
sg63
(lp249
S':'
asbag56
(g77
g58
NtRp250
(dp251
g61
(dp252
sg70
g237
sg63
(lp253
g56
(g57
g58
NtRp254
(dp255
g61
(dp256
g69
I4
ssg70
g250
sg63
(lp257
g56
(g65
g58
NtRp258
(dp259
g61
(dp260
g69
I3
ssg70
Nsg63
(lp261
g56
(g72
g58
NtRp262
(dp263
g61
(dp264
sg70
g258
sg63
(lp265
g56
(g77
g58
NtRp266
(dp267
g61
(dp268
g81
g82
ssg70
g262
sg63
(lp269
S'comment'
p270
asbag56
(g77
g58
NtRp271
(dp272
g61
(dp273
g88
g89
ssg70
g262
sg63
(lp274
S':'
asbag56
(g77
g58
NtRp275
(dp276
g61
(dp277
sg70
g262
sg63
(lp278
g56
(g57
g58
NtRp279
(dp280
g61
(dp281
g69
I3
ssg70
g275
sg63
(lp282
S''
asbasbasbag56
(g72
g58
NtRp283
(dp284
g61
(dp285
sg70
g258
sg63
(lp286
g56
(g77
g58
NtRp287
(dp288
g61
(dp289
g81
g82
ssg70
g283
sg63
(lp290
S'domain'
p291
asbag56
(g77
g58
NtRp292
(dp293
g61
(dp294
g88
g89
ssg70
g283
sg63
(lp295
S':'
asbag56
(g77
g58
NtRp296
(dp297
g61
(dp298
sg70
g283
sg63
(lp299
g56
(g57
g58
NtRp300
(dp301
g61
(dp302
g69
I3
ssg70
g296
sg63
(lp303
S''
asbasbasbag56
(g72
g58
NtRp304
(dp305
g61
(dp306
sg70
g258
sg63
(lp307
g56
(g77
g58
NtRp308
(dp309
g61
(dp310
g81
g82
ssg70
g304
sg63
(lp311
S'expires'
p312
asbag56
(g77
g58
NtRp313
(dp314
g61
(dp315
g88
g89
ssg70
g304
sg63
(lp316
S':'
asbag56
(g77
g58
NtRp317
(dp318
g61
(dp319
sg70
g304
sg63
(lp320
g56
(g57
g58
NtRp321
(dp322
g61
(dp323
g69
I3
ssg70
g317
sg63
(lp324
S''
asbasbasbag56
(g72
g58
NtRp325
(dp326
g61
(dp327
sg70
g258
sg63
(lp328
g56
(g77
g58
NtRp329
(dp330
g61
(dp331
g81
g82
ssg70
g325
sg63
(lp332
S'httponly'
p333
asbag56
(g77
g58
NtRp334
(dp335
g61
(dp336
g88
g89
ssg70
g325
sg63
(lp337
S':'
asbag56
(g77
g58
NtRp338
(dp339
g61
(dp340
sg70
g325
sg63
(lp341
g56
(g57
g58
NtRp342
(dp343
g61
(dp344
g69
I3
ssg70
g338
sg63
(lp345
S''
asbasbasbag56
(g72
g58
NtRp346
(dp347
g61
(dp348
sg70
g258
sg63
(lp349
g56
(g77
g58
NtRp350
(dp351
g61
(dp352
g81
g82
ssg70
g346
sg63
(lp353
S'max-age'
p354
asbag56
(g77
g58
NtRp355
(dp356
g61
(dp357
g88
g89
ssg70
g346
sg63
(lp358
S':'
asbag56
(g77
g58
NtRp359
(dp360
g61
(dp361
sg70
g346
sg63
(lp362
g56
(g57
g58
NtRp363
(dp364
g61
(dp365
g69
I3
ssg70
g359
sg63
(lp366
S''
asbasbasbag56
(g72
g58
NtRp367
(dp368
g61
(dp369
sg70
g258
sg63
(lp370
g56
(g77
g58
NtRp371
(dp372
g61
(dp373
g81
g82
ssg70
g367
sg63
(lp374
S'path'
p375
asbag56
(g77
g58
NtRp376
(dp377
g61
(dp378
g88
g89
ssg70
g367
sg63
(lp379
S':'
asbag56
(g77
g58
NtRp380
(dp381
g61
(dp382
sg70
g367
sg63
(lp383
g56
(g57
g58
NtRp384
(dp385
g61
(dp386
g69
I3
ssg70
g380
sg63
(lp387
S''
asbasbasbag56
(g72
g58
NtRp388
(dp389
g61
(dp390
sg70
g258
sg63
(lp391
g56
(g77
g58
NtRp392
(dp393
g61
(dp394
g81
g82
ssg70
g388
sg63
(lp395
S'secure'
p396
asbag56
(g77
g58
NtRp397
(dp398
g61
(dp399
g88
g89
ssg70
g388
sg63
(lp400
S':'
asbag56
(g77
g58
NtRp401
(dp402
g61
(dp403
sg70
g388
sg63
(lp404
g56
(g57
g58
NtRp405
(dp406
g61
(dp407
g69
I3
ssg70
g401
sg63
(lp408
S''
asbasbasbag56
(g72
g58
NtRp409
(dp410
g61
(dp411
sg70
g258
sg63
(lp412
g56
(g77
g58
NtRp413
(dp414
g61
(dp415
g81
g82
ssg70
g409
sg63
(lp416
S'version'
p417
asbag56
(g77
g58
NtRp418
(dp419
g61
(dp420
g88
g89
ssg70
g409
sg63
(lp421
S':'
asbag56
(g77
g58
NtRp422
(dp423
g61
(dp424
sg70
g409
sg63
(lp425
g56
(g57
g58
NtRp426
(dp427
g61
(dp428
g69
I3
ssg70
g422
sg63
(lp429
S''
asbasbasbasbasbasbasbag56
(g72
g58
NtRp430
(dp431
g61
(dp432
sg70
g233
sg63
(lp433
g56
(g77
g58
NtRp434
(dp435
g61
(dp436
g81
g82
ssg70
g430
sg63
(lp437
S'session_id_welcome'
p438
asbag56
(g77
g58
NtRp439
(dp440
g61
(dp441
g88
g89
ssg70
g430
sg63
(lp442
S':'
asbag56
(g77
g58
NtRp443
(dp444
g61
(dp445
sg70
g430
sg63
(lp446
g56
(g57
g58
NtRp447
(dp448
g61
(dp449
g69
I4
ssg70
g443
sg63
(lp450
g56
(g65
g58
NtRp451
(dp452
g61
(dp453
g69
I3
ssg70
Nsg63
(lp454
g56
(g72
g58
NtRp455
(dp456
g61
(dp457
sg70
g451
sg63
(lp458
g56
(g77
g58
NtRp459
(dp460
g61
(dp461
g81
g82
ssg70
g455
sg63
(lp462
g270
asbag56
(g77
g58
NtRp463
(dp464
g61
(dp465
g88
g89
ssg70
g455
sg63
(lp466
S':'
asbag56
(g77
g58
NtRp467
(dp468
g61
(dp469
sg70
g455
sg63
(lp470
g56
(g57
g58
NtRp471
(dp472
g61
(dp473
g69
I3
ssg70
g467
sg63
(lp474
S''
asbasbasbag56
(g72
g58
NtRp475
(dp476
g61
(dp477
sg70
g451
sg63
(lp478
g56
(g77
g58
NtRp479
(dp480
g61
(dp481
g81
g82
ssg70
g475
sg63
(lp482
g291
asbag56
(g77
g58
NtRp483
(dp484
g61
(dp485
g88
g89
ssg70
g475
sg63
(lp486
S':'
asbag56
(g77
g58
NtRp487
(dp488
g61
(dp489
sg70
g475
sg63
(lp490
g56
(g57
g58
NtRp491
(dp492
g61
(dp493
g69
I3
ssg70
g487
sg63
(lp494
S''
asbasbasbag56
(g72
g58
NtRp495
(dp496
g61
(dp497
sg70
g451
sg63
(lp498
g56
(g77
g58
NtRp499
(dp500
g61
(dp501
g81
g82
ssg70
g495
sg63
(lp502
g312
asbag56
(g77
g58
NtRp503
(dp504
g61
(dp505
g88
g89
ssg70
g495
sg63
(lp506
S':'
asbag56
(g77
g58
NtRp507
(dp508
g61
(dp509
sg70
g495
sg63
(lp510
g56
(g57
g58
NtRp511
(dp512
g61
(dp513
g69
I3
ssg70
g507
sg63
(lp514
S''
asbasbasbag56
(g72
g58
NtRp515
(dp516
g61
(dp517
sg70
g451
sg63
(lp518
g56
(g77
g58
NtRp519
(dp520
g61
(dp521
g81
g82
ssg70
g515
sg63
(lp522
g333
asbag56
(g77
g58
NtRp523
(dp524
g61
(dp525
g88
g89
ssg70
g515
sg63
(lp526
S':'
asbag56
(g77
g58
NtRp527
(dp528
g61
(dp529
sg70
g515
sg63
(lp530
g56
(g57
g58
NtRp531
(dp532
g61
(dp533
g69
I3
ssg70
g527
sg63
(lp534
S''
asbasbasbag56
(g72
g58
NtRp535
(dp536
g61
(dp537
sg70
g451
sg63
(lp538
g56
(g77
g58
NtRp539
(dp540
g61
(dp541
g81
g82
ssg70
g535
sg63
(lp542
g354
asbag56
(g77
g58
NtRp543
(dp544
g61
(dp545
g88
g89
ssg70
g535
sg63
(lp546
S':'
asbag56
(g77
g58
NtRp547
(dp548
g61
(dp549
sg70
g535
sg63
(lp550
g56
(g57
g58
NtRp551
(dp552
g61
(dp553
g69
I3
ssg70
g547
sg63
(lp554
S''
asbasbasbag56
(g72
g58
NtRp555
(dp556
g61
(dp557
sg70
g451
sg63
(lp558
g56
(g77
g58
NtRp559
(dp560
g61
(dp561
g81
g82
ssg70
g555
sg63
(lp562
g375
asbag56
(g77
g58
NtRp563
(dp564
g61
(dp565
g88
g89
ssg70
g555
sg63
(lp566
S':'
asbag56
(g77
g58
NtRp567
(dp568
g61
(dp569
sg70
g555
sg63
(lp570
g56
(g57
g58
NtRp571
(dp572
g61
(dp573
g69
I3
ssg70
g567
sg63
(lp574
S''
asbasbasbag56
(g72
g58
NtRp575
(dp576
g61
(dp577
sg70
g451
sg63
(lp578
g56
(g77
g58
NtRp579
(dp580
g61
(dp581
g81
g82
ssg70
g575
sg63
(lp582
g396
asbag56
(g77
g58
NtRp583
(dp584
g61
(dp585
g88
g89
ssg70
g575
sg63
(lp586
S':'
asbag56
(g77
g58
NtRp587
(dp588
g61
(dp589
sg70
g575
sg63
(lp590
g56
(g57
g58
NtRp591
(dp592
g61
(dp593
g69
I3
ssg70
g587
sg63
(lp594
S''
asbasbasbag56
(g72
g58
NtRp595
(dp596
g61
(dp597
sg70
g451
sg63
(lp598
g56
(g77
g58
NtRp599
(dp600
g61
(dp601
g81
g82
ssg70
g595
sg63
(lp602
g417
asbag56
(g77
g58
NtRp603
(dp604
g61
(dp605
g88
g89
ssg70
g595
sg63
(lp606
S':'
asbag56
(g77
g58
NtRp607
(dp608
g61
(dp609
sg70
g595
sg63
(lp610
g56
(g57
g58
NtRp611
(dp612
g61
(dp613
g69
I3
ssg70
g607
sg63
(lp614
S''
asbasbasbasbasbasbasbasbasbasbasbag56
(g72
g58
NtRp615
(dp616
g61
(dp617
sg70
g66
sg63
(lp618
g56
(g77
g58
NtRp619
(dp620
g61
(dp621
g81
g82
ssg70
g615
sg63
(lp622
S'env'
p623
asbag56
(g77
g58
NtRp624
(dp625
g61
(dp626
g88
g89
ssg70
g615
sg63
(lp627
S':'
asbag56
(g77
g58
NtRp628
(dp629
g61
(dp630
sg70
g615
sg63
(lp631
g56
(g57
g58
NtRp632
(dp633
g61
(dp634
g69
I5
ssg70
g628
sg63
(lp635
g56
(g65
g58
NtRp636
(dp637
g61
(dp638
g69
I4
ssg70
Nsg63
(lp639
g56
(g72
g58
NtRp640
(dp641
g61
(dp642
sg70
g636
sg63
(lp643
g56
(g77
g58
NtRp644
(dp645
g61
(dp646
g81
g82
ssg70
g640
sg63
(lp647
S'app_folders'
p648
asbag56
(g77
g58
NtRp649
(dp650
g61
(dp651
g88
g89
ssg70
g640
sg63
(lp652
S':'
asbag56
(g77
g58
NtRp653
(dp654
g61
(dp655
sg70
g640
sg63
(lp656
g56
(g57
g58
NtRp657
(dp658
g61
(dp659
g69
I4
ssg70
g653
sg63
(lp660
S"set(['/Users/excon/Sites/dreamscape/applications/welcome/', '/Users/excon/Sites/dreamscape/applications/admin/'])"
p661
asbasbasbag56
(g72
g58
NtRp662
(dp663
g61
(dp664
sg70
g636
sg63
(lp665
g56
(g77
g58
NtRp666
(dp667
g61
(dp668
g81
g82
ssg70
g662
sg63
(lp669
S'applications_parent'
p670
asbag56
(g77
g58
NtRp671
(dp672
g61
(dp673
g88
g89
ssg70
g662
sg63
(lp674
S':'
asbag56
(g77
g58
NtRp675
(dp676
g61
(dp677
sg70
g662
sg63
(lp678
g56
(g57
g58
NtRp679
(dp680
g61
(dp681
g69
I4
ssg70
g675
sg63
(lp682
S'/Users/excon/Sites/dreamscape'
p683
asbasbasbag56
(g72
g58
NtRp684
(dp685
g61
(dp686
sg70
g636
sg63
(lp687
g56
(g77
g58
NtRp688
(dp689
g61
(dp690
g81
g82
ssg70
g684
sg63
(lp691
S'cmd_args'
p692
asbag56
(g77
g58
NtRp693
(dp694
g61
(dp695
g88
g89
ssg70
g684
sg63
(lp696
S':'
asbag56
(g77
g58
NtRp697
(dp698
g61
(dp699
sg70
g684
sg63
(lp700
g56
(g57
g58
NtRp701
(dp702
g61
(dp703
g69
I4
ssg70
g697
sg63
(lp704
g56
(g65
g58
NtRp705
(dp706
g61
(dp707
g69
I3
ssg70
Nsg63
(lp708
sbasbasbasbag56
(g72
g58
NtRp709
(dp710
g61
(dp711
sg70
g636
sg63
(lp712
g56
(g77
g58
NtRp713
(dp714
g61
(dp715
g81
g82
ssg70
g709
sg63
(lp716
S'cmd_options'
p717
asbag56
(g77
g58
NtRp718
(dp719
g61
(dp720
g88
g89
ssg70
g709
sg63
(lp721
S':'
asbag56
(g77
g58
NtRp722
(dp723
g61
(dp724
sg70
g709
sg63
(lp725
g56
(g57
g58
NtRp726
(dp727
g61
(dp728
g69
I4
ssg70
g722
sg63
(lp729
S"<Values at 0x101c08e18: {'verbose': False, 'ip': '127.0.0.1', 'shutdown_timeout': 5, 'taskbar': False, 'nocron': False, 'pid_filename': 'httpserver.pid', 'maxthreads': None, 'softcron': False, 'server_name': 'Excons-MacBook.local', 'bpython': False, 'nogui': False, 'port': 8000, 'extcron': False, 'debuglevel': 30, 'test': None, 'folder': '/Users/excon/Sites/dreamscape', 'config': '', 'import_models': False, 'winservice': '', 'shell': None, 'run': '', 'log_filename': 'httpserver.log', 'args': [''], 'ssl_ca_certificate': None, 'scheduler': None, 'profiler_filename': None, 'ssl_private_key': '', 'password': '<ask>', 'request_queue_size': 5, 'ssl_certificate': '', 'cronjob': False, 'plain': False, 'quiet': False, 'interfaces': None, 'minthreads': None, 'timeout': 10, 'numthreads': None, 'nobanner': False}>"
p730
asbasbasbag56
(g72
g58
NtRp731
(dp732
g61
(dp733
sg70
g636
sg63
(lp734
g56
(g77
g58
NtRp735
(dp736
g61
(dp737
g81
g82
ssg70
g731
sg63
(lp738
S'content_length'
p739
asbag56
(g77
g58
NtRp740
(dp741
g61
(dp742
g88
g89
ssg70
g731
sg63
(lp743
S':'
asbag56
(g77
g58
NtRp744
(dp745
g61
(dp746
sg70
g731
sg63
(lp747
g56
(g57
g58
NtRp748
(dp749
g61
(dp750
g69
I4
ssg70
g744
sg63
(lp751
S'456'
p752
asbasbasbag56
(g72
g58
NtRp753
(dp754
g61
(dp755
sg70
g636
sg63
(lp756
g56
(g77
g58
NtRp757
(dp758
g61
(dp759
g81
g82
ssg70
g753
sg63
(lp760
S'content_type'
p761
asbag56
(g77
g58
NtRp762
(dp763
g61
(dp764
g88
g89
ssg70
g753
sg63
(lp765
S':'
asbag56
(g77
g58
NtRp766
(dp767
g61
(dp768
sg70
g753
sg63
(lp769
g56
(g57
g58
NtRp770
(dp771
g61
(dp772
g69
I4
ssg70
g766
sg63
(lp773
S'multipart/form-data; boundary=---------------------------2014119113515204530388471006'
p774
asbasbasbag56
(g72
g58
NtRp775
(dp776
g61
(dp777
sg70
g636
sg63
(lp778
g56
(g77
g58
NtRp779
(dp780
g61
(dp781
g81
g82
ssg70
g775
sg63
(lp782
S'db_sessions'
p783
asbag56
(g77
g58
NtRp784
(dp785
g61
(dp786
g88
g89
ssg70
g775
sg63
(lp787
S':'
asbag56
(g77
g58
NtRp788
(dp789
g61
(dp790
sg70
g775
sg63
(lp791
g56
(g57
g58
NtRp792
(dp793
g61
(dp794
g69
I4
ssg70
g788
sg63
(lp795
S'set([])'
p796
asbasbasbag56
(g72
g58
NtRp797
(dp798
g61
(dp799
sg70
g636
sg63
(lp800
g56
(g77
g58
NtRp801
(dp802
g61
(dp803
g81
g82
ssg70
g797
sg63
(lp804
S'debugging'
p805
asbag56
(g77
g58
NtRp806
(dp807
g61
(dp808
g88
g89
ssg70
g797
sg63
(lp809
S':'
asbag56
(g77
g58
NtRp810
(dp811
g61
(dp812
sg70
g797
sg63
(lp813
g56
(g57
g58
NtRp814
(dp815
g61
(dp816
g69
I4
ssg70
g810
sg63
(lp817
g99
asbasbasbag56
(g72
g58
NtRp818
(dp819
g61
(dp820
sg70
g636
sg63
(lp821
g56
(g77
g58
NtRp822
(dp823
g61
(dp824
g81
g82
ssg70
g818
sg63
(lp825
S'gluon_parent'
p826
asbag56
(g77
g58
NtRp827
(dp828
g61
(dp829
g88
g89
ssg70
g818
sg63
(lp830
S':'
asbag56
(g77
g58
NtRp831
(dp832
g61
(dp833
sg70
g818
sg63
(lp834
g56
(g57
g58
NtRp835
(dp836
g61
(dp837
g69
I4
ssg70
g831
sg63
(lp838
S'/Users/excon/Sites/dreamscape'
p839
asbasbasbag56
(g72
g58
NtRp840
(dp841
g61
(dp842
sg70
g636
sg63
(lp843
g56
(g77
g58
NtRp844
(dp845
g61
(dp846
g81
g82
ssg70
g840
sg63
(lp847
S'http_accept'
p848
asbag56
(g77
g58
NtRp849
(dp850
g61
(dp851
g88
g89
ssg70
g840
sg63
(lp852
S':'
asbag56
(g77
g58
NtRp853
(dp854
g61
(dp855
sg70
g840
sg63
(lp856
g56
(g57
g58
NtRp857
(dp858
g61
(dp859
g69
I4
ssg70
g853
sg63
(lp860
S'text/html,application/xhtml+xml,application/xml;q=0.9,*/*;q=0.8'
p861
asbasbasbag56
(g72
g58
NtRp862
(dp863
g61
(dp864
sg70
g636
sg63
(lp865
g56
(g77
g58
NtRp866
(dp867
g61
(dp868
g81
g82
ssg70
g862
sg63
(lp869
S'http_accept_charset'
p870
asbag56
(g77
g58
NtRp871
(dp872
g61
(dp873
g88
g89
ssg70
g862
sg63
(lp874
S':'
asbag56
(g77
g58
NtRp875
(dp876
g61
(dp877
sg70
g862
sg63
(lp878
g56
(g57
g58
NtRp879
(dp880
g61
(dp881
g69
I4
ssg70
g875
sg63
(lp882
S'ISO-8859-1,utf-8;q=0.7,*;q=0.7'
p883
asbasbasbag56
(g72
g58
NtRp884
(dp885
g61
(dp886
sg70
g636
sg63
(lp887
g56
(g77
g58
NtRp888
(dp889
g61
(dp890
g81
g82
ssg70
g884
sg63
(lp891
S'http_accept_encoding'
p892
asbag56
(g77
g58
NtRp893
(dp894
g61
(dp895
g88
g89
ssg70
g884
sg63
(lp896
S':'
asbag56
(g77
g58
NtRp897
(dp898
g61
(dp899
sg70
g884
sg63
(lp900
g56
(g57
g58
NtRp901
(dp902
g61
(dp903
g69
I4
ssg70
g897
sg63
(lp904
S'gzip, deflate'
p905
asbasbasbag56
(g72
g58
NtRp906
(dp907
g61
(dp908
sg70
g636
sg63
(lp909
g56
(g77
g58
NtRp910
(dp911
g61
(dp912
g81
g82
ssg70
g906
sg63
(lp913
S'http_accept_language'
p914
asbag56
(g77
g58
NtRp915
(dp916
g61
(dp917
g88
g89
ssg70
g906
sg63
(lp918
S':'
asbag56
(g77
g58
NtRp919
(dp920
g61
(dp921
sg70
g906
sg63
(lp922
g56
(g57
g58
NtRp923
(dp924
g61
(dp925
g69
I4
ssg70
g919
sg63
(lp926
S'en-us,en;q=0.5'
p927
asbasbasbag56
(g72
g58
NtRp928
(dp929
g61
(dp930
sg70
g636
sg63
(lp931
g56
(g77
g58
NtRp932
(dp933
g61
(dp934
g81
g82
ssg70
g928
sg63
(lp935
S'http_cache_control'
p936
asbag56
(g77
g58
NtRp937
(dp938
g61
(dp939
g88
g89
ssg70
g928
sg63
(lp940
S':'
asbag56
(g77
g58
NtRp941
(dp942
g61
(dp943
sg70
g928
sg63
(lp944
g56
(g57
g58
NtRp945
(dp946
g61
(dp947
g69
I4
ssg70
g941
sg63
(lp948
S'max-age=0'
p949
asbasbasbag56
(g72
g58
NtRp950
(dp951
g61
(dp952
sg70
g636
sg63
(lp953
g56
(g77
g58
NtRp954
(dp955
g61
(dp956
g81
g82
ssg70
g950
sg63
(lp957
S'http_connection'
p958
asbag56
(g77
g58
NtRp959
(dp960
g61
(dp961
g88
g89
ssg70
g950
sg63
(lp962
S':'
asbag56
(g77
g58
NtRp963
(dp964
g61
(dp965
sg70
g950
sg63
(lp966
g56
(g57
g58
NtRp967
(dp968
g61
(dp969
g69
I4
ssg70
g963
sg63
(lp970
S'keep-alive'
p971
asbasbasbag56
(g72
g58
NtRp972
(dp973
g61
(dp974
sg70
g636
sg63
(lp975
g56
(g77
g58
NtRp976
(dp977
g61
(dp978
g81
g82
ssg70
g972
sg63
(lp979
S'http_content_length'
p980
asbag56
(g77
g58
NtRp981
(dp982
g61
(dp983
g88
g89
ssg70
g972
sg63
(lp984
S':'
asbag56
(g77
g58
NtRp985
(dp986
g61
(dp987
sg70
g972
sg63
(lp988
g56
(g57
g58
NtRp989
(dp990
g61
(dp991
g69
I4
ssg70
g985
sg63
(lp992
g752
asbasbasbag56
(g72
g58
NtRp993
(dp994
g61
(dp995
sg70
g636
sg63
(lp996
g56
(g77
g58
NtRp997
(dp998
g61
(dp999
g81
g82
ssg70
g993
sg63
(lp1000
S'http_content_type'
p1001
asbag56
(g77
g58
NtRp1002
(dp1003
g61
(dp1004
g88
g89
ssg70
g993
sg63
(lp1005
S':'
asbag56
(g77
g58
NtRp1006
(dp1007
g61
(dp1008
sg70
g993
sg63
(lp1009
g56
(g57
g58
NtRp1010
(dp1011
g61
(dp1012
g69
I4
ssg70
g1006
sg63
(lp1013
g774
asbasbasbag56
(g72
g58
NtRp1014
(dp1015
g61
(dp1016
sg70
g636
sg63
(lp1017
g56
(g77
g58
NtRp1018
(dp1019
g61
(dp1020
g81
g82
ssg70
g1014
sg63
(lp1021
S'http_cookie'
p1022
asbag56
(g77
g58
NtRp1023
(dp1024
g61
(dp1025
g88
g89
ssg70
g1014
sg63
(lp1026
S':'
asbag56
(g77
g58
NtRp1027
(dp1028
g61
(dp1029
sg70
g1014
sg63
(lp1030
g56
(g57
g58
NtRp1031
(dp1032
g61
(dp1033
g69
I4
ssg70
g1027
sg63
(lp1034
S'session_id_admin=127.0.0.1-3f2f91da-50db-4004-b086-80abaa693153; session_id_welcome=127.0.0.1-51cc951f-9f8f-44c6-96d8-bac94161d020'
p1035
asbasbasbag56
(g72
g58
NtRp1036
(dp1037
g61
(dp1038
sg70
g636
sg63
(lp1039
g56
(g77
g58
NtRp1040
(dp1041
g61
(dp1042
g81
g82
ssg70
g1036
sg63
(lp1043
S'http_host'
p1044
asbag56
(g77
g58
NtRp1045
(dp1046
g61
(dp1047
g88
g89
ssg70
g1036
sg63
(lp1048
S':'
asbag56
(g77
g58
NtRp1049
(dp1050
g61
(dp1051
sg70
g1036
sg63
(lp1052
g56
(g57
g58
NtRp1053
(dp1054
g61
(dp1055
g69
I4
ssg70
g1049
sg63
(lp1056
S'localhost:8000'
p1057
asbasbasbag56
(g72
g58
NtRp1058
(dp1059
g61
(dp1060
sg70
g636
sg63
(lp1061
g56
(g77
g58
NtRp1062
(dp1063
g61
(dp1064
g81
g82
ssg70
g1058
sg63
(lp1065
S'http_referer'
p1066
asbag56
(g77
g58
NtRp1067
(dp1068
g61
(dp1069
g88
g89
ssg70
g1058
sg63
(lp1070
S':'
asbag56
(g77
g58
NtRp1071
(dp1072
g61
(dp1073
sg70
g1058
sg63
(lp1074
g56
(g57
g58
NtRp1075
(dp1076
g61
(dp1077
g69
I4
ssg70
g1071
sg63
(lp1078
S'http://localhost:8000/welcome/default/coming_soon'
p1079
asbasbasbag56
(g72
g58
NtRp1080
(dp1081
g61
(dp1082
sg70
g636
sg63
(lp1083
g56
(g77
g58
NtRp1084
(dp1085
g61
(dp1086
g81
g82
ssg70
g1080
sg63
(lp1087
S'http_user_agent'
p1088
asbag56
(g77
g58
NtRp1089
(dp1090
g61
(dp1091
g88
g89
ssg70
g1080
sg63
(lp1092
S':'
asbag56
(g77
g58
NtRp1093
(dp1094
g61
(dp1095
sg70
g1080
sg63
(lp1096
g56
(g57
g58
NtRp1097
(dp1098
g61
(dp1099
g69
I4
ssg70
g1093
sg63
(lp1100
S'Mozilla/5.0 (Macintosh; Intel Mac OS X 10.6; rv:6.0.2) Gecko/20100101 Firefox/6.0.2'
p1101
asbasbasbag56
(g72
g58
NtRp1102
(dp1103
g61
(dp1104
sg70
g636
sg63
(lp1105
g56
(g77
g58
NtRp1106
(dp1107
g61
(dp1108
g81
g82
ssg70
g1102
sg63
(lp1109
S'is_jython'
p1110
asbag56
(g77
g58
NtRp1111
(dp1112
g61
(dp1113
g88
g89
ssg70
g1102
sg63
(lp1114
S':'
asbag56
(g77
g58
NtRp1115
(dp1116
g61
(dp1117
sg70
g1102
sg63
(lp1118
g56
(g57
g58
NtRp1119
(dp1120
g61
(dp1121
g69
I4
ssg70
g1115
sg63
(lp1122
g99
asbasbasbag56
(g72
g58
NtRp1123
(dp1124
g61
(dp1125
sg70
g636
sg63
(lp1126
g56
(g77
g58
NtRp1127
(dp1128
g61
(dp1129
g81
g82
ssg70
g1123
sg63
(lp1130
S'path_info'
p1131
asbag56
(g77
g58
NtRp1132
(dp1133
g61
(dp1134
g88
g89
ssg70
g1123
sg63
(lp1135
S':'
asbag56
(g77
g58
NtRp1136
(dp1137
g61
(dp1138
sg70
g1123
sg63
(lp1139
g56
(g57
g58
NtRp1140
(dp1141
g61
(dp1142
g69
I4
ssg70
g1136
sg63
(lp1143
S'/welcome/default/coming_soon'
p1144
asbasbasbag56
(g72
g58
NtRp1145
(dp1146
g61
(dp1147
sg70
g636
sg63
(lp1148
g56
(g77
g58
NtRp1149
(dp1150
g61
(dp1151
g81
g82
ssg70
g1145
sg63
(lp1152
S'query_string'
p1153
asbag56
(g77
g58
NtRp1154
(dp1155
g61
(dp1156
g88
g89
ssg70
g1145
sg63
(lp1157
S':'
asbag56
(g77
g58
NtRp1158
(dp1159
g61
(dp1160
sg70
g1145
sg63
(lp1161
g56
(g57
g58
NtRp1162
(dp1163
g61
(dp1164
g69
I4
ssg70
g1158
sg63
(lp1165
S''
asbasbasbag56
(g72
g58
NtRp1166
(dp1167
g61
(dp1168
sg70
g636
sg63
(lp1169
g56
(g77
g58
NtRp1170
(dp1171
g61
(dp1172
g81
g82
ssg70
g1166
sg63
(lp1173
S'remote_addr'
p1174
asbag56
(g77
g58
NtRp1175
(dp1176
g61
(dp1177
g88
g89
ssg70
g1166
sg63
(lp1178
S':'
asbag56
(g77
g58
NtRp1179
(dp1180
g61
(dp1181
sg70
g1166
sg63
(lp1182
g56
(g57
g58
NtRp1183
(dp1184
g61
(dp1185
g69
I4
ssg70
g1179
sg63
(lp1186
g189
asbasbasbag56
(g72
g58
NtRp1187
(dp1188
g61
(dp1189
sg70
g636
sg63
(lp1190
g56
(g77
g58
NtRp1191
(dp1192
g61
(dp1193
g81
g82
ssg70
g1187
sg63
(lp1194
S'remote_port'
p1195
asbag56
(g77
g58
NtRp1196
(dp1197
g61
(dp1198
g88
g89
ssg70
g1187
sg63
(lp1199
S':'
asbag56
(g77
g58
NtRp1200
(dp1201
g61
(dp1202
sg70
g1187
sg63
(lp1203
g56
(g57
g58
NtRp1204
(dp1205
g61
(dp1206
g69
I4
ssg70
g1200
sg63
(lp1207
S'55247'
p1208
asbasbasbag56
(g72
g58
NtRp1209
(dp1210
g61
(dp1211
sg70
g636
sg63
(lp1212
g56
(g77
g58
NtRp1213
(dp1214
g61
(dp1215
g81
g82
ssg70
g1209
sg63
(lp1216
S'request_method'
p1217
asbag56
(g77
g58
NtRp1218
(dp1219
g61
(dp1220
g88
g89
ssg70
g1209
sg63
(lp1221
S':'
asbag56
(g77
g58
NtRp1222
(dp1223
g61
(dp1224
sg70
g1209
sg63
(lp1225
g56
(g57
g58
NtRp1226
(dp1227
g61
(dp1228
g69
I4
ssg70
g1222
sg63
(lp1229
S'POST'
p1230
asbasbasbag56
(g72
g58
NtRp1231
(dp1232
g61
(dp1233
sg70
g636
sg63
(lp1234
g56
(g77
g58
NtRp1235
(dp1236
g61
(dp1237
g81
g82
ssg70
g1231
sg63
(lp1238
S'script_name'
p1239
asbag56
(g77
g58
NtRp1240
(dp1241
g61
(dp1242
g88
g89
ssg70
g1231
sg63
(lp1243
S':'
asbag56
(g77
g58
NtRp1244
(dp1245
g61
(dp1246
sg70
g1231
sg63
(lp1247
g56
(g57
g58
NtRp1248
(dp1249
g61
(dp1250
g69
I4
ssg70
g1244
sg63
(lp1251
S''
asbasbasbag56
(g72
g58
NtRp1252
(dp1253
g61
(dp1254
sg70
g636
sg63
(lp1255
g56
(g77
g58
NtRp1256
(dp1257
g61
(dp1258
g81
g82
ssg70
g1252
sg63
(lp1259
S'server_name'
p1260
asbag56
(g77
g58
NtRp1261
(dp1262
g61
(dp1263
g88
g89
ssg70
g1252
sg63
(lp1264
S':'
asbag56
(g77
g58
NtRp1265
(dp1266
g61
(dp1267
sg70
g1252
sg63
(lp1268
g56
(g57
g58
NtRp1269
(dp1270
g61
(dp1271
g69
I4
ssg70
g1265
sg63
(lp1272
S'Excons-MacBook.local'
p1273
asbasbasbag56
(g72
g58
NtRp1274
(dp1275
g61
(dp1276
sg70
g636
sg63
(lp1277
g56
(g77
g58
NtRp1278
(dp1279
g61
(dp1280
g81
g82
ssg70
g1274
sg63
(lp1281
S'server_port'
p1282
asbag56
(g77
g58
NtRp1283
(dp1284
g61
(dp1285
g88
g89
ssg70
g1274
sg63
(lp1286
S':'
asbag56
(g77
g58
NtRp1287
(dp1288
g61
(dp1289
sg70
g1274
sg63
(lp1290
g56
(g57
g58
NtRp1291
(dp1292
g61
(dp1293
g69
I4
ssg70
g1287
sg63
(lp1294
S'8000'
p1295
asbasbasbag56
(g72
g58
NtRp1296
(dp1297
g61
(dp1298
sg70
g636
sg63
(lp1299
g56
(g77
g58
NtRp1300
(dp1301
g61
(dp1302
g81
g82
ssg70
g1296
sg63
(lp1303
S'server_protocol'
p1304
asbag56
(g77
g58
NtRp1305
(dp1306
g61
(dp1307
g88
g89
ssg70
g1296
sg63
(lp1308
S':'
asbag56
(g77
g58
NtRp1309
(dp1310
g61
(dp1311
sg70
g1296
sg63
(lp1312
g56
(g57
g58
NtRp1313
(dp1314
g61
(dp1315
g69
I4
ssg70
g1309
sg63
(lp1316
S'HTTP/1.1'
p1317
asbasbasbag56
(g72
g58
NtRp1318
(dp1319
g61
(dp1320
sg70
g636
sg63
(lp1321
g56
(g77
g58
NtRp1322
(dp1323
g61
(dp1324
g81
g82
ssg70
g1318
sg63
(lp1325
S'server_software'
p1326
asbag56
(g77
g58
NtRp1327
(dp1328
g61
(dp1329
g88
g89
ssg70
g1318
sg63
(lp1330
S':'
asbag56
(g77
g58
NtRp1331
(dp1332
g61
(dp1333
sg70
g1318
sg63
(lp1334
g56
(g57
g58
NtRp1335
(dp1336
g61
(dp1337
g69
I4
ssg70
g1331
sg63
(lp1338
S'Rocket 1.2.4'
p1339
asbasbasbag56
(g72
g58
NtRp1340
(dp1341
g61
(dp1342
sg70
g636
sg63
(lp1343
g56
(g77
g58
NtRp1344
(dp1345
g61
(dp1346
g81
g82
ssg70
g1340
sg63
(lp1347
S'web2py_crontype'
p1348
asbag56
(g77
g58
NtRp1349
(dp1350
g61
(dp1351
g88
g89
ssg70
g1340
sg63
(lp1352
S':'
asbag56
(g77
g58
NtRp1353
(dp1354
g61
(dp1355
sg70
g1340
sg63
(lp1356
g56
(g57
g58
NtRp1357
(dp1358
g61
(dp1359
g69
I4
ssg70
g1353
sg63
(lp1360
S'hard'
p1361
asbasbasbag56
(g72
g58
NtRp1362
(dp1363
g61
(dp1364
sg70
g636
sg63
(lp1365
g56
(g77
g58
NtRp1366
(dp1367
g61
(dp1368
g81
g82
ssg70
g1362
sg63
(lp1369
S'web2py_path'
p1370
asbag56
(g77
g58
NtRp1371
(dp1372
g61
(dp1373
g88
g89
ssg70
g1362
sg63
(lp1374
S':'
asbag56
(g77
g58
NtRp1375
(dp1376
g61
(dp1377
sg70
g1362
sg63
(lp1378
g56
(g57
g58
NtRp1379
(dp1380
g61
(dp1381
g69
I4
ssg70
g1375
sg63
(lp1382
g683
asbasbasbag56
(g72
g58
NtRp1383
(dp1384
g61
(dp1385
sg70
g636
sg63
(lp1386
g56
(g77
g58
NtRp1387
(dp1388
g61
(dp1389
g81
g82
ssg70
g1383
sg63
(lp1390
S'web2py_version'
p1391
asbag56
(g77
g58
NtRp1392
(dp1393
g61
(dp1394
g88
g89
ssg70
g1383
sg63
(lp1395
S':'
asbag56
(g77
g58
NtRp1396
(dp1397
g61
(dp1398
sg70
g1383
sg63
(lp1399
g56
(g57
g58
NtRp1400
(dp1401
g61
(dp1402
g69
I4
ssg70
g1396
sg63
(lp1403
g56
(g65
g58
NtRp1404
(dp1405
g61
(dp1406
g69
I3
ssg70
Nsg63
(lp1407
g56
(g72
g58
NtRp1408
(dp1409
g61
(dp1410
sg70
g1404
sg63
(lp1411
g56
(g77
g58
NtRp1412
(dp1413
g61
(dp1414
sg70
g1408
sg63
(lp1415
g56
(g57
g58
NtRp1416
(dp1417
g61
(dp1418
g69
I3
ssg70
g1412
sg63
(lp1419
S'1'
asbasbasbag56
(g72
g58
NtRp1420
(dp1421
g61
(dp1422
sg70
g1404
sg63
(lp1423
g56
(g77
g58
NtRp1424
(dp1425
g61
(dp1426
sg70
g1420
sg63
(lp1427
g56
(g57
g58
NtRp1428
(dp1429
g61
(dp1430
g69
I3
ssg70
g1424
sg63
(lp1431
S'99'
p1432
asbasbasbag56
(g72
g58
NtRp1433
(dp1434
g61
(dp1435
sg70
g1404
sg63
(lp1436
g56
(g77
g58
NtRp1437
(dp1438
g61
(dp1439
sg70
g1433
sg63
(lp1440
g56
(g57
g58
NtRp1441
(dp1442
g61
(dp1443
g69
I3
ssg70
g1437
sg63
(lp1444
S'2'
asbasbasbag56
(g72
g58
NtRp1445
(dp1446
g61
(dp1447
sg70
g1404
sg63
(lp1448
g56
(g77
g58
NtRp1449
(dp1450
g61
(dp1451
sg70
g1445
sg63
(lp1452
g56
(g57
g58
NtRp1453
(dp1454
g61
(dp1455
g69
I3
ssg70
g1449
sg63
(lp1456
S'datetime.datetime(2011, 9, 26, 6, 55, 33)'
p1457
asbasbasbag56
(g72
g58
NtRp1458
(dp1459
g61
(dp1460
sg70
g1404
sg63
(lp1461
g56
(g77
g58
NtRp1462
(dp1463
g61
(dp1464
sg70
g1458
sg63
(lp1465
g56
(g57
g58
NtRp1466
(dp1467
g61
(dp1468
g69
I3
ssg70
g1462
sg63
(lp1469
S'stable'
p1470
asbasbasbasbasbasbasbag56
(g72
g58
NtRp1471
(dp1472
g61
(dp1473
sg70
g636
sg63
(lp1474
g56
(g77
g58
NtRp1475
(dp1476
g61
(dp1477
g81
g82
ssg70
g1471
sg63
(lp1478
S'wsgi_errors'
p1479
asbag56
(g77
g58
NtRp1480
(dp1481
g61
(dp1482
g88
g89
ssg70
g1471
sg63
(lp1483
S':'
asbag56
(g77
g58
NtRp1484
(dp1485
g61
(dp1486
sg70
g1471
sg63
(lp1487
g56
(g57
g58
NtRp1488
(dp1489
g61
(dp1490
g69
I4
ssg70
g1484
sg63
(lp1491
S"<open file '<stderr>', mode 'w' at 0x100416140>"
p1492
asbasbasbag56
(g72
g58
NtRp1493
(dp1494
g61
(dp1495
sg70
g636
sg63
(lp1496
g56
(g77
g58
NtRp1497
(dp1498
g61
(dp1499
g81
g82
ssg70
g1493
sg63
(lp1500
S'wsgi_file_wrapper'
p1501
asbag56
(g77
g58
NtRp1502
(dp1503
g61
(dp1504
g88
g89
ssg70
g1493
sg63
(lp1505
S':'
asbag56
(g77
g58
NtRp1506
(dp1507
g61
(dp1508
sg70
g1493
sg63
(lp1509
g56
(g57
g58
NtRp1510
(dp1511
g61
(dp1512
g69
I4
ssg70
g1506
sg63
(lp1513
S'<class wsgiref.util.FileWrapper at 0x1014a1bf0>'
p1514
asbasbasbag56
(g72
g58
NtRp1515
(dp1516
g61
(dp1517
sg70
g636
sg63
(lp1518
g56
(g77
g58
NtRp1519
(dp1520
g61
(dp1521
g81
g82
ssg70
g1515
sg63
(lp1522
S'wsgi_input'
p1523
asbag56
(g77
g58
NtRp1524
(dp1525
g61
(dp1526
g88
g89
ssg70
g1515
sg63
(lp1527
S':'
asbag56
(g77
g58
NtRp1528
(dp1529
g61
(dp1530
sg70
g1515
sg63
(lp1531
g56
(g57
g58
NtRp1532
(dp1533
g61
(dp1534
g69
I4
ssg70
g1528
sg63
(lp1535
S'<socket._fileobject object at 0x10101da28>'
p1536
asbasbasbag56
(g72
g58
NtRp1537
(dp1538
g61
(dp1539
sg70
g636
sg63
(lp1540
g56
(g77
g58
NtRp1541
(dp1542
g61
(dp1543
g81
g82
ssg70
g1537
sg63
(lp1544
S'wsgi_multiprocess'
p1545
asbag56
(g77
g58
NtRp1546
(dp1547
g61
(dp1548
g88
g89
ssg70
g1537
sg63
(lp1549
S':'
asbag56
(g77
g58
NtRp1550
(dp1551
g61
(dp1552
sg70
g1537
sg63
(lp1553
g56
(g57
g58
NtRp1554
(dp1555
g61
(dp1556
g69
I4
ssg70
g1550
sg63
(lp1557
g99
asbasbasbag56
(g72
g58
NtRp1558
(dp1559
g61
(dp1560
sg70
g636
sg63
(lp1561
g56
(g77
g58
NtRp1562
(dp1563
g61
(dp1564
g81
g82
ssg70
g1558
sg63
(lp1565
S'wsgi_multithread'
p1566
asbag56
(g77
g58
NtRp1567
(dp1568
g61
(dp1569
g88
g89
ssg70
g1558
sg63
(lp1570
S':'
asbag56
(g77
g58
NtRp1571
(dp1572
g61
(dp1573
sg70
g1558
sg63
(lp1574
g56
(g57
g58
NtRp1575
(dp1576
g61
(dp1577
g69
I4
ssg70
g1571
sg63
(lp1578
S'True'
p1579
asbasbasbag56
(g72
g58
NtRp1580
(dp1581
g61
(dp1582
sg70
g636
sg63
(lp1583
g56
(g77
g58
NtRp1584
(dp1585
g61
(dp1586
g81
g82
ssg70
g1580
sg63
(lp1587
S'wsgi_run_once'
p1588
asbag56
(g77
g58
NtRp1589
(dp1590
g61
(dp1591
g88
g89
ssg70
g1580
sg63
(lp1592
S':'
asbag56
(g77
g58
NtRp1593
(dp1594
g61
(dp1595
sg70
g1580
sg63
(lp1596
g56
(g57
g58
NtRp1597
(dp1598
g61
(dp1599
g69
I4
ssg70
g1593
sg63
(lp1600
g99
asbasbasbag56
(g72
g58
NtRp1601
(dp1602
g61
(dp1603
sg70
g636
sg63
(lp1604
g56
(g77
g58
NtRp1605
(dp1606
g61
(dp1607
g81
g82
ssg70
g1601
sg63
(lp1608
S'wsgi_url_scheme'
p1609
asbag56
(g77
g58
NtRp1610
(dp1611
g61
(dp1612
g88
g89
ssg70
g1601
sg63
(lp1613
S':'
asbag56
(g77
g58
NtRp1614
(dp1615
g61
(dp1616
sg70
g1601
sg63
(lp1617
g56
(g57
g58
NtRp1618
(dp1619
g61
(dp1620
g69
I4
ssg70
g1614
sg63
(lp1621
S'http'
p1622
asbasbasbag56
(g72
g58
NtRp1623
(dp1624
g61
(dp1625
sg70
g636
sg63
(lp1626
g56
(g77
g58
NtRp1627
(dp1628
g61
(dp1629
g81
g82
ssg70
g1623
sg63
(lp1630
S'wsgi_version'
p1631
asbag56
(g77
g58
NtRp1632
(dp1633
g61
(dp1634
g88
g89
ssg70
g1623
sg63
(lp1635
S':'
asbag56
(g77
g58
NtRp1636
(dp1637
g61
(dp1638
sg70
g1623
sg63
(lp1639
g56
(g57
g58
NtRp1640
(dp1641
g61
(dp1642
g69
I4
ssg70
g1636
sg63
(lp1643
g56
(g65
g58
NtRp1644
(dp1645
g61
(dp1646
g69
I3
ssg70
Nsg63
(lp1647
g56
(g72
g58
NtRp1648
(dp1649
g61
(dp1650
sg70
g1644
sg63
(lp1651
g56
(g77
g58
NtRp1652
(dp1653
g61
(dp1654
sg70
g1648
sg63
(lp1655
g56
(g57
g58
NtRp1656
(dp1657
g61
(dp1658
g69
I3
ssg70
g1652
sg63
(lp1659
S'1'
asbasbasbag56
(g72
g58
NtRp1660
(dp1661
g61
(dp1662
sg70
g1644
sg63
(lp1663
g56
(g77
g58
NtRp1664
(dp1665
g61
(dp1666
sg70
g1660
sg63
(lp1667
g56
(g57
g58
NtRp1668
(dp1669
g61
(dp1670
g69
I3
ssg70
g1664
sg63
(lp1671
S'0'
asbasbasbasbasbasbasbasbasbasbasbag56
(g72
g58
NtRp1672
(dp1673
g61
(dp1674
sg70
g66
sg63
(lp1675
g56
(g77
g58
NtRp1676
(dp1677
g61
(dp1678
g81
g82
ssg70
g1672
sg63
(lp1679
S'extension'
p1680
asbag56
(g77
g58
NtRp1681
(dp1682
g61
(dp1683
g88
g89
ssg70
g1672
sg63
(lp1684
S':'
asbag56
(g77
g58
NtRp1685
(dp1686
g61
(dp1687
sg70
g1672
sg63
(lp1688
g56
(g57
g58
NtRp1689
(dp1690
g61
(dp1691
g69
I5
ssg70
g1685
sg63
(lp1692
S'html'
p1693
asbasbasbag56
(g72
g58
NtRp1694
(dp1695
g61
(dp1696
sg70
g66
sg63
(lp1697
g56
(g77
g58
NtRp1698
(dp1699
g61
(dp1700
g81
g82
ssg70
g1694
sg63
(lp1701
S'folder'
p1702
asbag56
(g77
g58
NtRp1703
(dp1704
g61
(dp1705
g88
g89
ssg70
g1694
sg63
(lp1706
S':'
asbag56
(g77
g58
NtRp1707
(dp1708
g61
(dp1709
sg70
g1694
sg63
(lp1710
g56
(g57
g58
NtRp1711
(dp1712
g61
(dp1713
g69
I5
ssg70
g1707
sg63
(lp1714
S'/Users/excon/Sites/dreamscape/applications/welcome/'
p1715
asbasbasbag56
(g72
g58
NtRp1716
(dp1717
g61
(dp1718
sg70
g66
sg63
(lp1719
g56
(g77
g58
NtRp1720
(dp1721
g61
(dp1722
g81
g82
ssg70
g1716
sg63
(lp1723
S'function'
p1724
asbag56
(g77
g58
NtRp1725
(dp1726
g61
(dp1727
g88
g89
ssg70
g1716
sg63
(lp1728
S':'
asbag56
(g77
g58
NtRp1729
(dp1730
g61
(dp1731
sg70
g1716
sg63
(lp1732
g56
(g57
g58
NtRp1733
(dp1734
g61
(dp1735
g69
I5
ssg70
g1729
sg63
(lp1736
S'coming_soon'
p1737
asbasbasbag56
(g72
g58
NtRp1738
(dp1739
g61
(dp1740
sg70
g66
sg63
(lp1741
g56
(g77
g58
NtRp1742
(dp1743
g61
(dp1744
g81
g82
ssg70
g1738
sg63
(lp1745
S'get_vars'
p1746
asbag56
(g77
g58
NtRp1747
(dp1748
g61
(dp1749
g88
g89
ssg70
g1738
sg63
(lp1750
S':'
asbag56
(g77
g58
NtRp1751
(dp1752
g61
(dp1753
sg70
g1738
sg63
(lp1754
g56
(g57
g58
NtRp1755
(dp1756
g61
(dp1757
g69
I5
ssg70
g1751
sg63
(lp1758
g56
(g65
g58
NtRp1759
(dp1760
g61
(dp1761
g69
I4
ssg70
Nsg63
(lp1762
sbasbasbasbag56
(g72
g58
NtRp1763
(dp1764
g61
(dp1765
sg70
g66
sg63
(lp1766
g56
(g77
g58
NtRp1767
(dp1768
g61
(dp1769
g81
g82
ssg70
g1763
sg63
(lp1770
S'global_settings'
p1771
asbag56
(g77
g58
NtRp1772
(dp1773
g61
(dp1774
g88
g89
ssg70
g1763
sg63
(lp1775
S':'
asbag56
(g77
g58
NtRp1776
(dp1777
g61
(dp1778
sg70
g1763
sg63
(lp1779
g56
(g57
g58
NtRp1780
(dp1781
g61
(dp1782
g69
I5
ssg70
g1776
sg63
(lp1783
g56
(g65
g58
NtRp1784
(dp1785
g61
(dp1786
g69
I4
ssg70
Nsg63
(lp1787
g56
(g72
g58
NtRp1788
(dp1789
g61
(dp1790
sg70
g1784
sg63
(lp1791
g56
(g77
g58
NtRp1792
(dp1793
g61
(dp1794
g81
g82
ssg70
g1788
sg63
(lp1795
g648
asbag56
(g77
g58
NtRp1796
(dp1797
g61
(dp1798
g88
g89
ssg70
g1788
sg63
(lp1799
S':'
asbag56
(g77
g58
NtRp1800
(dp1801
g61
(dp1802
sg70
g1788
sg63
(lp1803
g56
(g57
g58
NtRp1804
(dp1805
g61
(dp1806
g69
I4
ssg70
g1800
sg63
(lp1807
S"set(['/Users/excon/Sites/dreamscape/applications/welcome/', '/Users/excon/Sites/dreamscape/applications/admin/'])"
p1808
asbasbasbag56
(g72
g58
NtRp1809
(dp1810
g61
(dp1811
sg70
g1784
sg63
(lp1812
g56
(g77
g58
NtRp1813
(dp1814
g61
(dp1815
g81
g82
ssg70
g1809
sg63
(lp1816
g670
asbag56
(g77
g58
NtRp1817
(dp1818
g61
(dp1819
g88
g89
ssg70
g1809
sg63
(lp1820
S':'
asbag56
(g77
g58
NtRp1821
(dp1822
g61
(dp1823
sg70
g1809
sg63
(lp1824
g56
(g57
g58
NtRp1825
(dp1826
g61
(dp1827
g69
I4
ssg70
g1821
sg63
(lp1828
g683
asbasbasbag56
(g72
g58
NtRp1829
(dp1830
g61
(dp1831
sg70
g1784
sg63
(lp1832
g56
(g77
g58
NtRp1833
(dp1834
g61
(dp1835
g81
g82
ssg70
g1829
sg63
(lp1836
g692
asbag56
(g77
g58
NtRp1837
(dp1838
g61
(dp1839
g88
g89
ssg70
g1829
sg63
(lp1840
S':'
asbag56
(g77
g58
NtRp1841
(dp1842
g61
(dp1843
sg70
g1829
sg63
(lp1844
g56
(g57
g58
NtRp1845
(dp1846
g61
(dp1847
g69
I4
ssg70
g1841
sg63
(lp1848
g56
(g65
g58
NtRp1849
(dp1850
g61
(dp1851
g69
I3
ssg70
Nsg63
(lp1852
sbasbasbasbag56
(g72
g58
NtRp1853
(dp1854
g61
(dp1855
sg70
g1784
sg63
(lp1856
g56
(g77
g58
NtRp1857
(dp1858
g61
(dp1859
g81
g82
ssg70
g1853
sg63
(lp1860
g717
asbag56
(g77
g58
NtRp1861
(dp1862
g61
(dp1863
g88
g89
ssg70
g1853
sg63
(lp1864
S':'
asbag56
(g77
g58
NtRp1865
(dp1866
g61
(dp1867
sg70
g1853
sg63
(lp1868
g56
(g57
g58
NtRp1869
(dp1870
g61
(dp1871
g69
I4
ssg70
g1865
sg63
(lp1872
S"<Values at 0x101c08e18: {'verbose': False, 'ip': '127.0.0.1', 'shutdown_timeout': 5, 'taskbar': False, 'nocron': False, 'pid_filename': 'httpserver.pid', 'maxthreads': None, 'softcron': False, 'server_name': 'Excons-MacBook.local', 'bpython': False, 'nogui': False, 'port': 8000, 'extcron': False, 'debuglevel': 30, 'test': None, 'folder': '/Users/excon/Sites/dreamscape', 'config': '', 'import_models': False, 'winservice': '', 'shell': None, 'run': '', 'log_filename': 'httpserver.log', 'args': [''], 'ssl_ca_certificate': None, 'scheduler': None, 'profiler_filename': None, 'ssl_private_key': '', 'password': '<ask>', 'request_queue_size': 5, 'ssl_certificate': '', 'cronjob': False, 'plain': False, 'quiet': False, 'interfaces': None, 'minthreads': None, 'timeout': 10, 'numthreads': None, 'nobanner': False}>"
p1873
asbasbasbag56
(g72
g58
NtRp1874
(dp1875
g61
(dp1876
sg70
g1784
sg63
(lp1877
g56
(g77
g58
NtRp1878
(dp1879
g61
(dp1880
g81
g82
ssg70
g1874
sg63
(lp1881
g783
asbag56
(g77
g58
NtRp1882
(dp1883
g61
(dp1884
g88
g89
ssg70
g1874
sg63
(lp1885
S':'
asbag56
(g77
g58
NtRp1886
(dp1887
g61
(dp1888
sg70
g1874
sg63
(lp1889
g56
(g57
g58
NtRp1890
(dp1891
g61
(dp1892
g69
I4
ssg70
g1886
sg63
(lp1893
S'set([])'
p1894
asbasbasbag56
(g72
g58
NtRp1895
(dp1896
g61
(dp1897
sg70
g1784
sg63
(lp1898
g56
(g77
g58
NtRp1899
(dp1900
g61
(dp1901
g81
g82
ssg70
g1895
sg63
(lp1902
g805
asbag56
(g77
g58
NtRp1903
(dp1904
g61
(dp1905
g88
g89
ssg70
g1895
sg63
(lp1906
S':'
asbag56
(g77
g58
NtRp1907
(dp1908
g61
(dp1909
sg70
g1895
sg63
(lp1910
g56
(g57
g58
NtRp1911
(dp1912
g61
(dp1913
g69
I4
ssg70
g1907
sg63
(lp1914
g99
asbasbasbag56
(g72
g58
NtRp1915
(dp1916
g61
(dp1917
sg70
g1784
sg63
(lp1918
g56
(g77
g58
NtRp1919
(dp1920
g61
(dp1921
g81
g82
ssg70
g1915
sg63
(lp1922
g826
asbag56
(g77
g58
NtRp1923
(dp1924
g61
(dp1925
g88
g89
ssg70
g1915
sg63
(lp1926
S':'
asbag56
(g77
g58
NtRp1927
(dp1928
g61
(dp1929
sg70
g1915
sg63
(lp1930
g56
(g57
g58
NtRp1931
(dp1932
g61
(dp1933
g69
I4
ssg70
g1927
sg63
(lp1934
g839
asbasbasbag56
(g72
g58
NtRp1935
(dp1936
g61
(dp1937
sg70
g1784
sg63
(lp1938
g56
(g77
g58
NtRp1939
(dp1940
g61
(dp1941
g81
g82
ssg70
g1935
sg63
(lp1942
g1110
asbag56
(g77
g58
NtRp1943
(dp1944
g61
(dp1945
g88
g89
ssg70
g1935
sg63
(lp1946
S':'
asbag56
(g77
g58
NtRp1947
(dp1948
g61
(dp1949
sg70
g1935
sg63
(lp1950
g56
(g57
g58
NtRp1951
(dp1952
g61
(dp1953
g69
I4
ssg70
g1947
sg63
(lp1954
g99
asbasbasbag56
(g72
g58
NtRp1955
(dp1956
g61
(dp1957
sg70
g1784
sg63
(lp1958
g56
(g77
g58
NtRp1959
(dp1960
g61
(dp1961
g81
g82
ssg70
g1955
sg63
(lp1962
g1348
asbag56
(g77
g58
NtRp1963
(dp1964
g61
(dp1965
g88
g89
ssg70
g1955
sg63
(lp1966
S':'
asbag56
(g77
g58
NtRp1967
(dp1968
g61
(dp1969
sg70
g1955
sg63
(lp1970
g56
(g57
g58
NtRp1971
(dp1972
g61
(dp1973
g69
I4
ssg70
g1967
sg63
(lp1974
g1361
asbasbasbag56
(g72
g58
NtRp1975
(dp1976
g61
(dp1977
sg70
g1784
sg63
(lp1978
g56
(g77
g58
NtRp1979
(dp1980
g61
(dp1981
g81
g82
ssg70
g1975
sg63
(lp1982
g1391
asbag56
(g77
g58
NtRp1983
(dp1984
g61
(dp1985
g88
g89
ssg70
g1975
sg63
(lp1986
S':'
asbag56
(g77
g58
NtRp1987
(dp1988
g61
(dp1989
sg70
g1975
sg63
(lp1990
g56
(g57
g58
NtRp1991
(dp1992
g61
(dp1993
g69
I4
ssg70
g1987
sg63
(lp1994
g56
(g65
g58
NtRp1995
(dp1996
g61
(dp1997
g69
I3
ssg70
Nsg63
(lp1998
g56
(g72
g58
NtRp1999
(dp2000
g61
(dp2001
sg70
g1995
sg63
(lp2002
g56
(g77
g58
NtRp2003
(dp2004
g61
(dp2005
sg70
g1999
sg63
(lp2006
g56
(g57
g58
NtRp2007
(dp2008
g61
(dp2009
g69
I3
ssg70
g2003
sg63
(lp2010
S'1'
asbasbasbag56
(g72
g58
NtRp2011
(dp2012
g61
(dp2013
sg70
g1995
sg63
(lp2014
g56
(g77
g58
NtRp2015
(dp2016
g61
(dp2017
sg70
g2011
sg63
(lp2018
g56
(g57
g58
NtRp2019
(dp2020
g61
(dp2021
g69
I3
ssg70
g2015
sg63
(lp2022
S'99'
p2023
asbasbasbag56
(g72
g58
NtRp2024
(dp2025
g61
(dp2026
sg70
g1995
sg63
(lp2027
g56
(g77
g58
NtRp2028
(dp2029
g61
(dp2030
sg70
g2024
sg63
(lp2031
g56
(g57
g58
NtRp2032
(dp2033
g61
(dp2034
g69
I3
ssg70
g2028
sg63
(lp2035
S'2'
asbasbasbag56
(g72
g58
NtRp2036
(dp2037
g61
(dp2038
sg70
g1995
sg63
(lp2039
g56
(g77
g58
NtRp2040
(dp2041
g61
(dp2042
sg70
g2036
sg63
(lp2043
g56
(g57
g58
NtRp2044
(dp2045
g61
(dp2046
g69
I3
ssg70
g2040
sg63
(lp2047
S'datetime.datetime(2011, 9, 26, 6, 55, 33)'
p2048
asbasbasbag56
(g72
g58
NtRp2049
(dp2050
g61
(dp2051
sg70
g1995
sg63
(lp2052
g56
(g77
g58
NtRp2053
(dp2054
g61
(dp2055
sg70
g2049
sg63
(lp2056
g56
(g57
g58
NtRp2057
(dp2058
g61
(dp2059
g69
I3
ssg70
g2053
sg63
(lp2060
g1470
asbasbasbasbasbasbasbasbasbasbasbag56
(g72
g58
NtRp2061
(dp2062
g61
(dp2063
sg70
g66
sg63
(lp2064
g56
(g77
g58
NtRp2065
(dp2066
g61
(dp2067
g81
g82
ssg70
g2061
sg63
(lp2068
S'is_https'
p2069
asbag56
(g77
g58
NtRp2070
(dp2071
g61
(dp2072
g88
g89
ssg70
g2061
sg63
(lp2073
S':'
asbag56
(g77
g58
NtRp2074
(dp2075
g61
(dp2076
sg70
g2061
sg63
(lp2077
g56
(g57
g58
NtRp2078
(dp2079
g61
(dp2080
g69
I5
ssg70
g2074
sg63
(lp2081
g99
asbasbasbag56
(g72
g58
NtRp2082
(dp2083
g61
(dp2084
sg70
g66
sg63
(lp2085
g56
(g77
g58
NtRp2086
(dp2087
g61
(dp2088
g81
g82
ssg70
g2082
sg63
(lp2089
S'is_local'
p2090
asbag56
(g77
g58
NtRp2091
(dp2092
g61
(dp2093
g88
g89
ssg70
g2082
sg63
(lp2094
S':'
asbag56
(g77
g58
NtRp2095
(dp2096
g61
(dp2097
sg70
g2082
sg63
(lp2098
g56
(g57
g58
NtRp2099
(dp2100
g61
(dp2101
g69
I5
ssg70
g2095
sg63
(lp2102
g1579
asbasbasbag56
(g72
g58
NtRp2103
(dp2104
g61
(dp2105
sg70
g66
sg63
(lp2106
g56
(g77
g58
NtRp2107
(dp2108
g61
(dp2109
g81
g82
ssg70
g2103
sg63
(lp2110
S'is_restful'
p2111
asbag56
(g77
g58
NtRp2112
(dp2113
g61
(dp2114
g88
g89
ssg70
g2103
sg63
(lp2115
S':'
asbag56
(g77
g58
NtRp2116
(dp2117
g61
(dp2118
sg70
g2103
sg63
(lp2119
g56
(g57
g58
NtRp2120
(dp2121
g61
(dp2122
g69
I5
ssg70
g2116
sg63
(lp2123
g99
asbasbasbag56
(g72
g58
NtRp2124
(dp2125
g61
(dp2126
sg70
g66
sg63
(lp2127
g56
(g77
g58
NtRp2128
(dp2129
g61
(dp2130
g81
g82
ssg70
g2124
sg63
(lp2131
S'now'
p2132
asbag56
(g77
g58
NtRp2133
(dp2134
g61
(dp2135
g88
g89
ssg70
g2124
sg63
(lp2136
S':'
asbag56
(g77
g58
NtRp2137
(dp2138
g61
(dp2139
sg70
g2124
sg63
(lp2140
g56
(g57
g58
NtRp2141
(dp2142
g61
(dp2143
g69
I5
ssg70
g2137
sg63
(lp2144
S'datetime.datetime(2011, 9, 28, 18, 28, 15, 247489)'
p2145
asbasbasbag56
(g72
g58
NtRp2146
(dp2147
g61
(dp2148
sg70
g66
sg63
(lp2149
g56
(g77
g58
NtRp2150
(dp2151
g61
(dp2152
g81
g82
ssg70
g2146
sg63
(lp2153
S'post_vars'
p2154
asbag56
(g77
g58
NtRp2155
(dp2156
g61
(dp2157
g88
g89
ssg70
g2146
sg63
(lp2158
S':'
asbag56
(g77
g58
NtRp2159
(dp2160
g61
(dp2161
sg70
g2146
sg63
(lp2162
g56
(g57
g58
NtRp2163
(dp2164
g61
(dp2165
g69
I5
ssg70
g2159
sg63
(lp2166
g56
(g65
g58
NtRp2167
(dp2168
g61
(dp2169
g69
I4
ssg70
Nsg63
(lp2170
g56
(g72
g58
NtRp2171
(dp2172
g61
(dp2173
sg70
g2167
sg63
(lp2174
g56
(g77
g58
NtRp2175
(dp2176
g61
(dp2177
g81
g82
ssg70
g2171
sg63
(lp2178
S'email'
p2179
asbag56
(g77
g58
NtRp2180
(dp2181
g61
(dp2182
g88
g89
ssg70
g2171
sg63
(lp2183
S':'
asbag56
(g77
g58
NtRp2184
(dp2185
g61
(dp2186
sg70
g2171
sg63
(lp2187
g56
(g57
g58
NtRp2188
(dp2189
g61
(dp2190
g69
I4
ssg70
g2184
sg63
(lp2191
S'camp@sdafs'
p2192
asbasbasbasbasbasbasbag56
(g72
g58
NtRp2193
(dp2194
g61
(dp2195
sg70
g66
sg63
(lp2196
g56
(g77
g58
NtRp2197
(dp2198
g61
(dp2199
g81
g82
ssg70
g2193
sg63
(lp2200
S'url'
p2201
asbag56
(g77
g58
NtRp2202
(dp2203
g61
(dp2204
g88
g89
ssg70
g2193
sg63
(lp2205
S':'
asbag56
(g77
g58
NtRp2206
(dp2207
g61
(dp2208
sg70
g2193
sg63
(lp2209
g56
(g57
g58
NtRp2210
(dp2211
g61
(dp2212
g69
I5
ssg70
g2206
sg63
(lp2213
S'/welcome/default/coming_soon'
p2214
asbasbasbag56
(g72
g58
NtRp2215
(dp2216
g61
(dp2217
sg70
g66
sg63
(lp2218
g56
(g77
g58
NtRp2219
(dp2220
g61
(dp2221
g81
g82
ssg70
g2215
sg63
(lp2222
S'utcnow'
p2223
asbag56
(g77
g58
NtRp2224
(dp2225
g61
(dp2226
g88
g89
ssg70
g2215
sg63
(lp2227
S':'
asbag56
(g77
g58
NtRp2228
(dp2229
g61
(dp2230
sg70
g2215
sg63
(lp2231
g56
(g57
g58
NtRp2232
(dp2233
g61
(dp2234
g69
I5
ssg70
g2228
sg63
(lp2235
S'datetime.datetime(2011, 9, 29, 1, 28, 15, 247509)'
p2236
asbasbasbag56
(g72
g58
NtRp2237
(dp2238
g61
(dp2239
sg70
g66
sg63
(lp2240
g56
(g77
g58
NtRp2241
(dp2242
g61
(dp2243
g81
g82
ssg70
g2237
sg63
(lp2244
S'uuid'
p2245
asbag56
(g77
g58
NtRp2246
(dp2247
g61
(dp2248
g88
g89
ssg70
g2237
sg63
(lp2249
S':'
asbag56
(g77
g58
NtRp2250
(dp2251
g61
(dp2252
sg70
g2237
sg63
(lp2253
g56
(g57
g58
NtRp2254
(dp2255
g61
(dp2256
g69
I5
ssg70
g2250
sg63
(lp2257
S'welcome/127.0.0.1.2011-09-28.18-28-15.69d95111-4e05-4359-b047-684f4d36b4f5'
p2258
asbasbasbag56
(g72
g58
NtRp2259
(dp2260
g61
(dp2261
sg70
g66
sg63
(lp2262
g56
(g77
g58
NtRp2263
(dp2264
g61
(dp2265
g81
g82
ssg70
g2259
sg63
(lp2266
S'vars'
p2267
asbag56
(g77
g58
NtRp2268
(dp2269
g61
(dp2270
g88
g89
ssg70
g2259
sg63
(lp2271
S':'
asbag56
(g77
g58
NtRp2272
(dp2273
g61
(dp2274
sg70
g2259
sg63
(lp2275
g56
(g57
g58
NtRp2276
(dp2277
g61
(dp2278
g69
I5
ssg70
g2272
sg63
(lp2279
g56
(g65
g58
NtRp2280
(dp2281
g61
(dp2282
g69
I4
ssg70
Nsg63
(lp2283
g56
(g72
g58
NtRp2284
(dp2285
g61
(dp2286
sg70
g2280
sg63
(lp2287
g56
(g77
g58
NtRp2288
(dp2289
g61
(dp2290
g81
g82
ssg70
g2284
sg63
(lp2291
g2179
asbag56
(g77
g58
NtRp2292
(dp2293
g61
(dp2294
g88
g89
ssg70
g2284
sg63
(lp2295
S':'
asbag56
(g77
g58
NtRp2296
(dp2297
g61
(dp2298
sg70
g2284
sg63
(lp2299
g56
(g57
g58
NtRp2300
(dp2301
g61
(dp2302
g69
I4
ssg70
g2296
sg63
(lp2303
g2192
asbasbasbasbasbasbasbag56
(g72
g58
NtRp2304
(dp2305
g61
(dp2306
sg70
g66
sg63
(lp2307
g56
(g77
g58
NtRp2308
(dp2309
g61
(dp2310
g81
g82
ssg70
g2304
sg63
(lp2311
S'wsgi'
p2312
asbag56
(g77
g58
NtRp2313
(dp2314
g61
(dp2315
g88
g89
ssg70
g2304
sg63
(lp2316
S':'
asbag56
(g77
g58
NtRp2317
(dp2318
g61
(dp2319
sg70
g2304
sg63
(lp2320
g56
(g57
g58
NtRp2321
(dp2322
g61
(dp2323
g69
I5
ssg70
g2317
sg63
(lp2324
g56
(g65
g58
NtRp2325
(dp2326
g61
(dp2327
g69
I4
ssg70
Nsg63
(lp2328
g56
(g72
g58
NtRp2329
(dp2330
g61
(dp2331
sg70
g2325
sg63
(lp2332
g56
(g77
g58
NtRp2333
(dp2334
g61
(dp2335
g81
g82
ssg70
g2329
sg63
(lp2336
S'environ'
p2337
asbag56
(g77
g58
NtRp2338
(dp2339
g61
(dp2340
g88
g89
ssg70
g2329
sg63
(lp2341
S':'
asbag56
(g77
g58
NtRp2342
(dp2343
g61
(dp2344
sg70
g2329
sg63
(lp2345
g56
(g57
g58
NtRp2346
(dp2347
g61
(dp2348
g69
I4
ssg70
g2342
sg63
(lp2349
g56
(g65
g58
NtRp2350
(dp2351
g61
(dp2352
g69
I3
ssg70
Nsg63
(lp2353
g56
(g72
g58
NtRp2354
(dp2355
g61
(dp2356
sg70
g2350
sg63
(lp2357
g56
(g77
g58
NtRp2358
(dp2359
g61
(dp2360
g81
g82
ssg70
g2354
sg63
(lp2361
S'CONTENT_LENGTH'
p2362
asbag56
(g77
g58
NtRp2363
(dp2364
g61
(dp2365
g88
g89
ssg70
g2354
sg63
(lp2366
S':'
asbag56
(g77
g58
NtRp2367
(dp2368
g61
(dp2369
sg70
g2354
sg63
(lp2370
g56
(g57
g58
NtRp2371
(dp2372
g61
(dp2373
g69
I3
ssg70
g2367
sg63
(lp2374
g752
asbasbasbag56
(g72
g58
NtRp2375
(dp2376
g61
(dp2377
sg70
g2350
sg63
(lp2378
g56
(g77
g58
NtRp2379
(dp2380
g61
(dp2381
g81
g82
ssg70
g2375
sg63
(lp2382
S'CONTENT_TYPE'
p2383
asbag56
(g77
g58
NtRp2384
(dp2385
g61
(dp2386
g88
g89
ssg70
g2375
sg63
(lp2387
S':'
asbag56
(g77
g58
NtRp2388
(dp2389
g61
(dp2390
sg70
g2375
sg63
(lp2391
g56
(g57
g58
NtRp2392
(dp2393
g61
(dp2394
g69
I3
ssg70
g2388
sg63
(lp2395
g774
asbasbasbag56
(g72
g58
NtRp2396
(dp2397
g61
(dp2398
sg70
g2350
sg63
(lp2399
g56
(g77
g58
NtRp2400
(dp2401
g61
(dp2402
g81
g82
ssg70
g2396
sg63
(lp2403
S'HTTP_ACCEPT'
p2404
asbag56
(g77
g58
NtRp2405
(dp2406
g61
(dp2407
g88
g89
ssg70
g2396
sg63
(lp2408
S':'
asbag56
(g77
g58
NtRp2409
(dp2410
g61
(dp2411
sg70
g2396
sg63
(lp2412
g56
(g57
g58
NtRp2413
(dp2414
g61
(dp2415
g69
I3
ssg70
g2409
sg63
(lp2416
g861
asbasbasbag56
(g72
g58
NtRp2417
(dp2418
g61
(dp2419
sg70
g2350
sg63
(lp2420
g56
(g77
g58
NtRp2421
(dp2422
g61
(dp2423
g81
g82
ssg70
g2417
sg63
(lp2424
S'HTTP_ACCEPT_CHARSET'
p2425
asbag56
(g77
g58
NtRp2426
(dp2427
g61
(dp2428
g88
g89
ssg70
g2417
sg63
(lp2429
S':'
asbag56
(g77
g58
NtRp2430
(dp2431
g61
(dp2432
sg70
g2417
sg63
(lp2433
g56
(g57
g58
NtRp2434
(dp2435
g61
(dp2436
g69
I3
ssg70
g2430
sg63
(lp2437
g883
asbasbasbag56
(g72
g58
NtRp2438
(dp2439
g61
(dp2440
sg70
g2350
sg63
(lp2441
g56
(g77
g58
NtRp2442
(dp2443
g61
(dp2444
g81
g82
ssg70
g2438
sg63
(lp2445
S'HTTP_ACCEPT_ENCODING'
p2446
asbag56
(g77
g58
NtRp2447
(dp2448
g61
(dp2449
g88
g89
ssg70
g2438
sg63
(lp2450
S':'
asbag56
(g77
g58
NtRp2451
(dp2452
g61
(dp2453
sg70
g2438
sg63
(lp2454
g56
(g57
g58
NtRp2455
(dp2456
g61
(dp2457
g69
I3
ssg70
g2451
sg63
(lp2458
g905
asbasbasbag56
(g72
g58
NtRp2459
(dp2460
g61
(dp2461
sg70
g2350
sg63
(lp2462
g56
(g77
g58
NtRp2463
(dp2464
g61
(dp2465
g81
g82
ssg70
g2459
sg63
(lp2466
S'HTTP_ACCEPT_LANGUAGE'
p2467
asbag56
(g77
g58
NtRp2468
(dp2469
g61
(dp2470
g88
g89
ssg70
g2459
sg63
(lp2471
S':'
asbag56
(g77
g58
NtRp2472
(dp2473
g61
(dp2474
sg70
g2459
sg63
(lp2475
g56
(g57
g58
NtRp2476
(dp2477
g61
(dp2478
g69
I3
ssg70
g2472
sg63
(lp2479
g927
asbasbasbag56
(g72
g58
NtRp2480
(dp2481
g61
(dp2482
sg70
g2350
sg63
(lp2483
g56
(g77
g58
NtRp2484
(dp2485
g61
(dp2486
g81
g82
ssg70
g2480
sg63
(lp2487
S'HTTP_CACHE_CONTROL'
p2488
asbag56
(g77
g58
NtRp2489
(dp2490
g61
(dp2491
g88
g89
ssg70
g2480
sg63
(lp2492
S':'
asbag56
(g77
g58
NtRp2493
(dp2494
g61
(dp2495
sg70
g2480
sg63
(lp2496
g56
(g57
g58
NtRp2497
(dp2498
g61
(dp2499
g69
I3
ssg70
g2493
sg63
(lp2500
g949
asbasbasbag56
(g72
g58
NtRp2501
(dp2502
g61
(dp2503
sg70
g2350
sg63
(lp2504
g56
(g77
g58
NtRp2505
(dp2506
g61
(dp2507
g81
g82
ssg70
g2501
sg63
(lp2508
S'HTTP_CONNECTION'
p2509
asbag56
(g77
g58
NtRp2510
(dp2511
g61
(dp2512
g88
g89
ssg70
g2501
sg63
(lp2513
S':'
asbag56
(g77
g58
NtRp2514
(dp2515
g61
(dp2516
sg70
g2501
sg63
(lp2517
g56
(g57
g58
NtRp2518
(dp2519
g61
(dp2520
g69
I3
ssg70
g2514
sg63
(lp2521
g971
asbasbasbag56
(g72
g58
NtRp2522
(dp2523
g61
(dp2524
sg70
g2350
sg63
(lp2525
g56
(g77
g58
NtRp2526
(dp2527
g61
(dp2528
g81
g82
ssg70
g2522
sg63
(lp2529
S'HTTP_CONTENT_LENGTH'
p2530
asbag56
(g77
g58
NtRp2531
(dp2532
g61
(dp2533
g88
g89
ssg70
g2522
sg63
(lp2534
S':'
asbag56
(g77
g58
NtRp2535
(dp2536
g61
(dp2537
sg70
g2522
sg63
(lp2538
g56
(g57
g58
NtRp2539
(dp2540
g61
(dp2541
g69
I3
ssg70
g2535
sg63
(lp2542
g752
asbasbasbag56
(g72
g58
NtRp2543
(dp2544
g61
(dp2545
sg70
g2350
sg63
(lp2546
g56
(g77
g58
NtRp2547
(dp2548
g61
(dp2549
g81
g82
ssg70
g2543
sg63
(lp2550
S'HTTP_CONTENT_TYPE'
p2551
asbag56
(g77
g58
NtRp2552
(dp2553
g61
(dp2554
g88
g89
ssg70
g2543
sg63
(lp2555
S':'
asbag56
(g77
g58
NtRp2556
(dp2557
g61
(dp2558
sg70
g2543
sg63
(lp2559
g56
(g57
g58
NtRp2560
(dp2561
g61
(dp2562
g69
I3
ssg70
g2556
sg63
(lp2563
g774
asbasbasbag56
(g72
g58
NtRp2564
(dp2565
g61
(dp2566
sg70
g2350
sg63
(lp2567
g56
(g77
g58
NtRp2568
(dp2569
g61
(dp2570
g81
g82
ssg70
g2564
sg63
(lp2571
S'HTTP_COOKIE'
p2572
asbag56
(g77
g58
NtRp2573
(dp2574
g61
(dp2575
g88
g89
ssg70
g2564
sg63
(lp2576
S':'
asbag56
(g77
g58
NtRp2577
(dp2578
g61
(dp2579
sg70
g2564
sg63
(lp2580
g56
(g57
g58
NtRp2581
(dp2582
g61
(dp2583
g69
I3
ssg70
g2577
sg63
(lp2584
g1035
asbasbasbag56
(g72
g58
NtRp2585
(dp2586
g61
(dp2587
sg70
g2350
sg63
(lp2588
g56
(g77
g58
NtRp2589
(dp2590
g61
(dp2591
g81
g82
ssg70
g2585
sg63
(lp2592
S'HTTP_HOST'
p2593
asbag56
(g77
g58
NtRp2594
(dp2595
g61
(dp2596
g88
g89
ssg70
g2585
sg63
(lp2597
S':'
asbag56
(g77
g58
NtRp2598
(dp2599
g61
(dp2600
sg70
g2585
sg63
(lp2601
g56
(g57
g58
NtRp2602
(dp2603
g61
(dp2604
g69
I3
ssg70
g2598
sg63
(lp2605
g1057
asbasbasbag56
(g72
g58
NtRp2606
(dp2607
g61
(dp2608
sg70
g2350
sg63
(lp2609
g56
(g77
g58
NtRp2610
(dp2611
g61
(dp2612
g81
g82
ssg70
g2606
sg63
(lp2613
S'HTTP_REFERER'
p2614
asbag56
(g77
g58
NtRp2615
(dp2616
g61
(dp2617
g88
g89
ssg70
g2606
sg63
(lp2618
S':'
asbag56
(g77
g58
NtRp2619
(dp2620
g61
(dp2621
sg70
g2606
sg63
(lp2622
g56
(g57
g58
NtRp2623
(dp2624
g61
(dp2625
g69
I3
ssg70
g2619
sg63
(lp2626
g1079
asbasbasbag56
(g72
g58
NtRp2627
(dp2628
g61
(dp2629
sg70
g2350
sg63
(lp2630
g56
(g77
g58
NtRp2631
(dp2632
g61
(dp2633
g81
g82
ssg70
g2627
sg63
(lp2634
S'HTTP_USER_AGENT'
p2635
asbag56
(g77
g58
NtRp2636
(dp2637
g61
(dp2638
g88
g89
ssg70
g2627
sg63
(lp2639
S':'
asbag56
(g77
g58
NtRp2640
(dp2641
g61
(dp2642
sg70
g2627
sg63
(lp2643
g56
(g57
g58
NtRp2644
(dp2645
g61
(dp2646
g69
I3
ssg70
g2640
sg63
(lp2647
g1101
asbasbasbag56
(g72
g58
NtRp2648
(dp2649
g61
(dp2650
sg70
g2350
sg63
(lp2651
g56
(g77
g58
NtRp2652
(dp2653
g61
(dp2654
g81
g82
ssg70
g2648
sg63
(lp2655
S'PATH_INFO'
p2656
asbag56
(g77
g58
NtRp2657
(dp2658
g61
(dp2659
g88
g89
ssg70
g2648
sg63
(lp2660
S':'
asbag56
(g77
g58
NtRp2661
(dp2662
g61
(dp2663
sg70
g2648
sg63
(lp2664
g56
(g57
g58
NtRp2665
(dp2666
g61
(dp2667
g69
I3
ssg70
g2661
sg63
(lp2668
g1144
asbasbasbag56
(g72
g58
NtRp2669
(dp2670
g61
(dp2671
sg70
g2350
sg63
(lp2672
g56
(g77
g58
NtRp2673
(dp2674
g61
(dp2675
g81
g82
ssg70
g2669
sg63
(lp2676
S'QUERY_STRING'
p2677
asbag56
(g77
g58
NtRp2678
(dp2679
g61
(dp2680
g88
g89
ssg70
g2669
sg63
(lp2681
S':'
asbag56
(g77
g58
NtRp2682
(dp2683
g61
(dp2684
sg70
g2669
sg63
(lp2685
g56
(g57
g58
NtRp2686
(dp2687
g61
(dp2688
g69
I3
ssg70
g2682
sg63
(lp2689
S''
asbasbasbag56
(g72
g58
NtRp2690
(dp2691
g61
(dp2692
sg70
g2350
sg63
(lp2693
g56
(g77
g58
NtRp2694
(dp2695
g61
(dp2696
g81
g82
ssg70
g2690
sg63
(lp2697
S'REMOTE_ADDR'
p2698
asbag56
(g77
g58
NtRp2699
(dp2700
g61
(dp2701
g88
g89
ssg70
g2690
sg63
(lp2702
S':'
asbag56
(g77
g58
NtRp2703
(dp2704
g61
(dp2705
sg70
g2690
sg63
(lp2706
g56
(g57
g58
NtRp2707
(dp2708
g61
(dp2709
g69
I3
ssg70
g2703
sg63
(lp2710
g189
asbasbasbag56
(g72
g58
NtRp2711
(dp2712
g61
(dp2713
sg70
g2350
sg63
(lp2714
g56
(g77
g58
NtRp2715
(dp2716
g61
(dp2717
g81
g82
ssg70
g2711
sg63
(lp2718
S'REMOTE_PORT'
p2719
asbag56
(g77
g58
NtRp2720
(dp2721
g61
(dp2722
g88
g89
ssg70
g2711
sg63
(lp2723
S':'
asbag56
(g77
g58
NtRp2724
(dp2725
g61
(dp2726
sg70
g2711
sg63
(lp2727
g56
(g57
g58
NtRp2728
(dp2729
g61
(dp2730
g69
I3
ssg70
g2724
sg63
(lp2731
g1208
asbasbasbag56
(g72
g58
NtRp2732
(dp2733
g61
(dp2734
sg70
g2350
sg63
(lp2735
g56
(g77
g58
NtRp2736
(dp2737
g61
(dp2738
g81
g82
ssg70
g2732
sg63
(lp2739
S'REQUEST_METHOD'
p2740
asbag56
(g77
g58
NtRp2741
(dp2742
g61
(dp2743
g88
g89
ssg70
g2732
sg63
(lp2744
S':'
asbag56
(g77
g58
NtRp2745
(dp2746
g61
(dp2747
sg70
g2732
sg63
(lp2748
g56
(g57
g58
NtRp2749
(dp2750
g61
(dp2751
g69
I3
ssg70
g2745
sg63
(lp2752
g1230
asbasbasbag56
(g72
g58
NtRp2753
(dp2754
g61
(dp2755
sg70
g2350
sg63
(lp2756
g56
(g77
g58
NtRp2757
(dp2758
g61
(dp2759
g81
g82
ssg70
g2753
sg63
(lp2760
S'SCRIPT_NAME'
p2761
asbag56
(g77
g58
NtRp2762
(dp2763
g61
(dp2764
g88
g89
ssg70
g2753
sg63
(lp2765
S':'
asbag56
(g77
g58
NtRp2766
(dp2767
g61
(dp2768
sg70
g2753
sg63
(lp2769
g56
(g57
g58
NtRp2770
(dp2771
g61
(dp2772
g69
I3
ssg70
g2766
sg63
(lp2773
S''
asbasbasbag56
(g72
g58
NtRp2774
(dp2775
g61
(dp2776
sg70
g2350
sg63
(lp2777
g56
(g77
g58
NtRp2778
(dp2779
g61
(dp2780
g81
g82
ssg70
g2774
sg63
(lp2781
S'SERVER_NAME'
p2782
asbag56
(g77
g58
NtRp2783
(dp2784
g61
(dp2785
g88
g89
ssg70
g2774
sg63
(lp2786
S':'
asbag56
(g77
g58
NtRp2787
(dp2788
g61
(dp2789
sg70
g2774
sg63
(lp2790
g56
(g57
g58
NtRp2791
(dp2792
g61
(dp2793
g69
I3
ssg70
g2787
sg63
(lp2794
g1273
asbasbasbag56
(g72
g58
NtRp2795
(dp2796
g61
(dp2797
sg70
g2350
sg63
(lp2798
g56
(g77
g58
NtRp2799
(dp2800
g61
(dp2801
g81
g82
ssg70
g2795
sg63
(lp2802
S'SERVER_PORT'
p2803
asbag56
(g77
g58
NtRp2804
(dp2805
g61
(dp2806
g88
g89
ssg70
g2795
sg63
(lp2807
S':'
asbag56
(g77
g58
NtRp2808
(dp2809
g61
(dp2810
sg70
g2795
sg63
(lp2811
g56
(g57
g58
NtRp2812
(dp2813
g61
(dp2814
g69
I3
ssg70
g2808
sg63
(lp2815
g1295
asbasbasbag56
(g72
g58
NtRp2816
(dp2817
g61
(dp2818
sg70
g2350
sg63
(lp2819
g56
(g77
g58
NtRp2820
(dp2821
g61
(dp2822
g81
g82
ssg70
g2816
sg63
(lp2823
S'SERVER_PROTOCOL'
p2824
asbag56
(g77
g58
NtRp2825
(dp2826
g61
(dp2827
g88
g89
ssg70
g2816
sg63
(lp2828
S':'
asbag56
(g77
g58
NtRp2829
(dp2830
g61
(dp2831
sg70
g2816
sg63
(lp2832
g56
(g57
g58
NtRp2833
(dp2834
g61
(dp2835
g69
I3
ssg70
g2829
sg63
(lp2836
g1317
asbasbasbag56
(g72
g58
NtRp2837
(dp2838
g61
(dp2839
sg70
g2350
sg63
(lp2840
g56
(g77
g58
NtRp2841
(dp2842
g61
(dp2843
g81
g82
ssg70
g2837
sg63
(lp2844
S'SERVER_SOFTWARE'
p2845
asbag56
(g77
g58
NtRp2846
(dp2847
g61
(dp2848
g88
g89
ssg70
g2837
sg63
(lp2849
S':'
asbag56
(g77
g58
NtRp2850
(dp2851
g61
(dp2852
sg70
g2837
sg63
(lp2853
g56
(g57
g58
NtRp2854
(dp2855
g61
(dp2856
g69
I3
ssg70
g2850
sg63
(lp2857
g1339
asbasbasbag56
(g72
g58
NtRp2858
(dp2859
g61
(dp2860
sg70
g2350
sg63
(lp2861
g56
(g77
g58
NtRp2862
(dp2863
g61
(dp2864
g81
g82
ssg70
g2858
sg63
(lp2865
S'wsgi.errors'
p2866
asbag56
(g77
g58
NtRp2867
(dp2868
g61
(dp2869
g88
g89
ssg70
g2858
sg63
(lp2870
S':'
asbag56
(g77
g58
NtRp2871
(dp2872
g61
(dp2873
sg70
g2858
sg63
(lp2874
g56
(g57
g58
NtRp2875
(dp2876
g61
(dp2877
g69
I3
ssg70
g2871
sg63
(lp2878
S"<open file '<stderr>', mode 'w' at 0x100416140>"
p2879
asbasbasbag56
(g72
g58
NtRp2880
(dp2881
g61
(dp2882
sg70
g2350
sg63
(lp2883
g56
(g77
g58
NtRp2884
(dp2885
g61
(dp2886
g81
g82
ssg70
g2880
sg63
(lp2887
S'wsgi.file_wrapper'
p2888
asbag56
(g77
g58
NtRp2889
(dp2890
g61
(dp2891
g88
g89
ssg70
g2880
sg63
(lp2892
S':'
asbag56
(g77
g58
NtRp2893
(dp2894
g61
(dp2895
sg70
g2880
sg63
(lp2896
g56
(g57
g58
NtRp2897
(dp2898
g61
(dp2899
g69
I3
ssg70
g2893
sg63
(lp2900
S'<class wsgiref.util.FileWrapper at 0x1014a1bf0>'
p2901
asbasbasbag56
(g72
g58
NtRp2902
(dp2903
g61
(dp2904
sg70
g2350
sg63
(lp2905
g56
(g77
g58
NtRp2906
(dp2907
g61
(dp2908
g81
g82
ssg70
g2902
sg63
(lp2909
S'wsgi.input'
p2910
asbag56
(g77
g58
NtRp2911
(dp2912
g61
(dp2913
g88
g89
ssg70
g2902
sg63
(lp2914
S':'
asbag56
(g77
g58
NtRp2915
(dp2916
g61
(dp2917
sg70
g2902
sg63
(lp2918
g56
(g57
g58
NtRp2919
(dp2920
g61
(dp2921
g69
I3
ssg70
g2915
sg63
(lp2922
S"<open file '<fdopen>', mode 'w+b' at 0x101ae7828>"
p2923
asbasbasbag56
(g72
g58
NtRp2924
(dp2925
g61
(dp2926
sg70
g2350
sg63
(lp2927
g56
(g77
g58
NtRp2928
(dp2929
g61
(dp2930
g81
g82
ssg70
g2924
sg63
(lp2931
S'wsgi.multiprocess'
p2932
asbag56
(g77
g58
NtRp2933
(dp2934
g61
(dp2935
g88
g89
ssg70
g2924
sg63
(lp2936
S':'
asbag56
(g77
g58
NtRp2937
(dp2938
g61
(dp2939
sg70
g2924
sg63
(lp2940
g56
(g57
g58
NtRp2941
(dp2942
g61
(dp2943
g69
I3
ssg70
g2937
sg63
(lp2944
g99
asbasbasbag56
(g72
g58
NtRp2945
(dp2946
g61
(dp2947
sg70
g2350
sg63
(lp2948
g56
(g77
g58
NtRp2949
(dp2950
g61
(dp2951
g81
g82
ssg70
g2945
sg63
(lp2952
S'wsgi.multithread'
p2953
asbag56
(g77
g58
NtRp2954
(dp2955
g61
(dp2956
g88
g89
ssg70
g2945
sg63
(lp2957
S':'
asbag56
(g77
g58
NtRp2958
(dp2959
g61
(dp2960
sg70
g2945
sg63
(lp2961
g56
(g57
g58
NtRp2962
(dp2963
g61
(dp2964
g69
I3
ssg70
g2958
sg63
(lp2965
g1579
asbasbasbag56
(g72
g58
NtRp2966
(dp2967
g61
(dp2968
sg70
g2350
sg63
(lp2969
g56
(g77
g58
NtRp2970
(dp2971
g61
(dp2972
g81
g82
ssg70
g2966
sg63
(lp2973
S'wsgi.run_once'
p2974
asbag56
(g77
g58
NtRp2975
(dp2976
g61
(dp2977
g88
g89
ssg70
g2966
sg63
(lp2978
S':'
asbag56
(g77
g58
NtRp2979
(dp2980
g61
(dp2981
sg70
g2966
sg63
(lp2982
g56
(g57
g58
NtRp2983
(dp2984
g61
(dp2985
g69
I3
ssg70
g2979
sg63
(lp2986
g99
asbasbasbag56
(g72
g58
NtRp2987
(dp2988
g61
(dp2989
sg70
g2350
sg63
(lp2990
g56
(g77
g58
NtRp2991
(dp2992
g61
(dp2993
g81
g82
ssg70
g2987
sg63
(lp2994
S'wsgi.url_scheme'
p2995
asbag56
(g77
g58
NtRp2996
(dp2997
g61
(dp2998
g88
g89
ssg70
g2987
sg63
(lp2999
S':'
asbag56
(g77
g58
NtRp3000
(dp3001
g61
(dp3002
sg70
g2987
sg63
(lp3003
g56
(g57
g58
NtRp3004
(dp3005
g61
(dp3006
g69
I3
ssg70
g3000
sg63
(lp3007
g1622
asbasbasbag56
(g72
g58
NtRp3008
(dp3009
g61
(dp3010
sg70
g2350
sg63
(lp3011
g56
(g77
g58
NtRp3012
(dp3013
g61
(dp3014
g81
g82
ssg70
g3008
sg63
(lp3015
S'wsgi.version'
p3016
asbag56
(g77
g58
NtRp3017
(dp3018
g61
(dp3019
g88
g89
ssg70
g3008
sg63
(lp3020
S':'
asbag56
(g77
g58
NtRp3021
(dp3022
g61
(dp3023
sg70
g3008
sg63
(lp3024
g56
(g57
g58
NtRp3025
(dp3026
g61
(dp3027
g69
I3
ssg70
g3021
sg63
(lp3028
S'1'
asbasbasbasbasbasbasbasbasbasbasbasbasbsS'frames'
p3029
(lp3030
(dp3031
S'file'
p3032
S'/Users/excon/Sites/dreamscape/gluon/restricted.py'
p3033
sS'dump'
p3034
(dp3035
S'environment'
p3036
S"{'A': <class 'gluon.html.A'>, 'Auth': <class 'gluon.tools.Auth'>, 'B': <class 'gluon.html.B'>, 'BEAUTIFY': <class 'gluon.html.BEAUTIFY'>, 'BODY': <class 'gluon.html.BODY'>, 'BR': <class 'gluon.html.BR'>, 'BUTTON': <class 'gluon.html.BUTTON'>, 'CAT': <class 'gluon.html.CAT'>, 'CENTER': <class 'gluon.html.CENTER'>, 'CLEANUP': <class 'gluon.validators.CLEANUP'>, ...}"
p3037
sS'ccode'
p3038
S'<code object <module> at 0x101035210, file "/Use...cations/welcome/controllers/default.py", line 12>'
p3039
ssS'lnum'
p3040
I194
sS'lines'
p3041
(dp3042
I192
S'        else:'
p3043
sI193
S'            ccode = compile2(code,layer)'
p3044
sI194
S'        exec ccode in environment'
p3045
sI195
S'    except HTTP:'
p3046
sI196
S'        raise'
p3047
sI197
S'    except Exception, error:'
p3048
sI198
S'        # XXX Show exception in Wing IDE if running in debugger'
p3049
sI189
S'    try:'
p3050
sI190
S'        if type(code) == types.CodeType:'
p3051
sI191
S'            ccode = code'
p3052
ssS'call'
p3053
S"(code='# -*- coding: utf-8 -*-\\n# this file is released ...))\\n\\nresponse._vars=response._caller(coming_soon)\\n', environment={'A': <class 'gluon.html.A'>, 'Auth': <class 'gluon.tools.Auth'>, 'B': <class 'gluon.html.B'>, 'BEAUTIFY': <class 'gluon.html.BEAUTIFY'>, 'BODY': <class 'gluon.html.BODY'>, 'BR': <class 'gluon.html.BR'>, 'BUTTON': <class 'gluon.html.BUTTON'>, 'CAT': <class 'gluon.html.CAT'>, 'CENTER': <class 'gluon.html.CENTER'>, 'CLEANUP': <class 'gluon.validators.CLEANUP'>, ...}, layer='/Users/excon/Sites/dreamscape/applications/welcome/controllers/default.py')"
p3054
sS'func'
p3055
S'restricted'
p3056
sa(dp3057
g3032
S'/Users/excon/Sites/dreamscape/applications/welcome/controllers/default.py'
p3058
sg3034
(dp3059
sg3040
I96
sg3041
(dp3060
I85
S'    http://..../[app]/default/data/select/[table]'
p3061
sI86
S'    http://..../[app]/default/data/search/[table]'
p3062
sI87
S'    but URLs bust be signed, i.e. linked with'
p3063
sI88
S"      A('table',_href=URL('data/tables',user_signature=True))"
p3064
sI89
S'    or with the signed load operator'
p3065
sI90
S"      LOAD('default','data.load',args='tables',ajax=True,user_signature=True)"
p3066
sI91
S'    """'
p3067
sI92
S'    if COMING_SOON:'
p3068
sI93
S"        redirect(URL(r=request, f='coming_soon'))"
p3069
sI94
S'    return dict(form=crud())'
p3070
ssg3053
S'()'
p3071
sg3055
S'<module>'
p3072
sa(dp3073
g3032
S'/Users/excon/Sites/dreamscape/gluon/globals.py'
p3074
sg3034
(dp3075
S'self'
p3076
S'undefined'
p3077
sS'f'
S'<function coming_soon at 0x10189cf50>'
p3078
ssg3040
I149
sg3041
(dp3079
I144
S'        self.meta = Storage()      # used by web2py_ajax.html'
p3080
sI145
S'        self.menu = []             # used by the default view layout'
p3081
sI146
S'        self.files = []            # used by web2py_ajax.html'
p3082
sI147
S'        self.generic_patterns = [] # patterns to allow generic views'
p3083
sI148
S'        self._vars = None'
p3084
sI149
S'        self._caller = lambda f: f()'
p3085
sI150
S'        self._view_environment = None'
p3086
sI151
S'        self._custom_commit = None'
p3087
sI152
S'        self._custom_rollback = None'
p3088
sI153
S''
ssg3053
S'(f=<function coming_soon at 0x10189cf50>)'
p3089
sg3055
S'<lambda>'
p3090
sa(dp3091
g3032
S'/Users/excon/Sites/dreamscape/applications/welcome/controllers/default.py'
p3092
sg3034
(dp3093
S'emails'
p3094
g3077
sS'form'
p3095
S'<gluon.sqlhtml.SQLFORM object at 0x101634790>'
p3096
sS'builtindict'
p3097
S"<type 'dict'>"
p3098
sS'invitations'
p3099
g3077
ssg3040
I34
sg3041
(dp3100
I32
S"        response.flash = 'Type your email'"
p3101
sI33
S''
sI34
S'    return dict(form=form, invitations=emails)'
p3102
sI35
S''
sI36
S'def user():'
p3103
sI37
S'    """'
p3104
sI38
S'    exposes:'
p3105
sI29
S'    elif form.errors:'
p3106
sI30
S"        response.flash = 'Invalid Email'"
p3107
sI31
S'    else:'
p3108
ssg3053
S'()'
p3109
sg3055
S'coming_soon'
p3110
sasS'pyver'
p3111
S'Python 2.6.1: /usr/bin/python'
p3112
sS'session'
p3113
g56
(g57
g58
NtRp3114
(dp3115
g61
(dp3116
sg63
(lp3117
g56
(g65
g58
NtRp3118
(dp3119
g61
(dp3120
g69
I5
ssg70
Nsg63
(lp3121
sbasbsS'etype'
p3122
S"<type 'exceptions.NameError'>"
p3123
sS'date'
p3124
S'Wed Sep 28 18:28:15 2011'
p3125
sS'response'
p3126
g56
(g57
g58
NtRp3127
(dp3128
g61
(dp3129
sg63
(lp3130
g56
(g65
g58
NtRp3131
(dp3132
g61
(dp3133
g69
I5
ssg70
Nsg63
(lp3134
g56
(g72
g58
NtRp3135
(dp3136
g61
(dp3137
sg70
g3131
sg63
(lp3138
g56
(g77
g58
NtRp3139
(dp3140
g61
(dp3141
g81
g82
ssg70
g3135
sg63
(lp3142
g154
asbag56
(g77
g58
NtRp3143
(dp3144
g61
(dp3145
g88
g89
ssg70
g3135
sg63
(lp3146
S':'
asbag56
(g77
g58
NtRp3147
(dp3148
g61
(dp3149
sg70
g3135
sg63
(lp3150
g56
(g57
g58
NtRp3151
(dp3152
g61
(dp3153
g69
I5
ssg70
g3147
sg63
(lp3154
S'<cStringIO.StringO object at 0x1014e23b0>'
p3155
asbasbasbag56
(g72
g58
NtRp3156
(dp3157
g61
(dp3158
sg70
g3131
sg63
(lp3159
g56
(g77
g58
NtRp3160
(dp3161
g61
(dp3162
g81
g82
ssg70
g3156
sg63
(lp3163
g220
asbag56
(g77
g58
NtRp3164
(dp3165
g61
(dp3166
g88
g89
ssg70
g3156
sg63
(lp3167
S':'
asbag56
(g77
g58
NtRp3168
(dp3169
g61
(dp3170
sg70
g3156
sg63
(lp3171
g56
(g57
g58
NtRp3172
(dp3173
g61
(dp3174
g69
I5
ssg70
g3168
sg63
(lp3175
g56
(g65
g58
NtRp3176
(dp3177
g61
(dp3178
g69
I4
ssg70
Nsg63
(lp3179
g56
(g72
g58
NtRp3180
(dp3181
g61
(dp3182
sg70
g3176
sg63
(lp3183
g56
(g77
g58
NtRp3184
(dp3185
g61
(dp3186
g81
g82
ssg70
g3180
sg63
(lp3187
S'session_id_welcome'
p3188
asbag56
(g77
g58
NtRp3189
(dp3190
g61
(dp3191
g88
g89
ssg70
g3180
sg63
(lp3192
S':'
asbag56
(g77
g58
NtRp3193
(dp3194
g61
(dp3195
sg70
g3180
sg63
(lp3196
g56
(g57
g58
NtRp3197
(dp3198
g61
(dp3199
g69
I4
ssg70
g3193
sg63
(lp3200
g56
(g65
g58
NtRp3201
(dp3202
g61
(dp3203
g69
I3
ssg70
Nsg63
(lp3204
g56
(g72
g58
NtRp3205
(dp3206
g61
(dp3207
sg70
g3201
sg63
(lp3208
g56
(g77
g58
NtRp3209
(dp3210
g61
(dp3211
g81
g82
ssg70
g3205
sg63
(lp3212
g270
asbag56
(g77
g58
NtRp3213
(dp3214
g61
(dp3215
g88
g89
ssg70
g3205
sg63
(lp3216
S':'
asbag56
(g77
g58
NtRp3217
(dp3218
g61
(dp3219
sg70
g3205
sg63
(lp3220
g56
(g57
g58
NtRp3221
(dp3222
g61
(dp3223
g69
I3
ssg70
g3217
sg63
(lp3224
S''
asbasbasbag56
(g72
g58
NtRp3225
(dp3226
g61
(dp3227
sg70
g3201
sg63
(lp3228
g56
(g77
g58
NtRp3229
(dp3230
g61
(dp3231
g81
g82
ssg70
g3225
sg63
(lp3232
g291
asbag56
(g77
g58
NtRp3233
(dp3234
g61
(dp3235
g88
g89
ssg70
g3225
sg63
(lp3236
S':'
asbag56
(g77
g58
NtRp3237
(dp3238
g61
(dp3239
sg70
g3225
sg63
(lp3240
g56
(g57
g58
NtRp3241
(dp3242
g61
(dp3243
g69
I3
ssg70
g3237
sg63
(lp3244
S''
asbasbasbag56
(g72
g58
NtRp3245
(dp3246
g61
(dp3247
sg70
g3201
sg63
(lp3248
g56
(g77
g58
NtRp3249
(dp3250
g61
(dp3251
g81
g82
ssg70
g3245
sg63
(lp3252
g312
asbag56
(g77
g58
NtRp3253
(dp3254
g61
(dp3255
g88
g89
ssg70
g3245
sg63
(lp3256
S':'
asbag56
(g77
g58
NtRp3257
(dp3258
g61
(dp3259
sg70
g3245
sg63
(lp3260
g56
(g57
g58
NtRp3261
(dp3262
g61
(dp3263
g69
I3
ssg70
g3257
sg63
(lp3264
S''
asbasbasbag56
(g72
g58
NtRp3265
(dp3266
g61
(dp3267
sg70
g3201
sg63
(lp3268
g56
(g77
g58
NtRp3269
(dp3270
g61
(dp3271
g81
g82
ssg70
g3265
sg63
(lp3272
g333
asbag56
(g77
g58
NtRp3273
(dp3274
g61
(dp3275
g88
g89
ssg70
g3265
sg63
(lp3276
S':'
asbag56
(g77
g58
NtRp3277
(dp3278
g61
(dp3279
sg70
g3265
sg63
(lp3280
g56
(g57
g58
NtRp3281
(dp3282
g61
(dp3283
g69
I3
ssg70
g3277
sg63
(lp3284
S''
asbasbasbag56
(g72
g58
NtRp3285
(dp3286
g61
(dp3287
sg70
g3201
sg63
(lp3288
g56
(g77
g58
NtRp3289
(dp3290
g61
(dp3291
g81
g82
ssg70
g3285
sg63
(lp3292
g354
asbag56
(g77
g58
NtRp3293
(dp3294
g61
(dp3295
g88
g89
ssg70
g3285
sg63
(lp3296
S':'
asbag56
(g77
g58
NtRp3297
(dp3298
g61
(dp3299
sg70
g3285
sg63
(lp3300
g56
(g57
g58
NtRp3301
(dp3302
g61
(dp3303
g69
I3
ssg70
g3297
sg63
(lp3304
S''
asbasbasbag56
(g72
g58
NtRp3305
(dp3306
g61
(dp3307
sg70
g3201
sg63
(lp3308
g56
(g77
g58
NtRp3309
(dp3310
g61
(dp3311
g81
g82
ssg70
g3305
sg63
(lp3312
g375
asbag56
(g77
g58
NtRp3313
(dp3314
g61
(dp3315
g88
g89
ssg70
g3305
sg63
(lp3316
S':'
asbag56
(g77
g58
NtRp3317
(dp3318
g61
(dp3319
sg70
g3305
sg63
(lp3320
g56
(g57
g58
NtRp3321
(dp3322
g61
(dp3323
g69
I3
ssg70
g3317
sg63
(lp3324
S'/'
asbasbasbag56
(g72
g58
NtRp3325
(dp3326
g61
(dp3327
sg70
g3201
sg63
(lp3328
g56
(g77
g58
NtRp3329
(dp3330
g61
(dp3331
g81
g82
ssg70
g3325
sg63
(lp3332
g396
asbag56
(g77
g58
NtRp3333
(dp3334
g61
(dp3335
g88
g89
ssg70
g3325
sg63
(lp3336
S':'
asbag56
(g77
g58
NtRp3337
(dp3338
g61
(dp3339
sg70
g3325
sg63
(lp3340
g56
(g57
g58
NtRp3341
(dp3342
g61
(dp3343
g69
I3
ssg70
g3337
sg63
(lp3344
S''
asbasbasbag56
(g72
g58
NtRp3345
(dp3346
g61
(dp3347
sg70
g3201
sg63
(lp3348
g56
(g77
g58
NtRp3349
(dp3350
g61
(dp3351
g81
g82
ssg70
g3345
sg63
(lp3352
g417
asbag56
(g77
g58
NtRp3353
(dp3354
g61
(dp3355
g88
g89
ssg70
g3345
sg63
(lp3356
S':'
asbag56
(g77
g58
NtRp3357
(dp3358
g61
(dp3359
sg70
g3345
sg63
(lp3360
g56
(g57
g58
NtRp3361
(dp3362
g61
(dp3363
g69
I3
ssg70
g3357
sg63
(lp3364
S''
asbasbasbasbasbasbasbasbasbasbasbag56
(g72
g58
NtRp3365
(dp3366
g61
(dp3367
sg70
g3131
sg63
(lp3368
g56
(g77
g58
NtRp3369
(dp3370
g61
(dp3371
g81
g82
ssg70
g3365
sg63
(lp3372
S'files'
p3373
asbag56
(g77
g58
NtRp3374
(dp3375
g61
(dp3376
g88
g89
ssg70
g3365
sg63
(lp3377
S':'
asbag56
(g77
g58
NtRp3378
(dp3379
g61
(dp3380
sg70
g3365
sg63
(lp3381
g56
(g57
g58
NtRp3382
(dp3383
g61
(dp3384
g69
I5
ssg70
g3378
sg63
(lp3385
g56
(g65
g58
NtRp3386
(dp3387
g61
(dp3388
g69
I4
ssg70
Nsg63
(lp3389
sbasbasbasbag56
(g72
g58
NtRp3390
(dp3391
g61
(dp3392
sg70
g3131
sg63
(lp3393
g56
(g77
g58
NtRp3394
(dp3395
g61
(dp3396
g81
g82
ssg70
g3390
sg63
(lp3397
S'flash'
p3398
asbag56
(g77
g58
NtRp3399
(dp3400
g61
(dp3401
g88
g89
ssg70
g3390
sg63
(lp3402
S':'
asbag56
(g77
g58
NtRp3403
(dp3404
g61
(dp3405
sg70
g3390
sg63
(lp3406
g56
(g57
g58
NtRp3407
(dp3408
g61
(dp3409
g69
I5
ssg70
g3403
sg63
(lp3410
S'Type your email'
p3411
asbasbasbag56
(g72
g58
NtRp3412
(dp3413
g61
(dp3414
sg70
g3131
sg63
(lp3415
g56
(g77
g58
NtRp3416
(dp3417
g61
(dp3418
g81
g82
ssg70
g3412
sg63
(lp3419
S'generic_patterns'
p3420
asbag56
(g77
g58
NtRp3421
(dp3422
g61
(dp3423
g88
g89
ssg70
g3412
sg63
(lp3424
S':'
asbag56
(g77
g58
NtRp3425
(dp3426
g61
(dp3427
sg70
g3412
sg63
(lp3428
g56
(g57
g58
NtRp3429
(dp3430
g61
(dp3431
g69
I5
ssg70
g3425
sg63
(lp3432
g56
(g65
g58
NtRp3433
(dp3434
g61
(dp3435
g69
I4
ssg70
Nsg63
(lp3436
g56
(g72
g58
NtRp3437
(dp3438
g61
(dp3439
sg70
g3433
sg63
(lp3440
g56
(g77
g58
NtRp3441
(dp3442
g61
(dp3443
sg70
g3437
sg63
(lp3444
g56
(g57
g58
NtRp3445
(dp3446
g61
(dp3447
g69
I4
ssg70
g3441
sg63
(lp3448
S'*'
asbasbasbasbasbasbasbag56
(g72
g58
NtRp3449
(dp3450
g61
(dp3451
sg70
g3131
sg63
(lp3452
g56
(g77
g58
NtRp3453
(dp3454
g61
(dp3455
g81
g82
ssg70
g3449
sg63
(lp3456
S'headers'
p3457
asbag56
(g77
g58
NtRp3458
(dp3459
g61
(dp3460
g88
g89
ssg70
g3449
sg63
(lp3461
S':'
asbag56
(g77
g58
NtRp3462
(dp3463
g61
(dp3464
sg70
g3449
sg63
(lp3465
g56
(g57
g58
NtRp3466
(dp3467
g61
(dp3468
g69
I5
ssg70
g3462
sg63
(lp3469
g56
(g65
g58
NtRp3470
(dp3471
g61
(dp3472
g69
I4
ssg70
Nsg63
(lp3473
g56
(g72
g58
NtRp3474
(dp3475
g61
(dp3476
sg70
g3470
sg63
(lp3477
g56
(g77
g58
NtRp3478
(dp3479
g61
(dp3480
g81
g82
ssg70
g3474
sg63
(lp3481
S'Cache-Control'
p3482
asbag56
(g77
g58
NtRp3483
(dp3484
g61
(dp3485
g88
g89
ssg70
g3474
sg63
(lp3486
S':'
asbag56
(g77
g58
NtRp3487
(dp3488
g61
(dp3489
sg70
g3474
sg63
(lp3490
g56
(g57
g58
NtRp3491
(dp3492
g61
(dp3493
g69
I4
ssg70
g3487
sg63
(lp3494
S'no-store, no-cache, must-revalidate, post-check=0, pre-check=0'
p3495
asbasbasbag56
(g72
g58
NtRp3496
(dp3497
g61
(dp3498
sg70
g3470
sg63
(lp3499
g56
(g77
g58
NtRp3500
(dp3501
g61
(dp3502
g81
g82
ssg70
g3496
sg63
(lp3503
S'Content-Type'
p3504
asbag56
(g77
g58
NtRp3505
(dp3506
g61
(dp3507
g88
g89
ssg70
g3496
sg63
(lp3508
S':'
asbag56
(g77
g58
NtRp3509
(dp3510
g61
(dp3511
sg70
g3496
sg63
(lp3512
g56
(g57
g58
NtRp3513
(dp3514
g61
(dp3515
g69
I4
ssg70
g3509
sg63
(lp3516
S'text/html; charset=utf-8'
p3517
asbasbasbag56
(g72
g58
NtRp3518
(dp3519
g61
(dp3520
sg70
g3470
sg63
(lp3521
g56
(g77
g58
NtRp3522
(dp3523
g61
(dp3524
g81
g82
ssg70
g3518
sg63
(lp3525
S'Expires'
p3526
asbag56
(g77
g58
NtRp3527
(dp3528
g61
(dp3529
g88
g89
ssg70
g3518
sg63
(lp3530
S':'
asbag56
(g77
g58
NtRp3531
(dp3532
g61
(dp3533
sg70
g3518
sg63
(lp3534
g56
(g57
g58
NtRp3535
(dp3536
g61
(dp3537
g69
I4
ssg70
g3531
sg63
(lp3538
S'Thu, 29 Sep 2011 01:28:15 GMT'
p3539
asbasbasbag56
(g72
g58
NtRp3540
(dp3541
g61
(dp3542
sg70
g3470
sg63
(lp3543
g56
(g77
g58
NtRp3544
(dp3545
g61
(dp3546
g81
g82
ssg70
g3540
sg63
(lp3547
S'Pragma'
p3548
asbag56
(g77
g58
NtRp3549
(dp3550
g61
(dp3551
g88
g89
ssg70
g3540
sg63
(lp3552
S':'
asbag56
(g77
g58
NtRp3553
(dp3554
g61
(dp3555
sg70
g3540
sg63
(lp3556
g56
(g57
g58
NtRp3557
(dp3558
g61
(dp3559
g69
I4
ssg70
g3553
sg63
(lp3560
S'no-cache'
p3561
asbasbasbag56
(g72
g58
NtRp3562
(dp3563
g61
(dp3564
sg70
g3470
sg63
(lp3565
g56
(g77
g58
NtRp3566
(dp3567
g61
(dp3568
g81
g82
ssg70
g3562
sg63
(lp3569
S'X-Powered-By'
p3570
asbag56
(g77
g58
NtRp3571
(dp3572
g61
(dp3573
g88
g89
ssg70
g3562
sg63
(lp3574
S':'
asbag56
(g77
g58
NtRp3575
(dp3576
g61
(dp3577
sg70
g3562
sg63
(lp3578
g56
(g57
g58
NtRp3579
(dp3580
g61
(dp3581
g69
I4
ssg70
g3575
sg63
(lp3582
S'web2py'
p3583
asbasbasbasbasbasbasbag56
(g72
g58
NtRp3584
(dp3585
g61
(dp3586
sg70
g3131
sg63
(lp3587
g56
(g77
g58
NtRp3588
(dp3589
g61
(dp3590
g81
g82
ssg70
g3584
sg63
(lp3591
S'menu'
p3592
asbag56
(g77
g58
NtRp3593
(dp3594
g61
(dp3595
g88
g89
ssg70
g3584
sg63
(lp3596
S':'
asbag56
(g77
g58
NtRp3597
(dp3598
g61
(dp3599
sg70
g3584
sg63
(lp3600
g56
(g57
g58
NtRp3601
(dp3602
g61
(dp3603
g69
I5
ssg70
g3597
sg63
(lp3604
g56
(g65
g58
NtRp3605
(dp3606
g61
(dp3607
g69
I4
ssg70
Nsg63
(lp3608
g56
(g72
g58
NtRp3609
(dp3610
g61
(dp3611
sg70
g3605
sg63
(lp3612
g56
(g77
g58
NtRp3613
(dp3614
g61
(dp3615
sg70
g3609
sg63
(lp3616
g56
(g57
g58
NtRp3617
(dp3618
g61
(dp3619
g69
I4
ssg70
g3613
sg63
(lp3620
g56
(g65
g58
NtRp3621
(dp3622
g61
(dp3623
g69
I3
ssg70
Nsg63
(lp3624
g56
(g72
g58
NtRp3625
(dp3626
g61
(dp3627
sg70
g3621
sg63
(lp3628
g56
(g77
g58
NtRp3629
(dp3630
g61
(dp3631
sg70
g3625
sg63
(lp3632
g56
(g57
g58
NtRp3633
(dp3634
g61
(dp3635
g69
I3
ssg70
g3629
sg63
(lp3636
cgluon.languages
lazyT_unpickle
p3637
(S's\x04\x00\x00\x00Home'
tRp3638
asbasbasbag56
(g72
g58
NtRp3639
(dp3640
g61
(dp3641
sg70
g3621
sg63
(lp3642
g56
(g77
g58
NtRp3643
(dp3644
g61
(dp3645
sg70
g3639
sg63
(lp3646
g56
(g57
g58
NtRp3647
(dp3648
g61
(dp3649
g69
I3
ssg70
g3643
sg63
(lp3650
g99
asbasbasbag56
(g72
g58
NtRp3651
(dp3652
g61
(dp3653
sg70
g3621
sg63
(lp3654
g56
(g77
g58
NtRp3655
(dp3656
g61
(dp3657
sg70
g3651
sg63
(lp3658
g56
(g57
g58
NtRp3659
(dp3660
g61
(dp3661
g69
I3
ssg70
g3655
sg63
(lp3662
S'/welcome/default/index'
p3663
asbasbasbag56
(g72
g58
NtRp3664
(dp3665
g61
(dp3666
sg70
g3621
sg63
(lp3667
g56
(g77
g58
NtRp3668
(dp3669
g61
(dp3670
sg70
g3664
sg63
(lp3671
g56
(g57
g58
NtRp3672
(dp3673
g61
(dp3674
g69
I3
ssg70
g3668
sg63
(lp3675
g56
(g65
g58
NtRp3676
(dp3677
g61
(dp3678
g69
I2
ssg70
Nsg63
(lp3679
sbasbasbasbasbasbasbasbag56
(g72
g58
NtRp3680
(dp3681
g61
(dp3682
sg70
g3605
sg63
(lp3683
g56
(g77
g58
NtRp3684
(dp3685
g61
(dp3686
sg70
g3680
sg63
(lp3687
g56
(g57
g58
NtRp3688
(dp3689
g61
(dp3690
g69
I4
ssg70
g3684
sg63
(lp3691
g56
(g65
g58
NtRp3692
(dp3693
g61
(dp3694
g69
I3
ssg70
Nsg63
(lp3695
g56
(g72
g58
NtRp3696
(dp3697
g61
(dp3698
sg70
g3692
sg63
(lp3699
g56
(g77
g58
NtRp3700
(dp3701
g61
(dp3702
sg70
g3696
sg63
(lp3703
g56
(g57
g58
NtRp3704
(dp3705
g61
(dp3706
g69
I3
ssg70
g3700
sg63
(lp3707
g3637
(S's\x08\x00\x00\x00This App'
tRp3708
asbasbasbag56
(g72
g58
NtRp3709
(dp3710
g61
(dp3711
sg70
g3692
sg63
(lp3712
g56
(g77
g58
NtRp3713
(dp3714
g61
(dp3715
sg70
g3709
sg63
(lp3716
g56
(g57
g58
NtRp3717
(dp3718
g61
(dp3719
g69
I3
ssg70
g3713
sg63
(lp3720
g99
asbasbasbag56
(g72
g58
NtRp3721
(dp3722
g61
(dp3723
sg70
g3692
sg63
(lp3724
g56
(g77
g58
NtRp3725
(dp3726
g61
(dp3727
sg70
g3721
sg63
(lp3728
g56
(g57
g58
NtRp3729
(dp3730
g61
(dp3731
g69
I3
ssg70
g3725
sg63
(lp3732
S'/admin/default/design/welcome'
p3733
asbasbasbag56
(g72
g58
NtRp3734
(dp3735
g61
(dp3736
sg70
g3692
sg63
(lp3737
g56
(g77
g58
NtRp3738
(dp3739
g61
(dp3740
sg70
g3734
sg63
(lp3741
g56
(g57
g58
NtRp3742
(dp3743
g61
(dp3744
g69
I3
ssg70
g3738
sg63
(lp3745
g56
(g65
g58
NtRp3746
(dp3747
g61
(dp3748
g69
I2
ssg70
Nsg63
(lp3749
g56
(g72
g58
NtRp3750
(dp3751
g61
(dp3752
sg70
g3746
sg63
(lp3753
g56
(g77
g58
NtRp3754
(dp3755
g61
(dp3756
sg70
g3750
sg63
(lp3757
g56
(g57
g58
NtRp3758
(dp3759
g61
(dp3760
g69
I2
ssg70
g3754
sg63
(lp3761
g56
(g65
g58
NtRp3762
(dp3763
g61
(dp3764
g69
I1
ssg70
Nsg63
(lp3765
g56
(g72
g58
NtRp3766
(dp3767
g61
(dp3768
sg70
g3762
sg63
(lp3769
g56
(g77
g58
NtRp3770
(dp3771
g61
(dp3772
sg70
g3766
sg63
(lp3773
g56
(g57
g58
NtRp3774
(dp3775
g61
(dp3776
g69
I1
ssg70
g3770
sg63
(lp3777
g3637
(S's\n\x00\x00\x00Controller'
tRp3778
asbasbasbag56
(g72
g58
NtRp3779
(dp3780
g61
(dp3781
sg70
g3762
sg63
(lp3782
g56
(g77
g58
NtRp3783
(dp3784
g61
(dp3785
sg70
g3779
sg63
(lp3786
g56
(g57
g58
NtRp3787
(dp3788
g61
(dp3789
g69
I1
ssg70
g3783
sg63
(lp3790
I00
asbasbasbag56
(g72
g58
NtRp3791
(dp3792
g61
(dp3793
sg70
g3762
sg63
(lp3794
g56
(g77
g58
NtRp3795
(dp3796
g61
(dp3797
sg70
g3791
sg63
(lp3798
g56
(g57
g58
NtRp3799
(dp3800
g61
(dp3801
g69
I1
ssg70
g3795
sg63
(lp3802
S'/admin/default/edit/welcome/controllers/default.py'
p3803
asbasbasbasbasbasbasbag56
(g72
g58
NtRp3804
(dp3805
g61
(dp3806
sg70
g3746
sg63
(lp3807
g56
(g77
g58
NtRp3808
(dp3809
g61
(dp3810
sg70
g3804
sg63
(lp3811
g56
(g57
g58
NtRp3812
(dp3813
g61
(dp3814
g69
I2
ssg70
g3808
sg63
(lp3815
g56
(g65
g58
NtRp3816
(dp3817
g61
(dp3818
g69
I1
ssg70
Nsg63
(lp3819
g56
(g72
g58
NtRp3820
(dp3821
g61
(dp3822
sg70
g3816
sg63
(lp3823
g56
(g77
g58
NtRp3824
(dp3825
g61
(dp3826
sg70
g3820
sg63
(lp3827
g56
(g57
g58
NtRp3828
(dp3829
g61
(dp3830
g69
I1
ssg70
g3824
sg63
(lp3831
g3637
(S's\x04\x00\x00\x00View'
tRp3832
asbasbasbag56
(g72
g58
NtRp3833
(dp3834
g61
(dp3835
sg70
g3816
sg63
(lp3836
g56
(g77
g58
NtRp3837
(dp3838
g61
(dp3839
sg70
g3833
sg63
(lp3840
g56
(g57
g58
NtRp3841
(dp3842
g61
(dp3843
g69
I1
ssg70
g3837
sg63
(lp3844
I00
asbasbasbag56
(g72
g58
NtRp3845
(dp3846
g61
(dp3847
sg70
g3816
sg63
(lp3848
g56
(g77
g58
NtRp3849
(dp3850
g61
(dp3851
sg70
g3845
sg63
(lp3852
g56
(g57
g58
NtRp3853
(dp3854
g61
(dp3855
g69
I1
ssg70
g3849
sg63
(lp3856
S'/admin/default/edit/welcome/views/default/coming_soon.html'
p3857
asbasbasbasbasbasbasbag56
(g72
g58
NtRp3858
(dp3859
g61
(dp3860
sg70
g3746
sg63
(lp3861
g56
(g77
g58
NtRp3862
(dp3863
g61
(dp3864
sg70
g3858
sg63
(lp3865
g56
(g57
g58
NtRp3866
(dp3867
g61
(dp3868
g69
I2
ssg70
g3862
sg63
(lp3869
g56
(g65
g58
NtRp3870
(dp3871
g61
(dp3872
g69
I1
ssg70
Nsg63
(lp3873
g56
(g72
g58
NtRp3874
(dp3875
g61
(dp3876
sg70
g3870
sg63
(lp3877
g56
(g77
g58
NtRp3878
(dp3879
g61
(dp3880
sg70
g3874
sg63
(lp3881
g56
(g57
g58
NtRp3882
(dp3883
g61
(dp3884
g69
I1
ssg70
g3878
sg63
(lp3885
g3637
(S's\x06\x00\x00\x00Layout'
tRp3886
asbasbasbag56
(g72
g58
NtRp3887
(dp3888
g61
(dp3889
sg70
g3870
sg63
(lp3890
g56
(g77
g58
NtRp3891
(dp3892
g61
(dp3893
sg70
g3887
sg63
(lp3894
g56
(g57
g58
NtRp3895
(dp3896
g61
(dp3897
g69
I1
ssg70
g3891
sg63
(lp3898
I00
asbasbasbag56
(g72
g58
NtRp3899
(dp3900
g61
(dp3901
sg70
g3870
sg63
(lp3902
g56
(g77
g58
NtRp3903
(dp3904
g61
(dp3905
sg70
g3899
sg63
(lp3906
g56
(g57
g58
NtRp3907
(dp3908
g61
(dp3909
g69
I1
ssg70
g3903
sg63
(lp3910
S'/admin/default/edit/welcome/views/layout.html'
p3911
asbasbasbasbasbasbasbag56
(g72
g58
NtRp3912
(dp3913
g61
(dp3914
sg70
g3746
sg63
(lp3915
g56
(g77
g58
NtRp3916
(dp3917
g61
(dp3918
sg70
g3912
sg63
(lp3919
g56
(g57
g58
NtRp3920
(dp3921
g61
(dp3922
g69
I2
ssg70
g3916
sg63
(lp3923
g56
(g65
g58
NtRp3924
(dp3925
g61
(dp3926
g69
I1
ssg70
Nsg63
(lp3927
g56
(g72
g58
NtRp3928
(dp3929
g61
(dp3930
sg70
g3924
sg63
(lp3931
g56
(g77
g58
NtRp3932
(dp3933
g61
(dp3934
sg70
g3928
sg63
(lp3935
g56
(g57
g58
NtRp3936
(dp3937
g61
(dp3938
g69
I1
ssg70
g3932
sg63
(lp3939
g3637
(S's\n\x00\x00\x00Stylesheet'
tRp3940
asbasbasbag56
(g72
g58
NtRp3941
(dp3942
g61
(dp3943
sg70
g3924
sg63
(lp3944
g56
(g77
g58
NtRp3945
(dp3946
g61
(dp3947
sg70
g3941
sg63
(lp3948
g56
(g57
g58
NtRp3949
(dp3950
g61
(dp3951
g69
I1
ssg70
g3945
sg63
(lp3952
I00
asbasbasbag56
(g72
g58
NtRp3953
(dp3954
g61
(dp3955
sg70
g3924
sg63
(lp3956
g56
(g77
g58
NtRp3957
(dp3958
g61
(dp3959
sg70
g3953
sg63
(lp3960
g56
(g57
g58
NtRp3961
(dp3962
g61
(dp3963
g69
I1
ssg70
g3957
sg63
(lp3964
S'/admin/default/edit/welcome/static/base.css'
p3965
asbasbasbasbasbasbasbag56
(g72
g58
NtRp3966
(dp3967
g61
(dp3968
sg70
g3746
sg63
(lp3969
g56
(g77
g58
NtRp3970
(dp3971
g61
(dp3972
sg70
g3966
sg63
(lp3973
g56
(g57
g58
NtRp3974
(dp3975
g61
(dp3976
g69
I2
ssg70
g3970
sg63
(lp3977
g56
(g65
g58
NtRp3978
(dp3979
g61
(dp3980
g69
I1
ssg70
Nsg63
(lp3981
g56
(g72
g58
NtRp3982
(dp3983
g61
(dp3984
sg70
g3978
sg63
(lp3985
g56
(g77
g58
NtRp3986
(dp3987
g61
(dp3988
sg70
g3982
sg63
(lp3989
g56
(g57
g58
NtRp3990
(dp3991
g61
(dp3992
g69
I1
ssg70
g3986
sg63
(lp3993
g3637
(S's\x08\x00\x00\x00DB Model'
tRp3994
asbasbasbag56
(g72
g58
NtRp3995
(dp3996
g61
(dp3997
sg70
g3978
sg63
(lp3998
g56
(g77
g58
NtRp3999
(dp4000
g61
(dp4001
sg70
g3995
sg63
(lp4002
g56
(g57
g58
NtRp4003
(dp4004
g61
(dp4005
g69
I1
ssg70
g3999
sg63
(lp4006
I00
asbasbasbag56
(g72
g58
NtRp4007
(dp4008
g61
(dp4009
sg70
g3978
sg63
(lp4010
g56
(g77
g58
NtRp4011
(dp4012
g61
(dp4013
sg70
g4007
sg63
(lp4014
g56
(g57
g58
NtRp4015
(dp4016
g61
(dp4017
g69
I1
ssg70
g4011
sg63
(lp4018
S'/admin/default/edit/welcome/models/db.py'
p4019
asbasbasbasbasbasbasbag56
(g72
g58
NtRp4020
(dp4021
g61
(dp4022
sg70
g3746
sg63
(lp4023
g56
(g77
g58
NtRp4024
(dp4025
g61
(dp4026
sg70
g4020
sg63
(lp4027
g56
(g57
g58
NtRp4028
(dp4029
g61
(dp4030
g69
I2
ssg70
g4024
sg63
(lp4031
g56
(g65
g58
NtRp4032
(dp4033
g61
(dp4034
g69
I1
ssg70
Nsg63
(lp4035
g56
(g72
g58
NtRp4036
(dp4037
g61
(dp4038
sg70
g4032
sg63
(lp4039
g56
(g77
g58
NtRp4040
(dp4041
g61
(dp4042
sg70
g4036
sg63
(lp4043
g56
(g57
g58
NtRp4044
(dp4045
g61
(dp4046
g69
I1
ssg70
g4040
sg63
(lp4047
g3637
(S's\n\x00\x00\x00Menu Model'
tRp4048
asbasbasbag56
(g72
g58
NtRp4049
(dp4050
g61
(dp4051
sg70
g4032
sg63
(lp4052
g56
(g77
g58
NtRp4053
(dp4054
g61
(dp4055
sg70
g4049
sg63
(lp4056
g56
(g57
g58
NtRp4057
(dp4058
g61
(dp4059
g69
I1
ssg70
g4053
sg63
(lp4060
I00
asbasbasbag56
(g72
g58
NtRp4061
(dp4062
g61
(dp4063
sg70
g4032
sg63
(lp4064
g56
(g77
g58
NtRp4065
(dp4066
g61
(dp4067
sg70
g4061
sg63
(lp4068
g56
(g57
g58
NtRp4069
(dp4070
g61
(dp4071
g69
I1
ssg70
g4065
sg63
(lp4072
S'/admin/default/edit/welcome/models/menu.py'
p4073
asbasbasbasbasbasbasbag56
(g72
g58
NtRp4074
(dp4075
g61
(dp4076
sg70
g3746
sg63
(lp4077
g56
(g77
g58
NtRp4078
(dp4079
g61
(dp4080
sg70
g4074
sg63
(lp4081
g56
(g57
g58
NtRp4082
(dp4083
g61
(dp4084
g69
I2
ssg70
g4078
sg63
(lp4085
g56
(g65
g58
NtRp4086
(dp4087
g61
(dp4088
g69
I1
ssg70
Nsg63
(lp4089
g56
(g72
g58
NtRp4090
(dp4091
g61
(dp4092
sg70
g4086
sg63
(lp4093
g56
(g77
g58
NtRp4094
(dp4095
g61
(dp4096
sg70
g4090
sg63
(lp4097
g56
(g57
g58
NtRp4098
(dp4099
g61
(dp4100
g69
I1
ssg70
g4094
sg63
(lp4101
g3637
(S's\x08\x00\x00\x00Database'
tRp4102
asbasbasbag56
(g72
g58
NtRp4103
(dp4104
g61
(dp4105
sg70
g4086
sg63
(lp4106
g56
(g77
g58
NtRp4107
(dp4108
g61
(dp4109
sg70
g4103
sg63
(lp4110
g56
(g57
g58
NtRp4111
(dp4112
g61
(dp4113
g69
I1
ssg70
g4107
sg63
(lp4114
I00
asbasbasbag56
(g72
g58
NtRp4115
(dp4116
g61
(dp4117
sg70
g4086
sg63
(lp4118
g56
(g77
g58
NtRp4119
(dp4120
g61
(dp4121
sg70
g4115
sg63
(lp4122
g56
(g57
g58
NtRp4123
(dp4124
g61
(dp4125
g69
I1
ssg70
g4119
sg63
(lp4126
S'/welcome/appadmin/index'
p4127
asbasbasbasbasbasbasbag56
(g72
g58
NtRp4128
(dp4129
g61
(dp4130
sg70
g3746
sg63
(lp4131
g56
(g77
g58
NtRp4132
(dp4133
g61
(dp4134
sg70
g4128
sg63
(lp4135
g56
(g57
g58
NtRp4136
(dp4137
g61
(dp4138
g69
I2
ssg70
g4132
sg63
(lp4139
g56
(g65
g58
NtRp4140
(dp4141
g61
(dp4142
g69
I1
ssg70
Nsg63
(lp4143
g56
(g72
g58
NtRp4144
(dp4145
g61
(dp4146
sg70
g4140
sg63
(lp4147
g56
(g77
g58
NtRp4148
(dp4149
g61
(dp4150
sg70
g4144
sg63
(lp4151
g56
(g57
g58
NtRp4152
(dp4153
g61
(dp4154
g69
I1
ssg70
g4148
sg63
(lp4155
g3637
(S's\x06\x00\x00\x00Errors'
tRp4156
asbasbasbag56
(g72
g58
NtRp4157
(dp4158
g61
(dp4159
sg70
g4140
sg63
(lp4160
g56
(g77
g58
NtRp4161
(dp4162
g61
(dp4163
sg70
g4157
sg63
(lp4164
g56
(g57
g58
NtRp4165
(dp4166
g61
(dp4167
g69
I1
ssg70
g4161
sg63
(lp4168
I00
asbasbasbag56
(g72
g58
NtRp4169
(dp4170
g61
(dp4171
sg70
g4140
sg63
(lp4172
g56
(g77
g58
NtRp4173
(dp4174
g61
(dp4175
sg70
g4169
sg63
(lp4176
g56
(g57
g58
NtRp4177
(dp4178
g61
(dp4179
g69
I1
ssg70
g4173
sg63
(lp4180
S'/admin/default/errors/welcome'
p4181
asbasbasbasbasbasbasbag56
(g72
g58
NtRp4182
(dp4183
g61
(dp4184
sg70
g3746
sg63
(lp4185
g56
(g77
g58
NtRp4186
(dp4187
g61
(dp4188
sg70
g4182
sg63
(lp4189
g56
(g57
g58
NtRp4190
(dp4191
g61
(dp4192
g69
I2
ssg70
g4186
sg63
(lp4193
g56
(g65
g58
NtRp4194
(dp4195
g61
(dp4196
g69
I1
ssg70
Nsg63
(lp4197
g56
(g72
g58
NtRp4198
(dp4199
g61
(dp4200
sg70
g4194
sg63
(lp4201
g56
(g77
g58
NtRp4202
(dp4203
g61
(dp4204
sg70
g4198
sg63
(lp4205
g56
(g57
g58
NtRp4206
(dp4207
g61
(dp4208
g69
I1
ssg70
g4202
sg63
(lp4209
g3637
(S's\x05\x00\x00\x00About'
tRp4210
asbasbasbag56
(g72
g58
NtRp4211
(dp4212
g61
(dp4213
sg70
g4194
sg63
(lp4214
g56
(g77
g58
NtRp4215
(dp4216
g61
(dp4217
sg70
g4211
sg63
(lp4218
g56
(g57
g58
NtRp4219
(dp4220
g61
(dp4221
g69
I1
ssg70
g4215
sg63
(lp4222
I00
asbasbasbag56
(g72
g58
NtRp4223
(dp4224
g61
(dp4225
sg70
g4194
sg63
(lp4226
g56
(g77
g58
NtRp4227
(dp4228
g61
(dp4229
sg70
g4223
sg63
(lp4230
g56
(g57
g58
NtRp4231
(dp4232
g61
(dp4233
g69
I1
ssg70
g4227
sg63
(lp4234
S'/admin/default/about/welcome'
p4235
asbasbasbasbasbasbasbasbasbasbasbasbasbasbasbag56
(g72
g58
NtRp4236
(dp4237
g61
(dp4238
sg70
g3605
sg63
(lp4239
g56
(g77
g58
NtRp4240
(dp4241
g61
(dp4242
sg70
g4236
sg63
(lp4243
g56
(g57
g58
NtRp4244
(dp4245
g61
(dp4246
g69
I4
ssg70
g4240
sg63
(lp4247
g56
(g65
g58
NtRp4248
(dp4249
g61
(dp4250
g69
I3
ssg70
Nsg63
(lp4251
g56
(g72
g58
NtRp4252
(dp4253
g61
(dp4254
sg70
g4248
sg63
(lp4255
g56
(g77
g58
NtRp4256
(dp4257
g61
(dp4258
sg70
g4252
sg63
(lp4259
g56
(g57
g58
NtRp4260
(dp4261
g61
(dp4262
g69
I3
ssg70
g4256
sg63
(lp4263
g3637
(S's\t\x00\x00\x00Resources'
tRp4264
asbasbasbag56
(g72
g58
NtRp4265
(dp4266
g61
(dp4267
sg70
g4248
sg63
(lp4268
g56
(g77
g58
NtRp4269
(dp4270
g61
(dp4271
sg70
g4265
sg63
(lp4272
g56
(g57
g58
NtRp4273
(dp4274
g61
(dp4275
g69
I3
ssg70
g4269
sg63
(lp4276
g99
asbasbasbag56
(g72
g58
NtRp4277
(dp4278
g61
(dp4279
sg70
g4248
sg63
(lp4280
g56
(g77
g58
NtRp4281
(dp4282
g61
(dp4283
sg70
g4277
sg63
(lp4284
g56
(g57
g58
NtRp4285
(dp4286
g61
(dp4287
g69
I3
ssg70
g4281
sg63
(lp4288
S'None'
p4289
asbasbasbag56
(g72
g58
NtRp4290
(dp4291
g61
(dp4292
sg70
g4248
sg63
(lp4293
g56
(g77
g58
NtRp4294
(dp4295
g61
(dp4296
sg70
g4290
sg63
(lp4297
g56
(g57
g58
NtRp4298
(dp4299
g61
(dp4300
g69
I3
ssg70
g4294
sg63
(lp4301
g56
(g65
g58
NtRp4302
(dp4303
g61
(dp4304
g69
I2
ssg70
Nsg63
(lp4305
g56
(g72
g58
NtRp4306
(dp4307
g61
(dp4308
sg70
g4302
sg63
(lp4309
g56
(g77
g58
NtRp4310
(dp4311
g61
(dp4312
sg70
g4306
sg63
(lp4313
g56
(g57
g58
NtRp4314
(dp4315
g61
(dp4316
g69
I2
ssg70
g4310
sg63
(lp4317
g56
(g65
g58
NtRp4318
(dp4319
g61
(dp4320
g69
I1
ssg70
Nsg63
(lp4321
g56
(g72
g58
NtRp4322
(dp4323
g61
(dp4324
sg70
g4318
sg63
(lp4325
g56
(g77
g58
NtRp4326
(dp4327
g61
(dp4328
sg70
g4322
sg63
(lp4329
g56
(g57
g58
NtRp4330
(dp4331
g61
(dp4332
g69
I1
ssg70
g4326
sg63
(lp4333
g3637
(S's\r\x00\x00\x00Documentation'
tRp4334
asbasbasbag56
(g72
g58
NtRp4335
(dp4336
g61
(dp4337
sg70
g4318
sg63
(lp4338
g56
(g77
g58
NtRp4339
(dp4340
g61
(dp4341
sg70
g4335
sg63
(lp4342
g56
(g57
g58
NtRp4343
(dp4344
g61
(dp4345
g69
I1
ssg70
g4339
sg63
(lp4346
I00
asbasbasbag56
(g72
g58
NtRp4347
(dp4348
g61
(dp4349
sg70
g4318
sg63
(lp4350
g56
(g77
g58
NtRp4351
(dp4352
g61
(dp4353
sg70
g4347
sg63
(lp4354
g56
(g57
g58
NtRp4355
(dp4356
g61
(dp4357
g69
I1
ssg70
g4351
sg63
(lp4358
S'http://www.web2py.com/book'
p4359
asbasbasbag56
(g72
g58
NtRp4360
(dp4361
g61
(dp4362
sg70
g4318
sg63
(lp4363
g56
(g77
g58
NtRp4364
(dp4365
g61
(dp4366
sg70
g4360
sg63
(lp4367
g56
(g57
g58
NtRp4368
(dp4369
g61
(dp4370
g69
I1
ssg70
g4364
sg63
(lp4371
(lp4372
(g3637
(S's\x07\x00\x00\x00Preface'
tRp4373
I00
S'http://www.web2py.com/book/default/chapter/00'
p4374
tp4375
a(g3637
(S's\x0c\x00\x00\x00Introduction'
tRp4376
I00
S'http://www.web2py.com/book/default/chapter/01'
p4377
tp4378
a(g3637
(S's\x06\x00\x00\x00Python'
tRp4379
I00
S'http://www.web2py.com/book/default/chapter/02'
p4380
tp4381
a(g3637
(S's\x08\x00\x00\x00Overview'
tRp4382
I00
S'http://www.web2py.com/book/default/chapter/03'
p4383
tp4384
a(g3637
(S's\x08\x00\x00\x00The Core'
tRp4385
I00
S'http://www.web2py.com/book/default/chapter/04'
p4386
tp4387
a(g3637
(S's\t\x00\x00\x00The Views'
tRp4388
I00
S'http://www.web2py.com/book/default/chapter/05'
p4389
tp4390
a(g3637
(S's\x08\x00\x00\x00Database'
tRp4391
I00
S'http://www.web2py.com/book/default/chapter/06'
p4392
tp4393
a(g3637
(S's\x14\x00\x00\x00Forms and Validators'
tRp4394
I00
S'http://www.web2py.com/book/default/chapter/07'
p4395
tp4396
a(g3637
(S's\x0e\x00\x00\x00Access Control'
tRp4397
I00
S'http://www.web2py.com/book/default/chapter/08'
p4398
tp4399
a(g3637
(S's\x08\x00\x00\x00Services'
tRp4400
I00
S'http://www.web2py.com/book/default/chapter/09'
p4401
tp4402
a(g3637
(S's\x0c\x00\x00\x00Ajax Recipes'
tRp4403
I00
S'http://www.web2py.com/book/default/chapter/10'
p4404
tp4405
a(g3637
(S's\x12\x00\x00\x00Deployment Recipes'
tRp4406
I00
S'http://www.web2py.com/book/default/chapter/11'
p4407
tp4408
a(g3637
(S's\r\x00\x00\x00Other Recipes'
tRp4409
I00
S'http://www.web2py.com/book/default/chapter/12'
p4410
tp4411
a(g3637
(S's\r\x00\x00\x00Buy this book'
tRp4412
I00
S'http://stores.lulu.com/web2py'
p4413
tp4414
aasbasbasbasbasbasbasbag56
(g72
g58
NtRp4415
(dp4416
g61
(dp4417
sg70
g4302
sg63
(lp4418
g56
(g77
g58
NtRp4419
(dp4420
g61
(dp4421
sg70
g4415
sg63
(lp4422
g56
(g57
g58
NtRp4423
(dp4424
g61
(dp4425
g69
I2
ssg70
g4419
sg63
(lp4426
g56
(g65
g58
NtRp4427
(dp4428
g61
(dp4429
g69
I1
ssg70
Nsg63
(lp4430
g56
(g72
g58
NtRp4431
(dp4432
g61
(dp4433
sg70
g4427
sg63
(lp4434
g56
(g77
g58
NtRp4435
(dp4436
g61
(dp4437
sg70
g4431
sg63
(lp4438
g56
(g57
g58
NtRp4439
(dp4440
g61
(dp4441
g69
I1
ssg70
g4435
sg63
(lp4442
g3637
(S's\t\x00\x00\x00Community'
tRp4443
asbasbasbag56
(g72
g58
NtRp4444
(dp4445
g61
(dp4446
sg70
g4427
sg63
(lp4447
g56
(g77
g58
NtRp4448
(dp4449
g61
(dp4450
sg70
g4444
sg63
(lp4451
g56
(g57
g58
NtRp4452
(dp4453
g61
(dp4454
g69
I1
ssg70
g4448
sg63
(lp4455
I00
asbasbasbag56
(g72
g58
NtRp4456
(dp4457
g61
(dp4458
sg70
g4427
sg63
(lp4459
g56
(g77
g58
NtRp4460
(dp4461
g61
(dp4462
sg70
g4456
sg63
(lp4463
g56
(g57
g58
NtRp4464
(dp4465
g61
(dp4466
g69
I1
ssg70
g4460
sg63
(lp4467
Nasbasbasbag56
(g72
g58
NtRp4468
(dp4469
g61
(dp4470
sg70
g4427
sg63
(lp4471
g56
(g77
g58
NtRp4472
(dp4473
g61
(dp4474
sg70
g4468
sg63
(lp4475
g56
(g57
g58
NtRp4476
(dp4477
g61
(dp4478
g69
I1
ssg70
g4472
sg63
(lp4479
(lp4480
(g3637
(S's\x06\x00\x00\x00Groups'
tRp4481
I00
S'http://www.web2py.com/examples/default/usergroups'
p4482
tp4483
a(g3637
(S's\x07\x00\x00\x00Twitter'
tRp4484
I00
S'http://twitter.com/web2py'
p4485
tp4486
a(g3637
(S's\t\x00\x00\x00Live chat'
tRp4487
I00
S'http://mibbit.com/?channel=%23web2py&server=irc.mibbit.net'
p4488
tp4489
a(g3637
(S's\n\x00\x00\x00User Voice'
tRp4490
I00
S'http://web2py.uservoice.com/'
p4491
tp4492
aasbasbasbasbasbasbasbag56
(g72
g58
NtRp4493
(dp4494
g61
(dp4495
sg70
g4302
sg63
(lp4496
g56
(g77
g58
NtRp4497
(dp4498
g61
(dp4499
sg70
g4493
sg63
(lp4500
g56
(g57
g58
NtRp4501
(dp4502
g61
(dp4503
g69
I2
ssg70
g4497
sg63
(lp4504
g56
(g65
g58
NtRp4505
(dp4506
g61
(dp4507
g69
I1
ssg70
Nsg63
(lp4508
g56
(g72
g58
NtRp4509
(dp4510
g61
(dp4511
sg70
g4505
sg63
(lp4512
g56
(g77
g58
NtRp4513
(dp4514
g61
(dp4515
sg70
g4509
sg63
(lp4516
g56
(g57
g58
NtRp4517
(dp4518
g61
(dp4519
g69
I1
ssg70
g4513
sg63
(lp4520
g3637
(S's\x06\x00\x00\x00Web2py'
tRp4521
asbasbasbag56
(g72
g58
NtRp4522
(dp4523
g61
(dp4524
sg70
g4505
sg63
(lp4525
g56
(g77
g58
NtRp4526
(dp4527
g61
(dp4528
sg70
g4522
sg63
(lp4529
g56
(g57
g58
NtRp4530
(dp4531
g61
(dp4532
g69
I1
ssg70
g4526
sg63
(lp4533
I00
asbasbasbag56
(g72
g58
NtRp4534
(dp4535
g61
(dp4536
sg70
g4505
sg63
(lp4537
g56
(g77
g58
NtRp4538
(dp4539
g61
(dp4540
sg70
g4534
sg63
(lp4541
g56
(g57
g58
NtRp4542
(dp4543
g61
(dp4544
g69
I1
ssg70
g4538
sg63
(lp4545
S'http://www.web2py.com'
p4546
asbasbasbag56
(g72
g58
NtRp4547
(dp4548
g61
(dp4549
sg70
g4505
sg63
(lp4550
g56
(g77
g58
NtRp4551
(dp4552
g61
(dp4553
sg70
g4547
sg63
(lp4554
g56
(g57
g58
NtRp4555
(dp4556
g61
(dp4557
g69
I1
ssg70
g4551
sg63
(lp4558
(lp4559
(g3637
(S's\x08\x00\x00\x00Download'
tRp4560
I00
S'http://www.web2py.com/examples/default/download'
p4561
tp4562
a(g3637
(S's\x07\x00\x00\x00Support'
tRp4563
I00
S'http://www.web2py.com/examples/default/support'
p4564
tp4565
a(g3637
(S's\x0e\x00\x00\x00Quick Examples'
tRp4566
I00
S'http://web2py.com/examples/default/examples'
p4567
tp4568
a(g3637
(S's\x03\x00\x00\x00FAQ'
tRp4569
I00
S'http://web2py.com/AlterEgo'
p4570
tp4571
a(g3637
(S's\x11\x00\x00\x00Free Applications'
tRp4572
I00
S'http://web2py.com/appliances'
p4573
tp4574
a(g3637
(S's\x07\x00\x00\x00Plugins'
tRp4575
I00
S'http://web2py.com/plugins'
p4576
tp4577
a(g3637
(S's\x07\x00\x00\x00Recipes'
tRp4578
I00
S'http://web2pyslices.com/'
p4579
tp4580
a(g3637
(S's\x04\x00\x00\x00Demo'
tRp4581
I00
S'http://web2py.com/demo_admin'
p4582
tp4583
a(g3637
(S's\x08\x00\x00\x00Semantic'
tRp4584
I00
S'http://web2py.com/semantic'
p4585
tp4586
a(g3637
(S's\x07\x00\x00\x00Layouts'
tRp4587
I00
S'http://web2py.com/layouts'
p4588
tp4589
a(g3637
(S's\x06\x00\x00\x00Videos'
tRp4590
I00
S'http://www.web2py.com/examples/default/videos/'
p4591
tp4592
aasbasbasbasbasbasbasbasbasbasbasbasbasbasbasbasbasbasbasbag56
(g72
g58
NtRp4593
(dp4594
g61
(dp4595
sg70
g3131
sg63
(lp4596
g56
(g77
g58
NtRp4597
(dp4598
g61
(dp4599
g81
g82
ssg70
g4593
sg63
(lp4600
S'meta'
p4601
asbag56
(g77
g58
NtRp4602
(dp4603
g61
(dp4604
g88
g89
ssg70
g4593
sg63
(lp4605
S':'
asbag56
(g77
g58
NtRp4606
(dp4607
g61
(dp4608
sg70
g4593
sg63
(lp4609
g56
(g57
g58
NtRp4610
(dp4611
g61
(dp4612
g69
I5
ssg70
g4606
sg63
(lp4613
g56
(g65
g58
NtRp4614
(dp4615
g61
(dp4616
g69
I4
ssg70
Nsg63
(lp4617
g56
(g72
g58
NtRp4618
(dp4619
g61
(dp4620
sg70
g4614
sg63
(lp4621
g56
(g77
g58
NtRp4622
(dp4623
g61
(dp4624
g81
g82
ssg70
g4618
sg63
(lp4625
S'author'
p4626
asbag56
(g77
g58
NtRp4627
(dp4628
g61
(dp4629
g88
g89
ssg70
g4618
sg63
(lp4630
S':'
asbag56
(g77
g58
NtRp4631
(dp4632
g61
(dp4633
sg70
g4618
sg63
(lp4634
g56
(g57
g58
NtRp4635
(dp4636
g61
(dp4637
g69
I4
ssg70
g4631
sg63
(lp4638
S'Your Name <you@example.com>'
p4639
asbasbasbag56
(g72
g58
NtRp4640
(dp4641
g61
(dp4642
sg70
g4614
sg63
(lp4643
g56
(g77
g58
NtRp4644
(dp4645
g61
(dp4646
g81
g82
ssg70
g4640
sg63
(lp4647
S'copyright'
p4648
asbag56
(g77
g58
NtRp4649
(dp4650
g61
(dp4651
g88
g89
ssg70
g4640
sg63
(lp4652
S':'
asbag56
(g77
g58
NtRp4653
(dp4654
g61
(dp4655
sg70
g4640
sg63
(lp4656
g56
(g57
g58
NtRp4657
(dp4658
g61
(dp4659
g69
I4
ssg70
g4653
sg63
(lp4660
S'Copyright 2011'
p4661
asbasbasbag56
(g72
g58
NtRp4662
(dp4663
g61
(dp4664
sg70
g4614
sg63
(lp4665
g56
(g77
g58
NtRp4666
(dp4667
g61
(dp4668
g81
g82
ssg70
g4662
sg63
(lp4669
S'description'
p4670
asbag56
(g77
g58
NtRp4671
(dp4672
g61
(dp4673
g88
g89
ssg70
g4662
sg63
(lp4674
S':'
asbag56
(g77
g58
NtRp4675
(dp4676
g61
(dp4677
sg70
g4662
sg63
(lp4678
g56
(g57
g58
NtRp4679
(dp4680
g61
(dp4681
g69
I4
ssg70
g4675
sg63
(lp4682
S'a cool new app'
p4683
asbasbasbag56
(g72
g58
NtRp4684
(dp4685
g61
(dp4686
sg70
g4614
sg63
(lp4687
g56
(g77
g58
NtRp4688
(dp4689
g61
(dp4690
g81
g82
ssg70
g4684
sg63
(lp4691
S'generator'
p4692
asbag56
(g77
g58
NtRp4693
(dp4694
g61
(dp4695
g88
g89
ssg70
g4684
sg63
(lp4696
S':'
asbag56
(g77
g58
NtRp4697
(dp4698
g61
(dp4699
sg70
g4684
sg63
(lp4700
g56
(g57
g58
NtRp4701
(dp4702
g61
(dp4703
g69
I4
ssg70
g4697
sg63
(lp4704
S'Web2py Web Framework'
p4705
asbasbasbag56
(g72
g58
NtRp4706
(dp4707
g61
(dp4708
sg70
g4614
sg63
(lp4709
g56
(g77
g58
NtRp4710
(dp4711
g61
(dp4712
g81
g82
ssg70
g4706
sg63
(lp4713
S'keywords'
p4714
asbag56
(g77
g58
NtRp4715
(dp4716
g61
(dp4717
g88
g89
ssg70
g4706
sg63
(lp4718
S':'
asbag56
(g77
g58
NtRp4719
(dp4720
g61
(dp4721
sg70
g4706
sg63
(lp4722
g56
(g57
g58
NtRp4723
(dp4724
g61
(dp4725
g69
I4
ssg70
g4719
sg63
(lp4726
S'web2py, python, framework'
p4727
asbasbasbasbasbasbasbag56
(g72
g58
NtRp4728
(dp4729
g61
(dp4730
sg70
g3131
sg63
(lp4731
g56
(g77
g58
NtRp4732
(dp4733
g61
(dp4734
g81
g82
ssg70
g4728
sg63
(lp4735
S'postprocessing'
p4736
asbag56
(g77
g58
NtRp4737
(dp4738
g61
(dp4739
g88
g89
ssg70
g4728
sg63
(lp4740
S':'
asbag56
(g77
g58
NtRp4741
(dp4742
g61
(dp4743
sg70
g4728
sg63
(lp4744
g56
(g57
g58
NtRp4745
(dp4746
g61
(dp4747
g69
I5
ssg70
g4741
sg63
(lp4748
g56
(g65
g58
NtRp4749
(dp4750
g61
(dp4751
g69
I4
ssg70
Nsg63
(lp4752
sbasbasbasbag56
(g72
g58
NtRp4753
(dp4754
g61
(dp4755
sg70
g3131
sg63
(lp4756
g56
(g77
g58
NtRp4757
(dp4758
g61
(dp4759
g81
g82
ssg70
g4753
sg63
(lp4760
S'session_file'
p4761
asbag56
(g77
g58
NtRp4762
(dp4763
g61
(dp4764
g88
g89
ssg70
g4753
sg63
(lp4765
S':'
asbag56
(g77
g58
NtRp4766
(dp4767
g61
(dp4768
sg70
g4753
sg63
(lp4769
g56
(g57
g58
NtRp4770
(dp4771
g61
(dp4772
g69
I5
ssg70
g4766
sg63
(lp4773
S"<open file '/Users/excon/Sites/dreamscape/applications/welcome/sessions/127.0.0.1-51cc951f-9f8f-44c6-96d8-bac94161d020', mode 'rb+' at 0x101ad3580>"
p4774
asbasbasbag56
(g72
g58
NtRp4775
(dp4776
g61
(dp4777
sg70
g3131
sg63
(lp4778
g56
(g77
g58
NtRp4779
(dp4780
g61
(dp4781
g81
g82
ssg70
g4775
sg63
(lp4782
S'session_filename'
p4783
asbag56
(g77
g58
NtRp4784
(dp4785
g61
(dp4786
g88
g89
ssg70
g4775
sg63
(lp4787
S':'
asbag56
(g77
g58
NtRp4788
(dp4789
g61
(dp4790
sg70
g4775
sg63
(lp4791
g56
(g57
g58
NtRp4792
(dp4793
g61
(dp4794
g69
I5
ssg70
g4788
sg63
(lp4795
S'/Users/excon/Sites/dreamscape/applications/welcome/sessions/127.0.0.1-51cc951f-9f8f-44c6-96d8-bac94161d020'
p4796
asbasbasbag56
(g72
g58
NtRp4797
(dp4798
g61
(dp4799
sg70
g3131
sg63
(lp4800
g56
(g77
g58
NtRp4801
(dp4802
g61
(dp4803
g81
g82
ssg70
g4797
sg63
(lp4804
S'session_id'
p4805
asbag56
(g77
g58
NtRp4806
(dp4807
g61
(dp4808
g88
g89
ssg70
g4797
sg63
(lp4809
S':'
asbag56
(g77
g58
NtRp4810
(dp4811
g61
(dp4812
sg70
g4797
sg63
(lp4813
g56
(g57
g58
NtRp4814
(dp4815
g61
(dp4816
g69
I5
ssg70
g4810
sg63
(lp4817
S'127.0.0.1-51cc951f-9f8f-44c6-96d8-bac94161d020'
p4818
asbasbasbag56
(g72
g58
NtRp4819
(dp4820
g61
(dp4821
sg70
g3131
sg63
(lp4822
g56
(g77
g58
NtRp4823
(dp4824
g61
(dp4825
g81
g82
ssg70
g4819
sg63
(lp4826
S'session_id_name'
p4827
asbag56
(g77
g58
NtRp4828
(dp4829
g61
(dp4830
g88
g89
ssg70
g4819
sg63
(lp4831
S':'
asbag56
(g77
g58
NtRp4832
(dp4833
g61
(dp4834
sg70
g4819
sg63
(lp4835
g56
(g57
g58
NtRp4836
(dp4837
g61
(dp4838
g69
I5
ssg70
g4832
sg63
(lp4839
g3188
asbasbasbag56
(g72
g58
NtRp4840
(dp4841
g61
(dp4842
sg70
g3131
sg63
(lp4843
g56
(g77
g58
NtRp4844
(dp4845
g61
(dp4846
g81
g82
ssg70
g4840
sg63
(lp4847
S'session_locked'
p4848
asbag56
(g77
g58
NtRp4849
(dp4850
g61
(dp4851
g88
g89
ssg70
g4840
sg63
(lp4852
S':'
asbag56
(g77
g58
NtRp4853
(dp4854
g61
(dp4855
sg70
g4840
sg63
(lp4856
g56
(g57
g58
NtRp4857
(dp4858
g61
(dp4859
g69
I5
ssg70
g4853
sg63
(lp4860
g1579
asbasbasbag56
(g72
g58
NtRp4861
(dp4862
g61
(dp4863
sg70
g3131
sg63
(lp4864
g56
(g77
g58
NtRp4865
(dp4866
g61
(dp4867
g81
g82
ssg70
g4861
sg63
(lp4868
S'session_new'
p4869
asbag56
(g77
g58
NtRp4870
(dp4871
g61
(dp4872
g88
g89
ssg70
g4861
sg63
(lp4873
S':'
asbag56
(g77
g58
NtRp4874
(dp4875
g61
(dp4876
sg70
g4861
sg63
(lp4877
g56
(g57
g58
NtRp4878
(dp4879
g61
(dp4880
g69
I5
ssg70
g4874
sg63
(lp4881
g99
asbasbasbag56
(g72
g58
NtRp4882
(dp4883
g61
(dp4884
sg70
g3131
sg63
(lp4885
g56
(g77
g58
NtRp4886
(dp4887
g61
(dp4888
g81
g82
ssg70
g4882
sg63
(lp4889
S'status'
p4890
asbag56
(g77
g58
NtRp4891
(dp4892
g61
(dp4893
g88
g89
ssg70
g4882
sg63
(lp4894
S':'
asbag56
(g77
g58
NtRp4895
(dp4896
g61
(dp4897
sg70
g4882
sg63
(lp4898
g56
(g57
g58
NtRp4899
(dp4900
g61
(dp4901
g69
I5
ssg70
g4895
sg63
(lp4902
S'200'
p4903
asbasbasbag56
(g72
g58
NtRp4904
(dp4905
g61
(dp4906
sg70
g3131
sg63
(lp4907
g56
(g77
g58
NtRp4908
(dp4909
g61
(dp4910
g81
g82
ssg70
g4904
sg63
(lp4911
S'subtitle'
p4912
asbag56
(g77
g58
NtRp4913
(dp4914
g61
(dp4915
g88
g89
ssg70
g4904
sg63
(lp4916
S':'
asbag56
(g77
g58
NtRp4917
(dp4918
g61
(dp4919
sg70
g4904
sg63
(lp4920
g56
(g57
g58
NtRp4921
(dp4922
g61
(dp4923
g69
I5
ssg70
g4917
sg63
(lp4924
g3637
(S's\r\x00\x00\x00customize me!'
tRp4925
asbasbasbag56
(g72
g58
NtRp4926
(dp4927
g61
(dp4928
sg70
g3131
sg63
(lp4929
g56
(g77
g58
NtRp4930
(dp4931
g61
(dp4932
g81
g82
ssg70
g4926
sg63
(lp4933
S'title'
p4934
asbag56
(g77
g58
NtRp4935
(dp4936
g61
(dp4937
g88
g89
ssg70
g4926
sg63
(lp4938
S':'
asbag56
(g77
g58
NtRp4939
(dp4940
g61
(dp4941
sg70
g4926
sg63
(lp4942
g56
(g57
g58
NtRp4943
(dp4944
g61
(dp4945
g69
I5
ssg70
g4939
sg63
(lp4946
g121
asbasbasbag56
(g72
g58
NtRp4947
(dp4948
g61
(dp4949
sg70
g3131
sg63
(lp4950
g56
(g77
g58
NtRp4951
(dp4952
g61
(dp4953
g81
g82
ssg70
g4947
sg63
(lp4954
g2245
asbag56
(g77
g58
NtRp4955
(dp4956
g61
(dp4957
g88
g89
ssg70
g4947
sg63
(lp4958
S':'
asbag56
(g77
g58
NtRp4959
(dp4960
g61
(dp4961
sg70
g4947
sg63
(lp4962
g56
(g57
g58
NtRp4963
(dp4964
g61
(dp4965
g69
I5
ssg70
g4959
sg63
(lp4966
g2258
asbasbasbag56
(g72
g58
NtRp4967
(dp4968
g61
(dp4969
sg70
g3131
sg63
(lp4970
g56
(g77
g58
NtRp4971
(dp4972
g61
(dp4973
g81
g82
ssg70
g4967
sg63
(lp4974
S'view'
p4975
asbag56
(g77
g58
NtRp4976
(dp4977
g61
(dp4978
g88
g89
ssg70
g4967
sg63
(lp4979
S':'
asbag56
(g77
g58
NtRp4980
(dp4981
g61
(dp4982
sg70
g4967
sg63
(lp4983
g56
(g57
g58
NtRp4984
(dp4985
g61
(dp4986
g69
I5
ssg70
g4980
sg63
(lp4987
S'default/coming_soon.html'
p4988
asbasbasbasbasbsS'locals'
p4989
(dp4990
S'form'
p4991
S'<gluon.sqlhtml.SQLFORM object at 0x101634790>'
p4992
sssS'traceback'
p4993
S'Traceback (most recent call last):\n  File "/Users/excon/Sites/dreamscape/gluon/restricted.py", line 194, in restricted\n    exec ccode in environment\n  File "/Users/excon/Sites/dreamscape/applications/welcome/controllers/default.py", line 96, in <module>\n  File "/Users/excon/Sites/dreamscape/gluon/globals.py", line 149, in <lambda>\n    self._caller = lambda f: f()\n  File "/Users/excon/Sites/dreamscape/applications/welcome/controllers/default.py", line 34, in coming_soon\n    return dict(form=form, invitations=emails)\nNameError: global name \'emails\' is not defined\n'
p4994
s.