(dp1
S'output'
p2
S''
sS'layer'
p3
S'/Users/excon/Sites/dreamscape/applications/welcome/controllers/default.py'
p4
sS'code'
p5
S'# -*- coding: utf-8 -*-\n# this file is released under public domain and you can use without limitations\n\n#########################################################################\n## This is a samples controller\n## - index is the default action of any application\n## - user is required for authentication and authorization\n## - download is for downloading files uploaded in the db (does streaming)\n## - call exposes all registered services (none by default)\n#########################################################################\n\nCOMING_SOON = True\n\ndef index():\n    """\n    example action using the internationalization operator T and flash\n    rendered by views/default/index.html or views/generic.html\n    """\n    if COMING_SOON:\n        redirect(URL(r=request, f=\'coming_soon\'))\n    return dict()\n    \ndef coming_soon():\n    form = SQLFORM.factory(db.invitation, submit_button=\'DREAM\')\n    emails = db(db.invitation==\'test@test.com\').select()\n            \n    if form.process().accepted:\n        db.invitation.insert(email=form.vars.email)\n        response.flash = "You have wonderful dreams! " + form.vars.email\n    elif form.errors:\n        response.flash = \'Invalid Email\'\n    else:\n        response.flash = \'Type your email\'\n        \n    return dict(form=form, emails=emails)\n\ndef user():\n    """\n    exposes:\n    http://..../[app]/default/user/login\n    http://..../[app]/default/user/logout\n    http://..../[app]/default/user/register\n    http://..../[app]/default/user/profile\n    http://..../[app]/default/user/retrieve_password\n    http://..../[app]/default/user/change_password\n    use @auth.requires_login()\n        @auth.requires_membership(\'group name\')\n        @auth.requires_permission(\'read\',\'table name\',record_id)\n    to decorate functions that need access control\n    """\n    if COMING_SOON:\n        redirect(URL(r=request, f=\'coming_soon\'))\n    return dict(form=auth())\n\n\ndef download():\n    """\n    allows downloading of uploaded files\n    http://..../[app]/default/download/[filename]\n    """\n    if COMING_SOON:\n        redirect(URL(r=request, f=\'coming_soon\'))\n    return response.download(request,db)\n\n\ndef call():\n    """\n    exposes services. for example:\n    http://..../[app]/default/call/jsonrpc\n    decorate with @services.jsonrpc the functions to expose\n    supports xml, json, xmlrpc, jsonrpc, amfrpc, rss, csv\n    """\n    if COMING_SOON:\n        redirect(URL(r=request, f=\'coming_soon\'))\n    return service()\n\n\n@auth.requires_signature()\ndef data():\n    """\n    http://..../[app]/default/data/tables\n    http://..../[app]/default/data/create/[table]\n    http://..../[app]/default/data/read/[table]/[id]\n    http://..../[app]/default/data/update/[table]/[id]\n    http://..../[app]/default/data/delete/[table]/[id]\n    http://..../[app]/default/data/select/[table]\n    http://..../[app]/default/data/search/[table]\n    but URLs bust be signed, i.e. linked with\n      A(\'table\',_href=URL(\'data/tables\',user_signature=True))\n    or with the signed load operator\n      LOAD(\'default\',\'data.load\',args=\'tables\',ajax=True,user_signature=True)\n    """\n    if COMING_SOON:\n        redirect(URL(r=request, f=\'coming_soon\'))\n    return dict(form=crud())\n\nresponse._vars=response._caller(coming_soon)\n'
p6
sS'snapshot'
p7
(dp8
sS'traceback'
p9
S'Traceback (most recent call last):\n  File "/Users/excon/Sites/dreamscape/gluon/restricted.py", line 194, in restricted\n    exec ccode in environment\n  File "/Users/excon/Sites/dreamscape/applications/welcome/controllers/default.py", line 97, in <module>\n  File "/Users/excon/Sites/dreamscape/gluon/globals.py", line 149, in <lambda>\n    self._caller = lambda f: f()\n  File "/Users/excon/Sites/dreamscape/applications/welcome/controllers/default.py", line 25, in coming_soon\n    emails = db(db.invitation==\'test@test.com\').select()\n  File "/Users/excon/Sites/dreamscape/gluon/dal.py", line 5697, in select\n    return self.db._adapter.select(self.query,fields,attributes)\n  File "/Users/excon/Sites/dreamscape/gluon/dal.py", line 1225, in select\n    sql = self._select(query,fields,attributes)\n  File "/Users/excon/Sites/dreamscape/gluon/dal.py", line 1128, in _select\n    raise SyntaxError, \'Set: no tables selected\'\nSyntaxError: Set: no tables selected\n'
p10
s.