(dp1
S'output'
p2
S''
sS'layer'
p3
S'/Users/excon/Sites/dreamscape/applications/welcome/controllers/default.py'
p4
sS'code'
p5
S'# -*- coding: utf-8 -*-\n# this file is released under public domain and you can use without limitations\n\n#########################################################################\n## This is a samples controller\n## - index is the default action of any application\n## - user is required for authentication and authorization\n## - download is for downloading files uploaded in the db (does streaming)\n## - call exposes all registered services (none by default)\n#########################################################################\n\nCOMING_SOON = True\n\ndef index():\n    """\n    example action using the internationalization operator T and flash\n    rendered by views/default/index.html or views/generic.html\n    """\n    if COMING_SOON:\n        redirect(URL(r=request, f=\'coming_soon\'))\n    return dict()\n    \ndef coming_soon():\n    ddb.invitation.writeable = False\n    form = SQLFORM.factory(db.invitation)\n            \n    if form.process().accepted:\n        response.flash = \'You have wonderful dreams!\'\n    elif form.errors:\n        response.flash = \'Invalid Email\'\n    else:\n        response.flash = \'Type your email\'\n        \n    return dict(form=form)\n\ndef user():\n    """\n    exposes:\n    http://..../[app]/default/user/login\n    http://..../[app]/default/user/logout\n    http://..../[app]/default/user/register\n    http://..../[app]/default/user/profile\n    http://..../[app]/default/user/retrieve_password\n    http://..../[app]/default/user/change_password\n    use @auth.requires_login()\n        @auth.requires_membership(\'group name\')\n        @auth.requires_permission(\'read\',\'table name\',record_id)\n    to decorate functions that need access control\n    """\n    return dict(form=auth())\n\n\ndef download():\n    """\n    allows downloading of uploaded files\n    http://..../[app]/default/download/[filename]\n    """\n    return response.download(request,db)\n\n\ndef call():\n    """\n    exposes services. for example:\n    http://..../[app]/default/call/jsonrpc\n    decorate with @services.jsonrpc the functions to expose\n    supports xml, json, xmlrpc, jsonrpc, amfrpc, rss, csv\n    """\n    return service()\n\n\n@auth.requires_signature()\ndef data():\n    """\n    http://..../[app]/default/data/tables\n    http://..../[app]/default/data/create/[table]\n    http://..../[app]/default/data/read/[table]/[id]\n    http://..../[app]/default/data/update/[table]/[id]\n    http://..../[app]/default/data/delete/[table]/[id]\n    http://..../[app]/default/data/select/[table]\n    http://..../[app]/default/data/search/[table]\n    but URLs bust be signed, i.e. linked with\n      A(\'table\',_href=URL(\'data/tables\',user_signature=True))\n    or with the signed load operator\n      LOAD(\'default\',\'data.load\',args=\'tables\',ajax=True,user_signature=True)\n    """\n    return dict(form=crud())\n\nresponse._vars=response._caller(coming_soon)\n'
p6
sS'snapshot'
p7
(dp8
S'exception'
p9
(dp10
S'__hash__'
p11
S"<method-wrapper '__hash__' of exceptions.NameError object at 0x116b92c20>"
p12
sS'__setattr__'
p13
S"<method-wrapper '__setattr__' of exceptions.NameError object at 0x116b92c20>"
p14
sS'__reduce_ex__'
p15
S'<built-in method __reduce_ex__ of exceptions.NameError object at 0x116b92c20>'
p16
sS'__getslice__'
p17
S"<method-wrapper '__getslice__' of exceptions.NameError object at 0x116b92c20>"
p18
sS'__getitem__'
p19
S"<method-wrapper '__getitem__' of exceptions.NameError object at 0x116b92c20>"
p20
sS'__setstate__'
p21
S'<built-in method __setstate__ of exceptions.NameError object at 0x116b92c20>'
p22
sS'args'
p23
S'("global name \'ddb\' is not defined",)'
p24
sS'__reduce__'
p25
S'<built-in method __reduce__ of exceptions.NameError object at 0x116b92c20>'
p26
sS'__str__'
p27
S"<method-wrapper '__str__' of exceptions.NameError object at 0x116b92c20>"
p28
sS'__format__'
p29
S'<built-in method __format__ of exceptions.NameError object at 0x116b92c20>'
p30
sS'__getattribute__'
p31
S"<method-wrapper '__getattribute__' of exceptions.NameError object at 0x116b92c20>"
p32
sS'__class__'
p33
S"<type 'exceptions.NameError'>"
p34
sS'__unicode__'
p35
S'<built-in method __unicode__ of exceptions.NameError object at 0x116b92c20>'
p36
sS'__delattr__'
p37
S"<method-wrapper '__delattr__' of exceptions.NameError object at 0x116b92c20>"
p38
sS'__subclasshook__'
p39
S'<built-in method __subclasshook__ of type object at 0x10011b640>'
p40
sS'__repr__'
p41
S"<method-wrapper '__repr__' of exceptions.NameError object at 0x116b92c20>"
p42
sS'__dict__'
p43
S'{}'
p44
sS'__sizeof__'
p45
S'<built-in method __sizeof__ of exceptions.NameError object at 0x116b92c20>'
p46
sS'__doc__'
p47
S"'Name not found globally.'"
p48
sS'__init__'
p49
S"<method-wrapper '__init__' of exceptions.NameError object at 0x116b92c20>"
p50
sS'__new__'
p51
S'<built-in method __new__ of type object at 0x10011b640>'
p52
ssS'evalue'
p53
S"global name 'ddb' is not defined"
p54
sS'request'
p55
ccopy_reg
_reconstructor
p56
(cgluon.html
BEAUTIFY
p57
c__builtin__
object
p58
NtRp59
(dp60
S'attributes'
p61
(dp62
sS'components'
p63
(lp64
g56
(cgluon.html
TABLE
p65
g58
NtRp66
(dp67
g61
(dp68
S'level'
p69
I5
ssS'parent'
p70
Nsg63
(lp71
g56
(cgluon.html
TR
p72
g58
NtRp73
(dp74
g61
(dp75
sg70
g66
sg63
(lp76
g56
(cgluon.html
TD
p77
g58
NtRp78
(dp79
g61
(dp80
S'_style'
p81
S'font-weight:bold;'
p82
ssg70
g73
sg63
(lp83
S'ajax'
p84
asbag56
(g77
g58
NtRp85
(dp86
g61
(dp87
S'_valign'
p88
S'top'
p89
ssg70
g73
sg63
(lp90
S':'
asbag56
(g77
g58
NtRp91
(dp92
g61
(dp93
sg70
g73
sg63
(lp94
g56
(g57
g58
NtRp95
(dp96
g61
(dp97
g69
I5
ssg70
g91
sg63
(lp98
S'False'
p99
asbasbasbag56
(g72
g58
NtRp100
(dp101
g61
(dp102
sg70
g66
sg63
(lp103
g56
(g77
g58
NtRp104
(dp105
g61
(dp106
g81
g82
ssg70
g100
sg63
(lp107
S'application'
p108
asbag56
(g77
g58
NtRp109
(dp110
g61
(dp111
g88
g89
ssg70
g100
sg63
(lp112
S':'
asbag56
(g77
g58
NtRp113
(dp114
g61
(dp115
sg70
g100
sg63
(lp116
g56
(g57
g58
NtRp117
(dp118
g61
(dp119
g69
I5
ssg70
g113
sg63
(lp120
S'welcome'
p121
asbasbasbag56
(g72
g58
NtRp122
(dp123
g61
(dp124
sg70
g66
sg63
(lp125
g56
(g77
g58
NtRp126
(dp127
g61
(dp128
g81
g82
ssg70
g122
sg63
(lp129
g23
asbag56
(g77
g58
NtRp130
(dp131
g61
(dp132
g88
g89
ssg70
g122
sg63
(lp133
S':'
asbag56
(g77
g58
NtRp134
(dp135
g61
(dp136
sg70
g122
sg63
(lp137
g56
(g57
g58
NtRp138
(dp139
g61
(dp140
g69
I5
ssg70
g134
sg63
(lp141
g56
(g65
g58
NtRp142
(dp143
g61
(dp144
g69
I4
ssg70
Nsg63
(lp145
sbasbasbasbag56
(g72
g58
NtRp146
(dp147
g61
(dp148
sg70
g66
sg63
(lp149
g56
(g77
g58
NtRp150
(dp151
g61
(dp152
g81
g82
ssg70
g146
sg63
(lp153
S'body'
p154
asbag56
(g77
g58
NtRp155
(dp156
g61
(dp157
g88
g89
ssg70
g146
sg63
(lp158
S':'
asbag56
(g77
g58
NtRp159
(dp160
g61
(dp161
sg70
g146
sg63
(lp162
g56
(g57
g58
NtRp163
(dp164
g61
(dp165
g69
I5
ssg70
g159
sg63
(lp166
S'<cStringIO.StringO object at 0x112dce4c8>'
p167
asbasbasbag56
(g72
g58
NtRp168
(dp169
g61
(dp170
sg70
g66
sg63
(lp171
g56
(g77
g58
NtRp172
(dp173
g61
(dp174
g81
g82
ssg70
g168
sg63
(lp175
S'client'
p176
asbag56
(g77
g58
NtRp177
(dp178
g61
(dp179
g88
g89
ssg70
g168
sg63
(lp180
S':'
asbag56
(g77
g58
NtRp181
(dp182
g61
(dp183
sg70
g168
sg63
(lp184
g56
(g57
g58
NtRp185
(dp186
g61
(dp187
g69
I5
ssg70
g181
sg63
(lp188
S'127.0.0.1'
p189
asbasbasbag56
(g72
g58
NtRp190
(dp191
g61
(dp192
sg70
g66
sg63
(lp193
g56
(g77
g58
NtRp194
(dp195
g61
(dp196
g81
g82
ssg70
g190
sg63
(lp197
S'controller'
p198
asbag56
(g77
g58
NtRp199
(dp200
g61
(dp201
g88
g89
ssg70
g190
sg63
(lp202
S':'
asbag56
(g77
g58
NtRp203
(dp204
g61
(dp205
sg70
g190
sg63
(lp206
g56
(g57
g58
NtRp207
(dp208
g61
(dp209
g69
I5
ssg70
g203
sg63
(lp210
S'default'
p211
asbasbasbag56
(g72
g58
NtRp212
(dp213
g61
(dp214
sg70
g66
sg63
(lp215
g56
(g77
g58
NtRp216
(dp217
g61
(dp218
g81
g82
ssg70
g212
sg63
(lp219
S'cookies'
p220
asbag56
(g77
g58
NtRp221
(dp222
g61
(dp223
g88
g89
ssg70
g212
sg63
(lp224
S':'
asbag56
(g77
g58
NtRp225
(dp226
g61
(dp227
sg70
g212
sg63
(lp228
g56
(g57
g58
NtRp229
(dp230
g61
(dp231
g69
I5
ssg70
g225
sg63
(lp232
g56
(g65
g58
NtRp233
(dp234
g61
(dp235
g69
I4
ssg70
Nsg63
(lp236
g56
(g72
g58
NtRp237
(dp238
g61
(dp239
sg70
g233
sg63
(lp240
g56
(g77
g58
NtRp241
(dp242
g61
(dp243
g81
g82
ssg70
g237
sg63
(lp244
S'session_id_admin'
p245
asbag56
(g77
g58
NtRp246
(dp247
g61
(dp248
g88
g89
ssg70
g237
sg63
(lp249
S':'
asbag56
(g77
g58
NtRp250
(dp251
g61
(dp252
sg70
g237
sg63
(lp253
g56
(g57
g58
NtRp254
(dp255
g61
(dp256
g69
I4
ssg70
g250
sg63
(lp257
g56
(g65
g58
NtRp258
(dp259
g61
(dp260
g69
I3
ssg70
Nsg63
(lp261
g56
(g72
g58
NtRp262
(dp263
g61
(dp264
sg70
g258
sg63
(lp265
g56
(g77
g58
NtRp266
(dp267
g61
(dp268
g81
g82
ssg70
g262
sg63
(lp269
S'comment'
p270
asbag56
(g77
g58
NtRp271
(dp272
g61
(dp273
g88
g89
ssg70
g262
sg63
(lp274
S':'
asbag56
(g77
g58
NtRp275
(dp276
g61
(dp277
sg70
g262
sg63
(lp278
g56
(g57
g58
NtRp279
(dp280
g61
(dp281
g69
I3
ssg70
g275
sg63
(lp282
S''
asbasbasbag56
(g72
g58
NtRp283
(dp284
g61
(dp285
sg70
g258
sg63
(lp286
g56
(g77
g58
NtRp287
(dp288
g61
(dp289
g81
g82
ssg70
g283
sg63
(lp290
S'domain'
p291
asbag56
(g77
g58
NtRp292
(dp293
g61
(dp294
g88
g89
ssg70
g283
sg63
(lp295
S':'
asbag56
(g77
g58
NtRp296
(dp297
g61
(dp298
sg70
g283
sg63
(lp299
g56
(g57
g58
NtRp300
(dp301
g61
(dp302
g69
I3
ssg70
g296
sg63
(lp303
S''
asbasbasbag56
(g72
g58
NtRp304
(dp305
g61
(dp306
sg70
g258
sg63
(lp307
g56
(g77
g58
NtRp308
(dp309
g61
(dp310
g81
g82
ssg70
g304
sg63
(lp311
S'expires'
p312
asbag56
(g77
g58
NtRp313
(dp314
g61
(dp315
g88
g89
ssg70
g304
sg63
(lp316
S':'
asbag56
(g77
g58
NtRp317
(dp318
g61
(dp319
sg70
g304
sg63
(lp320
g56
(g57
g58
NtRp321
(dp322
g61
(dp323
g69
I3
ssg70
g317
sg63
(lp324
S''
asbasbasbag56
(g72
g58
NtRp325
(dp326
g61
(dp327
sg70
g258
sg63
(lp328
g56
(g77
g58
NtRp329
(dp330
g61
(dp331
g81
g82
ssg70
g325
sg63
(lp332
S'httponly'
p333
asbag56
(g77
g58
NtRp334
(dp335
g61
(dp336
g88
g89
ssg70
g325
sg63
(lp337
S':'
asbag56
(g77
g58
NtRp338
(dp339
g61
(dp340
sg70
g325
sg63
(lp341
g56
(g57
g58
NtRp342
(dp343
g61
(dp344
g69
I3
ssg70
g338
sg63
(lp345
S''
asbasbasbag56
(g72
g58
NtRp346
(dp347
g61
(dp348
sg70
g258
sg63
(lp349
g56
(g77
g58
NtRp350
(dp351
g61
(dp352
g81
g82
ssg70
g346
sg63
(lp353
S'max-age'
p354
asbag56
(g77
g58
NtRp355
(dp356
g61
(dp357
g88
g89
ssg70
g346
sg63
(lp358
S':'
asbag56
(g77
g58
NtRp359
(dp360
g61
(dp361
sg70
g346
sg63
(lp362
g56
(g57
g58
NtRp363
(dp364
g61
(dp365
g69
I3
ssg70
g359
sg63
(lp366
S''
asbasbasbag56
(g72
g58
NtRp367
(dp368
g61
(dp369
sg70
g258
sg63
(lp370
g56
(g77
g58
NtRp371
(dp372
g61
(dp373
g81
g82
ssg70
g367
sg63
(lp374
S'path'
p375
asbag56
(g77
g58
NtRp376
(dp377
g61
(dp378
g88
g89
ssg70
g367
sg63
(lp379
S':'
asbag56
(g77
g58
NtRp380
(dp381
g61
(dp382
sg70
g367
sg63
(lp383
g56
(g57
g58
NtRp384
(dp385
g61
(dp386
g69
I3
ssg70
g380
sg63
(lp387
S''
asbasbasbag56
(g72
g58
NtRp388
(dp389
g61
(dp390
sg70
g258
sg63
(lp391
g56
(g77
g58
NtRp392
(dp393
g61
(dp394
g81
g82
ssg70
g388
sg63
(lp395
S'secure'
p396
asbag56
(g77
g58
NtRp397
(dp398
g61
(dp399
g88
g89
ssg70
g388
sg63
(lp400
S':'
asbag56
(g77
g58
NtRp401
(dp402
g61
(dp403
sg70
g388
sg63
(lp404
g56
(g57
g58
NtRp405
(dp406
g61
(dp407
g69
I3
ssg70
g401
sg63
(lp408
S''
asbasbasbag56
(g72
g58
NtRp409
(dp410
g61
(dp411
sg70
g258
sg63
(lp412
g56
(g77
g58
NtRp413
(dp414
g61
(dp415
g81
g82
ssg70
g409
sg63
(lp416
S'version'
p417
asbag56
(g77
g58
NtRp418
(dp419
g61
(dp420
g88
g89
ssg70
g409
sg63
(lp421
S':'
asbag56
(g77
g58
NtRp422
(dp423
g61
(dp424
sg70
g409
sg63
(lp425
g56
(g57
g58
NtRp426
(dp427
g61
(dp428
g69
I3
ssg70
g422
sg63
(lp429
S''
asbasbasbasbasbasbasbag56
(g72
g58
NtRp430
(dp431
g61
(dp432
sg70
g233
sg63
(lp433
g56
(g77
g58
NtRp434
(dp435
g61
(dp436
g81
g82
ssg70
g430
sg63
(lp437
S'session_id_welcome'
p438
asbag56
(g77
g58
NtRp439
(dp440
g61
(dp441
g88
g89
ssg70
g430
sg63
(lp442
S':'
asbag56
(g77
g58
NtRp443
(dp444
g61
(dp445
sg70
g430
sg63
(lp446
g56
(g57
g58
NtRp447
(dp448
g61
(dp449
g69
I4
ssg70
g443
sg63
(lp450
g56
(g65
g58
NtRp451
(dp452
g61
(dp453
g69
I3
ssg70
Nsg63
(lp454
g56
(g72
g58
NtRp455
(dp456
g61
(dp457
sg70
g451
sg63
(lp458
g56
(g77
g58
NtRp459
(dp460
g61
(dp461
g81
g82
ssg70
g455
sg63
(lp462
g270
asbag56
(g77
g58
NtRp463
(dp464
g61
(dp465
g88
g89
ssg70
g455
sg63
(lp466
S':'
asbag56
(g77
g58
NtRp467
(dp468
g61
(dp469
sg70
g455
sg63
(lp470
g56
(g57
g58
NtRp471
(dp472
g61
(dp473
g69
I3
ssg70
g467
sg63
(lp474
S''
asbasbasbag56
(g72
g58
NtRp475
(dp476
g61
(dp477
sg70
g451
sg63
(lp478
g56
(g77
g58
NtRp479
(dp480
g61
(dp481
g81
g82
ssg70
g475
sg63
(lp482
g291
asbag56
(g77
g58
NtRp483
(dp484
g61
(dp485
g88
g89
ssg70
g475
sg63
(lp486
S':'
asbag56
(g77
g58
NtRp487
(dp488
g61
(dp489
sg70
g475
sg63
(lp490
g56
(g57
g58
NtRp491
(dp492
g61
(dp493
g69
I3
ssg70
g487
sg63
(lp494
S''
asbasbasbag56
(g72
g58
NtRp495
(dp496
g61
(dp497
sg70
g451
sg63
(lp498
g56
(g77
g58
NtRp499
(dp500
g61
(dp501
g81
g82
ssg70
g495
sg63
(lp502
g312
asbag56
(g77
g58
NtRp503
(dp504
g61
(dp505
g88
g89
ssg70
g495
sg63
(lp506
S':'
asbag56
(g77
g58
NtRp507
(dp508
g61
(dp509
sg70
g495
sg63
(lp510
g56
(g57
g58
NtRp511
(dp512
g61
(dp513
g69
I3
ssg70
g507
sg63
(lp514
S''
asbasbasbag56
(g72
g58
NtRp515
(dp516
g61
(dp517
sg70
g451
sg63
(lp518
g56
(g77
g58
NtRp519
(dp520
g61
(dp521
g81
g82
ssg70
g515
sg63
(lp522
g333
asbag56
(g77
g58
NtRp523
(dp524
g61
(dp525
g88
g89
ssg70
g515
sg63
(lp526
S':'
asbag56
(g77
g58
NtRp527
(dp528
g61
(dp529
sg70
g515
sg63
(lp530
g56
(g57
g58
NtRp531
(dp532
g61
(dp533
g69
I3
ssg70
g527
sg63
(lp534
S''
asbasbasbag56
(g72
g58
NtRp535
(dp536
g61
(dp537
sg70
g451
sg63
(lp538
g56
(g77
g58
NtRp539
(dp540
g61
(dp541
g81
g82
ssg70
g535
sg63
(lp542
g354
asbag56
(g77
g58
NtRp543
(dp544
g61
(dp545
g88
g89
ssg70
g535
sg63
(lp546
S':'
asbag56
(g77
g58
NtRp547
(dp548
g61
(dp549
sg70
g535
sg63
(lp550
g56
(g57
g58
NtRp551
(dp552
g61
(dp553
g69
I3
ssg70
g547
sg63
(lp554
S''
asbasbasbag56
(g72
g58
NtRp555
(dp556
g61
(dp557
sg70
g451
sg63
(lp558
g56
(g77
g58
NtRp559
(dp560
g61
(dp561
g81
g82
ssg70
g555
sg63
(lp562
g375
asbag56
(g77
g58
NtRp563
(dp564
g61
(dp565
g88
g89
ssg70
g555
sg63
(lp566
S':'
asbag56
(g77
g58
NtRp567
(dp568
g61
(dp569
sg70
g555
sg63
(lp570
g56
(g57
g58
NtRp571
(dp572
g61
(dp573
g69
I3
ssg70
g567
sg63
(lp574
S''
asbasbasbag56
(g72
g58
NtRp575
(dp576
g61
(dp577
sg70
g451
sg63
(lp578
g56
(g77
g58
NtRp579
(dp580
g61
(dp581
g81
g82
ssg70
g575
sg63
(lp582
g396
asbag56
(g77
g58
NtRp583
(dp584
g61
(dp585
g88
g89
ssg70
g575
sg63
(lp586
S':'
asbag56
(g77
g58
NtRp587
(dp588
g61
(dp589
sg70
g575
sg63
(lp590
g56
(g57
g58
NtRp591
(dp592
g61
(dp593
g69
I3
ssg70
g587
sg63
(lp594
S''
asbasbasbag56
(g72
g58
NtRp595
(dp596
g61
(dp597
sg70
g451
sg63
(lp598
g56
(g77
g58
NtRp599
(dp600
g61
(dp601
g81
g82
ssg70
g595
sg63
(lp602
g417
asbag56
(g77
g58
NtRp603
(dp604
g61
(dp605
g88
g89
ssg70
g595
sg63
(lp606
S':'
asbag56
(g77
g58
NtRp607
(dp608
g61
(dp609
sg70
g595
sg63
(lp610
g56
(g57
g58
NtRp611
(dp612
g61
(dp613
g69
I3
ssg70
g607
sg63
(lp614
S''
asbasbasbasbasbasbasbasbasbasbasbag56
(g72
g58
NtRp615
(dp616
g61
(dp617
sg70
g66
sg63
(lp618
g56
(g77
g58
NtRp619
(dp620
g61
(dp621
g81
g82
ssg70
g615
sg63
(lp622
S'env'
p623
asbag56
(g77
g58
NtRp624
(dp625
g61
(dp626
g88
g89
ssg70
g615
sg63
(lp627
S':'
asbag56
(g77
g58
NtRp628
(dp629
g61
(dp630
sg70
g615
sg63
(lp631
g56
(g57
g58
NtRp632
(dp633
g61
(dp634
g69
I5
ssg70
g628
sg63
(lp635
g56
(g65
g58
NtRp636
(dp637
g61
(dp638
g69
I4
ssg70
Nsg63
(lp639
g56
(g72
g58
NtRp640
(dp641
g61
(dp642
sg70
g636
sg63
(lp643
g56
(g77
g58
NtRp644
(dp645
g61
(dp646
g81
g82
ssg70
g640
sg63
(lp647
S'app_folders'
p648
asbag56
(g77
g58
NtRp649
(dp650
g61
(dp651
g88
g89
ssg70
g640
sg63
(lp652
S':'
asbag56
(g77
g58
NtRp653
(dp654
g61
(dp655
sg70
g640
sg63
(lp656
g56
(g57
g58
NtRp657
(dp658
g61
(dp659
g69
I4
ssg70
g653
sg63
(lp660
S"set(['/Users/excon/Sites/dreamscape/applications/welcome/', '/Users/excon/Sites/dreamscape/applications/admin/'])"
p661
asbasbasbag56
(g72
g58
NtRp662
(dp663
g61
(dp664
sg70
g636
sg63
(lp665
g56
(g77
g58
NtRp666
(dp667
g61
(dp668
g81
g82
ssg70
g662
sg63
(lp669
S'applications_parent'
p670
asbag56
(g77
g58
NtRp671
(dp672
g61
(dp673
g88
g89
ssg70
g662
sg63
(lp674
S':'
asbag56
(g77
g58
NtRp675
(dp676
g61
(dp677
sg70
g662
sg63
(lp678
g56
(g57
g58
NtRp679
(dp680
g61
(dp681
g69
I4
ssg70
g675
sg63
(lp682
S'/Users/excon/Sites/dreamscape'
p683
asbasbasbag56
(g72
g58
NtRp684
(dp685
g61
(dp686
sg70
g636
sg63
(lp687
g56
(g77
g58
NtRp688
(dp689
g61
(dp690
g81
g82
ssg70
g684
sg63
(lp691
S'cmd_args'
p692
asbag56
(g77
g58
NtRp693
(dp694
g61
(dp695
g88
g89
ssg70
g684
sg63
(lp696
S':'
asbag56
(g77
g58
NtRp697
(dp698
g61
(dp699
sg70
g684
sg63
(lp700
g56
(g57
g58
NtRp701
(dp702
g61
(dp703
g69
I4
ssg70
g697
sg63
(lp704
g56
(g65
g58
NtRp705
(dp706
g61
(dp707
g69
I3
ssg70
Nsg63
(lp708
sbasbasbasbag56
(g72
g58
NtRp709
(dp710
g61
(dp711
sg70
g636
sg63
(lp712
g56
(g77
g58
NtRp713
(dp714
g61
(dp715
g81
g82
ssg70
g709
sg63
(lp716
S'cmd_options'
p717
asbag56
(g77
g58
NtRp718
(dp719
g61
(dp720
g88
g89
ssg70
g709
sg63
(lp721
S':'
asbag56
(g77
g58
NtRp722
(dp723
g61
(dp724
sg70
g709
sg63
(lp725
g56
(g57
g58
NtRp726
(dp727
g61
(dp728
g69
I4
ssg70
g722
sg63
(lp729
S"<Values at 0x101c08e18: {'verbose': False, 'ip': '127.0.0.1', 'shutdown_timeout': 5, 'taskbar': False, 'nocron': False, 'pid_filename': 'httpserver.pid', 'maxthreads': None, 'softcron': False, 'server_name': 'Excons-MacBook.local', 'bpython': False, 'nogui': False, 'port': 8000, 'extcron': False, 'debuglevel': 30, 'test': None, 'folder': '/Users/excon/Sites/dreamscape', 'config': '', 'import_models': False, 'winservice': '', 'shell': None, 'run': '', 'log_filename': 'httpserver.log', 'args': [''], 'ssl_ca_certificate': None, 'scheduler': None, 'profiler_filename': None, 'ssl_private_key': '', 'password': '<ask>', 'request_queue_size': 5, 'ssl_certificate': '', 'cronjob': False, 'plain': False, 'quiet': False, 'interfaces': None, 'minthreads': None, 'timeout': 10, 'numthreads': None, 'nobanner': False}>"
p730
asbasbasbag56
(g72
g58
NtRp731
(dp732
g61
(dp733
sg70
g636
sg63
(lp734
g56
(g77
g58
NtRp735
(dp736
g61
(dp737
g81
g82
ssg70
g731
sg63
(lp738
S'db_sessions'
p739
asbag56
(g77
g58
NtRp740
(dp741
g61
(dp742
g88
g89
ssg70
g731
sg63
(lp743
S':'
asbag56
(g77
g58
NtRp744
(dp745
g61
(dp746
sg70
g731
sg63
(lp747
g56
(g57
g58
NtRp748
(dp749
g61
(dp750
g69
I4
ssg70
g744
sg63
(lp751
S'set([])'
p752
asbasbasbag56
(g72
g58
NtRp753
(dp754
g61
(dp755
sg70
g636
sg63
(lp756
g56
(g77
g58
NtRp757
(dp758
g61
(dp759
g81
g82
ssg70
g753
sg63
(lp760
S'debugging'
p761
asbag56
(g77
g58
NtRp762
(dp763
g61
(dp764
g88
g89
ssg70
g753
sg63
(lp765
S':'
asbag56
(g77
g58
NtRp766
(dp767
g61
(dp768
sg70
g753
sg63
(lp769
g56
(g57
g58
NtRp770
(dp771
g61
(dp772
g69
I4
ssg70
g766
sg63
(lp773
g99
asbasbasbag56
(g72
g58
NtRp774
(dp775
g61
(dp776
sg70
g636
sg63
(lp777
g56
(g77
g58
NtRp778
(dp779
g61
(dp780
g81
g82
ssg70
g774
sg63
(lp781
S'gluon_parent'
p782
asbag56
(g77
g58
NtRp783
(dp784
g61
(dp785
g88
g89
ssg70
g774
sg63
(lp786
S':'
asbag56
(g77
g58
NtRp787
(dp788
g61
(dp789
sg70
g774
sg63
(lp790
g56
(g57
g58
NtRp791
(dp792
g61
(dp793
g69
I4
ssg70
g787
sg63
(lp794
S'/Users/excon/Sites/dreamscape'
p795
asbasbasbag56
(g72
g58
NtRp796
(dp797
g61
(dp798
sg70
g636
sg63
(lp799
g56
(g77
g58
NtRp800
(dp801
g61
(dp802
g81
g82
ssg70
g796
sg63
(lp803
S'http_accept'
p804
asbag56
(g77
g58
NtRp805
(dp806
g61
(dp807
g88
g89
ssg70
g796
sg63
(lp808
S':'
asbag56
(g77
g58
NtRp809
(dp810
g61
(dp811
sg70
g796
sg63
(lp812
g56
(g57
g58
NtRp813
(dp814
g61
(dp815
g69
I4
ssg70
g809
sg63
(lp816
S'text/html,application/xhtml+xml,application/xml;q=0.9,*/*;q=0.8'
p817
asbasbasbag56
(g72
g58
NtRp818
(dp819
g61
(dp820
sg70
g636
sg63
(lp821
g56
(g77
g58
NtRp822
(dp823
g61
(dp824
g81
g82
ssg70
g818
sg63
(lp825
S'http_accept_charset'
p826
asbag56
(g77
g58
NtRp827
(dp828
g61
(dp829
g88
g89
ssg70
g818
sg63
(lp830
S':'
asbag56
(g77
g58
NtRp831
(dp832
g61
(dp833
sg70
g818
sg63
(lp834
g56
(g57
g58
NtRp835
(dp836
g61
(dp837
g69
I4
ssg70
g831
sg63
(lp838
S'ISO-8859-1,utf-8;q=0.7,*;q=0.7'
p839
asbasbasbag56
(g72
g58
NtRp840
(dp841
g61
(dp842
sg70
g636
sg63
(lp843
g56
(g77
g58
NtRp844
(dp845
g61
(dp846
g81
g82
ssg70
g840
sg63
(lp847
S'http_accept_encoding'
p848
asbag56
(g77
g58
NtRp849
(dp850
g61
(dp851
g88
g89
ssg70
g840
sg63
(lp852
S':'
asbag56
(g77
g58
NtRp853
(dp854
g61
(dp855
sg70
g840
sg63
(lp856
g56
(g57
g58
NtRp857
(dp858
g61
(dp859
g69
I4
ssg70
g853
sg63
(lp860
S'gzip, deflate'
p861
asbasbasbag56
(g72
g58
NtRp862
(dp863
g61
(dp864
sg70
g636
sg63
(lp865
g56
(g77
g58
NtRp866
(dp867
g61
(dp868
g81
g82
ssg70
g862
sg63
(lp869
S'http_accept_language'
p870
asbag56
(g77
g58
NtRp871
(dp872
g61
(dp873
g88
g89
ssg70
g862
sg63
(lp874
S':'
asbag56
(g77
g58
NtRp875
(dp876
g61
(dp877
sg70
g862
sg63
(lp878
g56
(g57
g58
NtRp879
(dp880
g61
(dp881
g69
I4
ssg70
g875
sg63
(lp882
S'en-us,en;q=0.5'
p883
asbasbasbag56
(g72
g58
NtRp884
(dp885
g61
(dp886
sg70
g636
sg63
(lp887
g56
(g77
g58
NtRp888
(dp889
g61
(dp890
g81
g82
ssg70
g884
sg63
(lp891
S'http_cache_control'
p892
asbag56
(g77
g58
NtRp893
(dp894
g61
(dp895
g88
g89
ssg70
g884
sg63
(lp896
S':'
asbag56
(g77
g58
NtRp897
(dp898
g61
(dp899
sg70
g884
sg63
(lp900
g56
(g57
g58
NtRp901
(dp902
g61
(dp903
g69
I4
ssg70
g897
sg63
(lp904
S'max-age=0'
p905
asbasbasbag56
(g72
g58
NtRp906
(dp907
g61
(dp908
sg70
g636
sg63
(lp909
g56
(g77
g58
NtRp910
(dp911
g61
(dp912
g81
g82
ssg70
g906
sg63
(lp913
S'http_connection'
p914
asbag56
(g77
g58
NtRp915
(dp916
g61
(dp917
g88
g89
ssg70
g906
sg63
(lp918
S':'
asbag56
(g77
g58
NtRp919
(dp920
g61
(dp921
sg70
g906
sg63
(lp922
g56
(g57
g58
NtRp923
(dp924
g61
(dp925
g69
I4
ssg70
g919
sg63
(lp926
S'keep-alive'
p927
asbasbasbag56
(g72
g58
NtRp928
(dp929
g61
(dp930
sg70
g636
sg63
(lp931
g56
(g77
g58
NtRp932
(dp933
g61
(dp934
g81
g82
ssg70
g928
sg63
(lp935
S'http_cookie'
p936
asbag56
(g77
g58
NtRp937
(dp938
g61
(dp939
g88
g89
ssg70
g928
sg63
(lp940
S':'
asbag56
(g77
g58
NtRp941
(dp942
g61
(dp943
sg70
g928
sg63
(lp944
g56
(g57
g58
NtRp945
(dp946
g61
(dp947
g69
I4
ssg70
g941
sg63
(lp948
S'session_id_admin=127.0.0.1-5b141cc6-e361-4eb9-a9ac-a862b6eab284; session_id_welcome=127.0.0.1-51cc951f-9f8f-44c6-96d8-bac94161d020'
p949
asbasbasbag56
(g72
g58
NtRp950
(dp951
g61
(dp952
sg70
g636
sg63
(lp953
g56
(g77
g58
NtRp954
(dp955
g61
(dp956
g81
g82
ssg70
g950
sg63
(lp957
S'http_host'
p958
asbag56
(g77
g58
NtRp959
(dp960
g61
(dp961
g88
g89
ssg70
g950
sg63
(lp962
S':'
asbag56
(g77
g58
NtRp963
(dp964
g61
(dp965
sg70
g950
sg63
(lp966
g56
(g57
g58
NtRp967
(dp968
g61
(dp969
g69
I4
ssg70
g963
sg63
(lp970
S'localhost:8000'
p971
asbasbasbag56
(g72
g58
NtRp972
(dp973
g61
(dp974
sg70
g636
sg63
(lp975
g56
(g77
g58
NtRp976
(dp977
g61
(dp978
g81
g82
ssg70
g972
sg63
(lp979
S'http_user_agent'
p980
asbag56
(g77
g58
NtRp981
(dp982
g61
(dp983
g88
g89
ssg70
g972
sg63
(lp984
S':'
asbag56
(g77
g58
NtRp985
(dp986
g61
(dp987
sg70
g972
sg63
(lp988
g56
(g57
g58
NtRp989
(dp990
g61
(dp991
g69
I4
ssg70
g985
sg63
(lp992
S'Mozilla/5.0 (Macintosh; Intel Mac OS X 10.6; rv:6.0.2) Gecko/20100101 Firefox/6.0.2'
p993
asbasbasbag56
(g72
g58
NtRp994
(dp995
g61
(dp996
sg70
g636
sg63
(lp997
g56
(g77
g58
NtRp998
(dp999
g61
(dp1000
g81
g82
ssg70
g994
sg63
(lp1001
S'is_jython'
p1002
asbag56
(g77
g58
NtRp1003
(dp1004
g61
(dp1005
g88
g89
ssg70
g994
sg63
(lp1006
S':'
asbag56
(g77
g58
NtRp1007
(dp1008
g61
(dp1009
sg70
g994
sg63
(lp1010
g56
(g57
g58
NtRp1011
(dp1012
g61
(dp1013
g69
I4
ssg70
g1007
sg63
(lp1014
g99
asbasbasbag56
(g72
g58
NtRp1015
(dp1016
g61
(dp1017
sg70
g636
sg63
(lp1018
g56
(g77
g58
NtRp1019
(dp1020
g61
(dp1021
g81
g82
ssg70
g1015
sg63
(lp1022
S'path_info'
p1023
asbag56
(g77
g58
NtRp1024
(dp1025
g61
(dp1026
g88
g89
ssg70
g1015
sg63
(lp1027
S':'
asbag56
(g77
g58
NtRp1028
(dp1029
g61
(dp1030
sg70
g1015
sg63
(lp1031
g56
(g57
g58
NtRp1032
(dp1033
g61
(dp1034
g69
I4
ssg70
g1028
sg63
(lp1035
S'/welcome/default/coming_soon'
p1036
asbasbasbag56
(g72
g58
NtRp1037
(dp1038
g61
(dp1039
sg70
g636
sg63
(lp1040
g56
(g77
g58
NtRp1041
(dp1042
g61
(dp1043
g81
g82
ssg70
g1037
sg63
(lp1044
S'query_string'
p1045
asbag56
(g77
g58
NtRp1046
(dp1047
g61
(dp1048
g88
g89
ssg70
g1037
sg63
(lp1049
S':'
asbag56
(g77
g58
NtRp1050
(dp1051
g61
(dp1052
sg70
g1037
sg63
(lp1053
g56
(g57
g58
NtRp1054
(dp1055
g61
(dp1056
g69
I4
ssg70
g1050
sg63
(lp1057
S''
asbasbasbag56
(g72
g58
NtRp1058
(dp1059
g61
(dp1060
sg70
g636
sg63
(lp1061
g56
(g77
g58
NtRp1062
(dp1063
g61
(dp1064
g81
g82
ssg70
g1058
sg63
(lp1065
S'remote_addr'
p1066
asbag56
(g77
g58
NtRp1067
(dp1068
g61
(dp1069
g88
g89
ssg70
g1058
sg63
(lp1070
S':'
asbag56
(g77
g58
NtRp1071
(dp1072
g61
(dp1073
sg70
g1058
sg63
(lp1074
g56
(g57
g58
NtRp1075
(dp1076
g61
(dp1077
g69
I4
ssg70
g1071
sg63
(lp1078
g189
asbasbasbag56
(g72
g58
NtRp1079
(dp1080
g61
(dp1081
sg70
g636
sg63
(lp1082
g56
(g77
g58
NtRp1083
(dp1084
g61
(dp1085
g81
g82
ssg70
g1079
sg63
(lp1086
S'remote_port'
p1087
asbag56
(g77
g58
NtRp1088
(dp1089
g61
(dp1090
g88
g89
ssg70
g1079
sg63
(lp1091
S':'
asbag56
(g77
g58
NtRp1092
(dp1093
g61
(dp1094
sg70
g1079
sg63
(lp1095
g56
(g57
g58
NtRp1096
(dp1097
g61
(dp1098
g69
I4
ssg70
g1092
sg63
(lp1099
S'53607'
p1100
asbasbasbag56
(g72
g58
NtRp1101
(dp1102
g61
(dp1103
sg70
g636
sg63
(lp1104
g56
(g77
g58
NtRp1105
(dp1106
g61
(dp1107
g81
g82
ssg70
g1101
sg63
(lp1108
S'request_method'
p1109
asbag56
(g77
g58
NtRp1110
(dp1111
g61
(dp1112
g88
g89
ssg70
g1101
sg63
(lp1113
S':'
asbag56
(g77
g58
NtRp1114
(dp1115
g61
(dp1116
sg70
g1101
sg63
(lp1117
g56
(g57
g58
NtRp1118
(dp1119
g61
(dp1120
g69
I4
ssg70
g1114
sg63
(lp1121
S'GET'
p1122
asbasbasbag56
(g72
g58
NtRp1123
(dp1124
g61
(dp1125
sg70
g636
sg63
(lp1126
g56
(g77
g58
NtRp1127
(dp1128
g61
(dp1129
g81
g82
ssg70
g1123
sg63
(lp1130
S'script_name'
p1131
asbag56
(g77
g58
NtRp1132
(dp1133
g61
(dp1134
g88
g89
ssg70
g1123
sg63
(lp1135
S':'
asbag56
(g77
g58
NtRp1136
(dp1137
g61
(dp1138
sg70
g1123
sg63
(lp1139
g56
(g57
g58
NtRp1140
(dp1141
g61
(dp1142
g69
I4
ssg70
g1136
sg63
(lp1143
S''
asbasbasbag56
(g72
g58
NtRp1144
(dp1145
g61
(dp1146
sg70
g636
sg63
(lp1147
g56
(g77
g58
NtRp1148
(dp1149
g61
(dp1150
g81
g82
ssg70
g1144
sg63
(lp1151
S'server_name'
p1152
asbag56
(g77
g58
NtRp1153
(dp1154
g61
(dp1155
g88
g89
ssg70
g1144
sg63
(lp1156
S':'
asbag56
(g77
g58
NtRp1157
(dp1158
g61
(dp1159
sg70
g1144
sg63
(lp1160
g56
(g57
g58
NtRp1161
(dp1162
g61
(dp1163
g69
I4
ssg70
g1157
sg63
(lp1164
S'Excons-MacBook.local'
p1165
asbasbasbag56
(g72
g58
NtRp1166
(dp1167
g61
(dp1168
sg70
g636
sg63
(lp1169
g56
(g77
g58
NtRp1170
(dp1171
g61
(dp1172
g81
g82
ssg70
g1166
sg63
(lp1173
S'server_port'
p1174
asbag56
(g77
g58
NtRp1175
(dp1176
g61
(dp1177
g88
g89
ssg70
g1166
sg63
(lp1178
S':'
asbag56
(g77
g58
NtRp1179
(dp1180
g61
(dp1181
sg70
g1166
sg63
(lp1182
g56
(g57
g58
NtRp1183
(dp1184
g61
(dp1185
g69
I4
ssg70
g1179
sg63
(lp1186
S'8000'
p1187
asbasbasbag56
(g72
g58
NtRp1188
(dp1189
g61
(dp1190
sg70
g636
sg63
(lp1191
g56
(g77
g58
NtRp1192
(dp1193
g61
(dp1194
g81
g82
ssg70
g1188
sg63
(lp1195
S'server_protocol'
p1196
asbag56
(g77
g58
NtRp1197
(dp1198
g61
(dp1199
g88
g89
ssg70
g1188
sg63
(lp1200
S':'
asbag56
(g77
g58
NtRp1201
(dp1202
g61
(dp1203
sg70
g1188
sg63
(lp1204
g56
(g57
g58
NtRp1205
(dp1206
g61
(dp1207
g69
I4
ssg70
g1201
sg63
(lp1208
S'HTTP/1.1'
p1209
asbasbasbag56
(g72
g58
NtRp1210
(dp1211
g61
(dp1212
sg70
g636
sg63
(lp1213
g56
(g77
g58
NtRp1214
(dp1215
g61
(dp1216
g81
g82
ssg70
g1210
sg63
(lp1217
S'server_software'
p1218
asbag56
(g77
g58
NtRp1219
(dp1220
g61
(dp1221
g88
g89
ssg70
g1210
sg63
(lp1222
S':'
asbag56
(g77
g58
NtRp1223
(dp1224
g61
(dp1225
sg70
g1210
sg63
(lp1226
g56
(g57
g58
NtRp1227
(dp1228
g61
(dp1229
g69
I4
ssg70
g1223
sg63
(lp1230
S'Rocket 1.2.4'
p1231
asbasbasbag56
(g72
g58
NtRp1232
(dp1233
g61
(dp1234
sg70
g636
sg63
(lp1235
g56
(g77
g58
NtRp1236
(dp1237
g61
(dp1238
g81
g82
ssg70
g1232
sg63
(lp1239
S'web2py_crontype'
p1240
asbag56
(g77
g58
NtRp1241
(dp1242
g61
(dp1243
g88
g89
ssg70
g1232
sg63
(lp1244
S':'
asbag56
(g77
g58
NtRp1245
(dp1246
g61
(dp1247
sg70
g1232
sg63
(lp1248
g56
(g57
g58
NtRp1249
(dp1250
g61
(dp1251
g69
I4
ssg70
g1245
sg63
(lp1252
S'hard'
p1253
asbasbasbag56
(g72
g58
NtRp1254
(dp1255
g61
(dp1256
sg70
g636
sg63
(lp1257
g56
(g77
g58
NtRp1258
(dp1259
g61
(dp1260
g81
g82
ssg70
g1254
sg63
(lp1261
S'web2py_path'
p1262
asbag56
(g77
g58
NtRp1263
(dp1264
g61
(dp1265
g88
g89
ssg70
g1254
sg63
(lp1266
S':'
asbag56
(g77
g58
NtRp1267
(dp1268
g61
(dp1269
sg70
g1254
sg63
(lp1270
g56
(g57
g58
NtRp1271
(dp1272
g61
(dp1273
g69
I4
ssg70
g1267
sg63
(lp1274
g683
asbasbasbag56
(g72
g58
NtRp1275
(dp1276
g61
(dp1277
sg70
g636
sg63
(lp1278
g56
(g77
g58
NtRp1279
(dp1280
g61
(dp1281
g81
g82
ssg70
g1275
sg63
(lp1282
S'web2py_version'
p1283
asbag56
(g77
g58
NtRp1284
(dp1285
g61
(dp1286
g88
g89
ssg70
g1275
sg63
(lp1287
S':'
asbag56
(g77
g58
NtRp1288
(dp1289
g61
(dp1290
sg70
g1275
sg63
(lp1291
g56
(g57
g58
NtRp1292
(dp1293
g61
(dp1294
g69
I4
ssg70
g1288
sg63
(lp1295
g56
(g65
g58
NtRp1296
(dp1297
g61
(dp1298
g69
I3
ssg70
Nsg63
(lp1299
g56
(g72
g58
NtRp1300
(dp1301
g61
(dp1302
sg70
g1296
sg63
(lp1303
g56
(g77
g58
NtRp1304
(dp1305
g61
(dp1306
sg70
g1300
sg63
(lp1307
g56
(g57
g58
NtRp1308
(dp1309
g61
(dp1310
g69
I3
ssg70
g1304
sg63
(lp1311
S'1'
asbasbasbag56
(g72
g58
NtRp1312
(dp1313
g61
(dp1314
sg70
g1296
sg63
(lp1315
g56
(g77
g58
NtRp1316
(dp1317
g61
(dp1318
sg70
g1312
sg63
(lp1319
g56
(g57
g58
NtRp1320
(dp1321
g61
(dp1322
g69
I3
ssg70
g1316
sg63
(lp1323
S'99'
p1324
asbasbasbag56
(g72
g58
NtRp1325
(dp1326
g61
(dp1327
sg70
g1296
sg63
(lp1328
g56
(g77
g58
NtRp1329
(dp1330
g61
(dp1331
sg70
g1325
sg63
(lp1332
g56
(g57
g58
NtRp1333
(dp1334
g61
(dp1335
g69
I3
ssg70
g1329
sg63
(lp1336
S'2'
asbasbasbag56
(g72
g58
NtRp1337
(dp1338
g61
(dp1339
sg70
g1296
sg63
(lp1340
g56
(g77
g58
NtRp1341
(dp1342
g61
(dp1343
sg70
g1337
sg63
(lp1344
g56
(g57
g58
NtRp1345
(dp1346
g61
(dp1347
g69
I3
ssg70
g1341
sg63
(lp1348
S'datetime.datetime(2011, 9, 26, 6, 55, 33)'
p1349
asbasbasbag56
(g72
g58
NtRp1350
(dp1351
g61
(dp1352
sg70
g1296
sg63
(lp1353
g56
(g77
g58
NtRp1354
(dp1355
g61
(dp1356
sg70
g1350
sg63
(lp1357
g56
(g57
g58
NtRp1358
(dp1359
g61
(dp1360
g69
I3
ssg70
g1354
sg63
(lp1361
S'stable'
p1362
asbasbasbasbasbasbasbag56
(g72
g58
NtRp1363
(dp1364
g61
(dp1365
sg70
g636
sg63
(lp1366
g56
(g77
g58
NtRp1367
(dp1368
g61
(dp1369
g81
g82
ssg70
g1363
sg63
(lp1370
S'wsgi_errors'
p1371
asbag56
(g77
g58
NtRp1372
(dp1373
g61
(dp1374
g88
g89
ssg70
g1363
sg63
(lp1375
S':'
asbag56
(g77
g58
NtRp1376
(dp1377
g61
(dp1378
sg70
g1363
sg63
(lp1379
g56
(g57
g58
NtRp1380
(dp1381
g61
(dp1382
g69
I4
ssg70
g1376
sg63
(lp1383
S"<open file '<stderr>', mode 'w' at 0x100416140>"
p1384
asbasbasbag56
(g72
g58
NtRp1385
(dp1386
g61
(dp1387
sg70
g636
sg63
(lp1388
g56
(g77
g58
NtRp1389
(dp1390
g61
(dp1391
g81
g82
ssg70
g1385
sg63
(lp1392
S'wsgi_file_wrapper'
p1393
asbag56
(g77
g58
NtRp1394
(dp1395
g61
(dp1396
g88
g89
ssg70
g1385
sg63
(lp1397
S':'
asbag56
(g77
g58
NtRp1398
(dp1399
g61
(dp1400
sg70
g1385
sg63
(lp1401
g56
(g57
g58
NtRp1402
(dp1403
g61
(dp1404
g69
I4
ssg70
g1398
sg63
(lp1405
S'<class wsgiref.util.FileWrapper at 0x1014a1bf0>'
p1406
asbasbasbag56
(g72
g58
NtRp1407
(dp1408
g61
(dp1409
sg70
g636
sg63
(lp1410
g56
(g77
g58
NtRp1411
(dp1412
g61
(dp1413
g81
g82
ssg70
g1407
sg63
(lp1414
S'wsgi_input'
p1415
asbag56
(g77
g58
NtRp1416
(dp1417
g61
(dp1418
g88
g89
ssg70
g1407
sg63
(lp1419
S':'
asbag56
(g77
g58
NtRp1420
(dp1421
g61
(dp1422
sg70
g1407
sg63
(lp1423
g56
(g57
g58
NtRp1424
(dp1425
g61
(dp1426
g69
I4
ssg70
g1420
sg63
(lp1427
S'<socket._fileobject object at 0x112ddc848>'
p1428
asbasbasbag56
(g72
g58
NtRp1429
(dp1430
g61
(dp1431
sg70
g636
sg63
(lp1432
g56
(g77
g58
NtRp1433
(dp1434
g61
(dp1435
g81
g82
ssg70
g1429
sg63
(lp1436
S'wsgi_multiprocess'
p1437
asbag56
(g77
g58
NtRp1438
(dp1439
g61
(dp1440
g88
g89
ssg70
g1429
sg63
(lp1441
S':'
asbag56
(g77
g58
NtRp1442
(dp1443
g61
(dp1444
sg70
g1429
sg63
(lp1445
g56
(g57
g58
NtRp1446
(dp1447
g61
(dp1448
g69
I4
ssg70
g1442
sg63
(lp1449
g99
asbasbasbag56
(g72
g58
NtRp1450
(dp1451
g61
(dp1452
sg70
g636
sg63
(lp1453
g56
(g77
g58
NtRp1454
(dp1455
g61
(dp1456
g81
g82
ssg70
g1450
sg63
(lp1457
S'wsgi_multithread'
p1458
asbag56
(g77
g58
NtRp1459
(dp1460
g61
(dp1461
g88
g89
ssg70
g1450
sg63
(lp1462
S':'
asbag56
(g77
g58
NtRp1463
(dp1464
g61
(dp1465
sg70
g1450
sg63
(lp1466
g56
(g57
g58
NtRp1467
(dp1468
g61
(dp1469
g69
I4
ssg70
g1463
sg63
(lp1470
S'True'
p1471
asbasbasbag56
(g72
g58
NtRp1472
(dp1473
g61
(dp1474
sg70
g636
sg63
(lp1475
g56
(g77
g58
NtRp1476
(dp1477
g61
(dp1478
g81
g82
ssg70
g1472
sg63
(lp1479
S'wsgi_run_once'
p1480
asbag56
(g77
g58
NtRp1481
(dp1482
g61
(dp1483
g88
g89
ssg70
g1472
sg63
(lp1484
S':'
asbag56
(g77
g58
NtRp1485
(dp1486
g61
(dp1487
sg70
g1472
sg63
(lp1488
g56
(g57
g58
NtRp1489
(dp1490
g61
(dp1491
g69
I4
ssg70
g1485
sg63
(lp1492
g99
asbasbasbag56
(g72
g58
NtRp1493
(dp1494
g61
(dp1495
sg70
g636
sg63
(lp1496
g56
(g77
g58
NtRp1497
(dp1498
g61
(dp1499
g81
g82
ssg70
g1493
sg63
(lp1500
S'wsgi_url_scheme'
p1501
asbag56
(g77
g58
NtRp1502
(dp1503
g61
(dp1504
g88
g89
ssg70
g1493
sg63
(lp1505
S':'
asbag56
(g77
g58
NtRp1506
(dp1507
g61
(dp1508
sg70
g1493
sg63
(lp1509
g56
(g57
g58
NtRp1510
(dp1511
g61
(dp1512
g69
I4
ssg70
g1506
sg63
(lp1513
S'http'
p1514
asbasbasbag56
(g72
g58
NtRp1515
(dp1516
g61
(dp1517
sg70
g636
sg63
(lp1518
g56
(g77
g58
NtRp1519
(dp1520
g61
(dp1521
g81
g82
ssg70
g1515
sg63
(lp1522
S'wsgi_version'
p1523
asbag56
(g77
g58
NtRp1524
(dp1525
g61
(dp1526
g88
g89
ssg70
g1515
sg63
(lp1527
S':'
asbag56
(g77
g58
NtRp1528
(dp1529
g61
(dp1530
sg70
g1515
sg63
(lp1531
g56
(g57
g58
NtRp1532
(dp1533
g61
(dp1534
g69
I4
ssg70
g1528
sg63
(lp1535
g56
(g65
g58
NtRp1536
(dp1537
g61
(dp1538
g69
I3
ssg70
Nsg63
(lp1539
g56
(g72
g58
NtRp1540
(dp1541
g61
(dp1542
sg70
g1536
sg63
(lp1543
g56
(g77
g58
NtRp1544
(dp1545
g61
(dp1546
sg70
g1540
sg63
(lp1547
g56
(g57
g58
NtRp1548
(dp1549
g61
(dp1550
g69
I3
ssg70
g1544
sg63
(lp1551
S'1'
asbasbasbag56
(g72
g58
NtRp1552
(dp1553
g61
(dp1554
sg70
g1536
sg63
(lp1555
g56
(g77
g58
NtRp1556
(dp1557
g61
(dp1558
sg70
g1552
sg63
(lp1559
g56
(g57
g58
NtRp1560
(dp1561
g61
(dp1562
g69
I3
ssg70
g1556
sg63
(lp1563
S'0'
asbasbasbasbasbasbasbasbasbasbasbag56
(g72
g58
NtRp1564
(dp1565
g61
(dp1566
sg70
g66
sg63
(lp1567
g56
(g77
g58
NtRp1568
(dp1569
g61
(dp1570
g81
g82
ssg70
g1564
sg63
(lp1571
S'extension'
p1572
asbag56
(g77
g58
NtRp1573
(dp1574
g61
(dp1575
g88
g89
ssg70
g1564
sg63
(lp1576
S':'
asbag56
(g77
g58
NtRp1577
(dp1578
g61
(dp1579
sg70
g1564
sg63
(lp1580
g56
(g57
g58
NtRp1581
(dp1582
g61
(dp1583
g69
I5
ssg70
g1577
sg63
(lp1584
S'html'
p1585
asbasbasbag56
(g72
g58
NtRp1586
(dp1587
g61
(dp1588
sg70
g66
sg63
(lp1589
g56
(g77
g58
NtRp1590
(dp1591
g61
(dp1592
g81
g82
ssg70
g1586
sg63
(lp1593
S'folder'
p1594
asbag56
(g77
g58
NtRp1595
(dp1596
g61
(dp1597
g88
g89
ssg70
g1586
sg63
(lp1598
S':'
asbag56
(g77
g58
NtRp1599
(dp1600
g61
(dp1601
sg70
g1586
sg63
(lp1602
g56
(g57
g58
NtRp1603
(dp1604
g61
(dp1605
g69
I5
ssg70
g1599
sg63
(lp1606
S'/Users/excon/Sites/dreamscape/applications/welcome/'
p1607
asbasbasbag56
(g72
g58
NtRp1608
(dp1609
g61
(dp1610
sg70
g66
sg63
(lp1611
g56
(g77
g58
NtRp1612
(dp1613
g61
(dp1614
g81
g82
ssg70
g1608
sg63
(lp1615
S'function'
p1616
asbag56
(g77
g58
NtRp1617
(dp1618
g61
(dp1619
g88
g89
ssg70
g1608
sg63
(lp1620
S':'
asbag56
(g77
g58
NtRp1621
(dp1622
g61
(dp1623
sg70
g1608
sg63
(lp1624
g56
(g57
g58
NtRp1625
(dp1626
g61
(dp1627
g69
I5
ssg70
g1621
sg63
(lp1628
S'coming_soon'
p1629
asbasbasbag56
(g72
g58
NtRp1630
(dp1631
g61
(dp1632
sg70
g66
sg63
(lp1633
g56
(g77
g58
NtRp1634
(dp1635
g61
(dp1636
g81
g82
ssg70
g1630
sg63
(lp1637
S'get_vars'
p1638
asbag56
(g77
g58
NtRp1639
(dp1640
g61
(dp1641
g88
g89
ssg70
g1630
sg63
(lp1642
S':'
asbag56
(g77
g58
NtRp1643
(dp1644
g61
(dp1645
sg70
g1630
sg63
(lp1646
g56
(g57
g58
NtRp1647
(dp1648
g61
(dp1649
g69
I5
ssg70
g1643
sg63
(lp1650
g56
(g65
g58
NtRp1651
(dp1652
g61
(dp1653
g69
I4
ssg70
Nsg63
(lp1654
sbasbasbasbag56
(g72
g58
NtRp1655
(dp1656
g61
(dp1657
sg70
g66
sg63
(lp1658
g56
(g77
g58
NtRp1659
(dp1660
g61
(dp1661
g81
g82
ssg70
g1655
sg63
(lp1662
S'global_settings'
p1663
asbag56
(g77
g58
NtRp1664
(dp1665
g61
(dp1666
g88
g89
ssg70
g1655
sg63
(lp1667
S':'
asbag56
(g77
g58
NtRp1668
(dp1669
g61
(dp1670
sg70
g1655
sg63
(lp1671
g56
(g57
g58
NtRp1672
(dp1673
g61
(dp1674
g69
I5
ssg70
g1668
sg63
(lp1675
g56
(g65
g58
NtRp1676
(dp1677
g61
(dp1678
g69
I4
ssg70
Nsg63
(lp1679
g56
(g72
g58
NtRp1680
(dp1681
g61
(dp1682
sg70
g1676
sg63
(lp1683
g56
(g77
g58
NtRp1684
(dp1685
g61
(dp1686
g81
g82
ssg70
g1680
sg63
(lp1687
g648
asbag56
(g77
g58
NtRp1688
(dp1689
g61
(dp1690
g88
g89
ssg70
g1680
sg63
(lp1691
S':'
asbag56
(g77
g58
NtRp1692
(dp1693
g61
(dp1694
sg70
g1680
sg63
(lp1695
g56
(g57
g58
NtRp1696
(dp1697
g61
(dp1698
g69
I4
ssg70
g1692
sg63
(lp1699
S"set(['/Users/excon/Sites/dreamscape/applications/welcome/', '/Users/excon/Sites/dreamscape/applications/admin/'])"
p1700
asbasbasbag56
(g72
g58
NtRp1701
(dp1702
g61
(dp1703
sg70
g1676
sg63
(lp1704
g56
(g77
g58
NtRp1705
(dp1706
g61
(dp1707
g81
g82
ssg70
g1701
sg63
(lp1708
g670
asbag56
(g77
g58
NtRp1709
(dp1710
g61
(dp1711
g88
g89
ssg70
g1701
sg63
(lp1712
S':'
asbag56
(g77
g58
NtRp1713
(dp1714
g61
(dp1715
sg70
g1701
sg63
(lp1716
g56
(g57
g58
NtRp1717
(dp1718
g61
(dp1719
g69
I4
ssg70
g1713
sg63
(lp1720
g683
asbasbasbag56
(g72
g58
NtRp1721
(dp1722
g61
(dp1723
sg70
g1676
sg63
(lp1724
g56
(g77
g58
NtRp1725
(dp1726
g61
(dp1727
g81
g82
ssg70
g1721
sg63
(lp1728
g692
asbag56
(g77
g58
NtRp1729
(dp1730
g61
(dp1731
g88
g89
ssg70
g1721
sg63
(lp1732
S':'
asbag56
(g77
g58
NtRp1733
(dp1734
g61
(dp1735
sg70
g1721
sg63
(lp1736
g56
(g57
g58
NtRp1737
(dp1738
g61
(dp1739
g69
I4
ssg70
g1733
sg63
(lp1740
g56
(g65
g58
NtRp1741
(dp1742
g61
(dp1743
g69
I3
ssg70
Nsg63
(lp1744
sbasbasbasbag56
(g72
g58
NtRp1745
(dp1746
g61
(dp1747
sg70
g1676
sg63
(lp1748
g56
(g77
g58
NtRp1749
(dp1750
g61
(dp1751
g81
g82
ssg70
g1745
sg63
(lp1752
g717
asbag56
(g77
g58
NtRp1753
(dp1754
g61
(dp1755
g88
g89
ssg70
g1745
sg63
(lp1756
S':'
asbag56
(g77
g58
NtRp1757
(dp1758
g61
(dp1759
sg70
g1745
sg63
(lp1760
g56
(g57
g58
NtRp1761
(dp1762
g61
(dp1763
g69
I4
ssg70
g1757
sg63
(lp1764
S"<Values at 0x101c08e18: {'verbose': False, 'ip': '127.0.0.1', 'shutdown_timeout': 5, 'taskbar': False, 'nocron': False, 'pid_filename': 'httpserver.pid', 'maxthreads': None, 'softcron': False, 'server_name': 'Excons-MacBook.local', 'bpython': False, 'nogui': False, 'port': 8000, 'extcron': False, 'debuglevel': 30, 'test': None, 'folder': '/Users/excon/Sites/dreamscape', 'config': '', 'import_models': False, 'winservice': '', 'shell': None, 'run': '', 'log_filename': 'httpserver.log', 'args': [''], 'ssl_ca_certificate': None, 'scheduler': None, 'profiler_filename': None, 'ssl_private_key': '', 'password': '<ask>', 'request_queue_size': 5, 'ssl_certificate': '', 'cronjob': False, 'plain': False, 'quiet': False, 'interfaces': None, 'minthreads': None, 'timeout': 10, 'numthreads': None, 'nobanner': False}>"
p1765
asbasbasbag56
(g72
g58
NtRp1766
(dp1767
g61
(dp1768
sg70
g1676
sg63
(lp1769
g56
(g77
g58
NtRp1770
(dp1771
g61
(dp1772
g81
g82
ssg70
g1766
sg63
(lp1773
g739
asbag56
(g77
g58
NtRp1774
(dp1775
g61
(dp1776
g88
g89
ssg70
g1766
sg63
(lp1777
S':'
asbag56
(g77
g58
NtRp1778
(dp1779
g61
(dp1780
sg70
g1766
sg63
(lp1781
g56
(g57
g58
NtRp1782
(dp1783
g61
(dp1784
g69
I4
ssg70
g1778
sg63
(lp1785
S'set([])'
p1786
asbasbasbag56
(g72
g58
NtRp1787
(dp1788
g61
(dp1789
sg70
g1676
sg63
(lp1790
g56
(g77
g58
NtRp1791
(dp1792
g61
(dp1793
g81
g82
ssg70
g1787
sg63
(lp1794
g761
asbag56
(g77
g58
NtRp1795
(dp1796
g61
(dp1797
g88
g89
ssg70
g1787
sg63
(lp1798
S':'
asbag56
(g77
g58
NtRp1799
(dp1800
g61
(dp1801
sg70
g1787
sg63
(lp1802
g56
(g57
g58
NtRp1803
(dp1804
g61
(dp1805
g69
I4
ssg70
g1799
sg63
(lp1806
g99
asbasbasbag56
(g72
g58
NtRp1807
(dp1808
g61
(dp1809
sg70
g1676
sg63
(lp1810
g56
(g77
g58
NtRp1811
(dp1812
g61
(dp1813
g81
g82
ssg70
g1807
sg63
(lp1814
g782
asbag56
(g77
g58
NtRp1815
(dp1816
g61
(dp1817
g88
g89
ssg70
g1807
sg63
(lp1818
S':'
asbag56
(g77
g58
NtRp1819
(dp1820
g61
(dp1821
sg70
g1807
sg63
(lp1822
g56
(g57
g58
NtRp1823
(dp1824
g61
(dp1825
g69
I4
ssg70
g1819
sg63
(lp1826
g795
asbasbasbag56
(g72
g58
NtRp1827
(dp1828
g61
(dp1829
sg70
g1676
sg63
(lp1830
g56
(g77
g58
NtRp1831
(dp1832
g61
(dp1833
g81
g82
ssg70
g1827
sg63
(lp1834
g1002
asbag56
(g77
g58
NtRp1835
(dp1836
g61
(dp1837
g88
g89
ssg70
g1827
sg63
(lp1838
S':'
asbag56
(g77
g58
NtRp1839
(dp1840
g61
(dp1841
sg70
g1827
sg63
(lp1842
g56
(g57
g58
NtRp1843
(dp1844
g61
(dp1845
g69
I4
ssg70
g1839
sg63
(lp1846
g99
asbasbasbag56
(g72
g58
NtRp1847
(dp1848
g61
(dp1849
sg70
g1676
sg63
(lp1850
g56
(g77
g58
NtRp1851
(dp1852
g61
(dp1853
g81
g82
ssg70
g1847
sg63
(lp1854
g1240
asbag56
(g77
g58
NtRp1855
(dp1856
g61
(dp1857
g88
g89
ssg70
g1847
sg63
(lp1858
S':'
asbag56
(g77
g58
NtRp1859
(dp1860
g61
(dp1861
sg70
g1847
sg63
(lp1862
g56
(g57
g58
NtRp1863
(dp1864
g61
(dp1865
g69
I4
ssg70
g1859
sg63
(lp1866
g1253
asbasbasbag56
(g72
g58
NtRp1867
(dp1868
g61
(dp1869
sg70
g1676
sg63
(lp1870
g56
(g77
g58
NtRp1871
(dp1872
g61
(dp1873
g81
g82
ssg70
g1867
sg63
(lp1874
g1283
asbag56
(g77
g58
NtRp1875
(dp1876
g61
(dp1877
g88
g89
ssg70
g1867
sg63
(lp1878
S':'
asbag56
(g77
g58
NtRp1879
(dp1880
g61
(dp1881
sg70
g1867
sg63
(lp1882
g56
(g57
g58
NtRp1883
(dp1884
g61
(dp1885
g69
I4
ssg70
g1879
sg63
(lp1886
g56
(g65
g58
NtRp1887
(dp1888
g61
(dp1889
g69
I3
ssg70
Nsg63
(lp1890
g56
(g72
g58
NtRp1891
(dp1892
g61
(dp1893
sg70
g1887
sg63
(lp1894
g56
(g77
g58
NtRp1895
(dp1896
g61
(dp1897
sg70
g1891
sg63
(lp1898
g56
(g57
g58
NtRp1899
(dp1900
g61
(dp1901
g69
I3
ssg70
g1895
sg63
(lp1902
S'1'
asbasbasbag56
(g72
g58
NtRp1903
(dp1904
g61
(dp1905
sg70
g1887
sg63
(lp1906
g56
(g77
g58
NtRp1907
(dp1908
g61
(dp1909
sg70
g1903
sg63
(lp1910
g56
(g57
g58
NtRp1911
(dp1912
g61
(dp1913
g69
I3
ssg70
g1907
sg63
(lp1914
S'99'
p1915
asbasbasbag56
(g72
g58
NtRp1916
(dp1917
g61
(dp1918
sg70
g1887
sg63
(lp1919
g56
(g77
g58
NtRp1920
(dp1921
g61
(dp1922
sg70
g1916
sg63
(lp1923
g56
(g57
g58
NtRp1924
(dp1925
g61
(dp1926
g69
I3
ssg70
g1920
sg63
(lp1927
S'2'
asbasbasbag56
(g72
g58
NtRp1928
(dp1929
g61
(dp1930
sg70
g1887
sg63
(lp1931
g56
(g77
g58
NtRp1932
(dp1933
g61
(dp1934
sg70
g1928
sg63
(lp1935
g56
(g57
g58
NtRp1936
(dp1937
g61
(dp1938
g69
I3
ssg70
g1932
sg63
(lp1939
S'datetime.datetime(2011, 9, 26, 6, 55, 33)'
p1940
asbasbasbag56
(g72
g58
NtRp1941
(dp1942
g61
(dp1943
sg70
g1887
sg63
(lp1944
g56
(g77
g58
NtRp1945
(dp1946
g61
(dp1947
sg70
g1941
sg63
(lp1948
g56
(g57
g58
NtRp1949
(dp1950
g61
(dp1951
g69
I3
ssg70
g1945
sg63
(lp1952
g1362
asbasbasbasbasbasbasbasbasbasbasbag56
(g72
g58
NtRp1953
(dp1954
g61
(dp1955
sg70
g66
sg63
(lp1956
g56
(g77
g58
NtRp1957
(dp1958
g61
(dp1959
g81
g82
ssg70
g1953
sg63
(lp1960
S'is_https'
p1961
asbag56
(g77
g58
NtRp1962
(dp1963
g61
(dp1964
g88
g89
ssg70
g1953
sg63
(lp1965
S':'
asbag56
(g77
g58
NtRp1966
(dp1967
g61
(dp1968
sg70
g1953
sg63
(lp1969
g56
(g57
g58
NtRp1970
(dp1971
g61
(dp1972
g69
I5
ssg70
g1966
sg63
(lp1973
g99
asbasbasbag56
(g72
g58
NtRp1974
(dp1975
g61
(dp1976
sg70
g66
sg63
(lp1977
g56
(g77
g58
NtRp1978
(dp1979
g61
(dp1980
g81
g82
ssg70
g1974
sg63
(lp1981
S'is_local'
p1982
asbag56
(g77
g58
NtRp1983
(dp1984
g61
(dp1985
g88
g89
ssg70
g1974
sg63
(lp1986
S':'
asbag56
(g77
g58
NtRp1987
(dp1988
g61
(dp1989
sg70
g1974
sg63
(lp1990
g56
(g57
g58
NtRp1991
(dp1992
g61
(dp1993
g69
I5
ssg70
g1987
sg63
(lp1994
g1471
asbasbasbag56
(g72
g58
NtRp1995
(dp1996
g61
(dp1997
sg70
g66
sg63
(lp1998
g56
(g77
g58
NtRp1999
(dp2000
g61
(dp2001
g81
g82
ssg70
g1995
sg63
(lp2002
S'is_restful'
p2003
asbag56
(g77
g58
NtRp2004
(dp2005
g61
(dp2006
g88
g89
ssg70
g1995
sg63
(lp2007
S':'
asbag56
(g77
g58
NtRp2008
(dp2009
g61
(dp2010
sg70
g1995
sg63
(lp2011
g56
(g57
g58
NtRp2012
(dp2013
g61
(dp2014
g69
I5
ssg70
g2008
sg63
(lp2015
g99
asbasbasbag56
(g72
g58
NtRp2016
(dp2017
g61
(dp2018
sg70
g66
sg63
(lp2019
g56
(g77
g58
NtRp2020
(dp2021
g61
(dp2022
g81
g82
ssg70
g2016
sg63
(lp2023
S'now'
p2024
asbag56
(g77
g58
NtRp2025
(dp2026
g61
(dp2027
g88
g89
ssg70
g2016
sg63
(lp2028
S':'
asbag56
(g77
g58
NtRp2029
(dp2030
g61
(dp2031
sg70
g2016
sg63
(lp2032
g56
(g57
g58
NtRp2033
(dp2034
g61
(dp2035
g69
I5
ssg70
g2029
sg63
(lp2036
S'datetime.datetime(2011, 9, 28, 17, 0, 50, 217794)'
p2037
asbasbasbag56
(g72
g58
NtRp2038
(dp2039
g61
(dp2040
sg70
g66
sg63
(lp2041
g56
(g77
g58
NtRp2042
(dp2043
g61
(dp2044
g81
g82
ssg70
g2038
sg63
(lp2045
S'post_vars'
p2046
asbag56
(g77
g58
NtRp2047
(dp2048
g61
(dp2049
g88
g89
ssg70
g2038
sg63
(lp2050
S':'
asbag56
(g77
g58
NtRp2051
(dp2052
g61
(dp2053
sg70
g2038
sg63
(lp2054
g56
(g57
g58
NtRp2055
(dp2056
g61
(dp2057
g69
I5
ssg70
g2051
sg63
(lp2058
g56
(g65
g58
NtRp2059
(dp2060
g61
(dp2061
g69
I4
ssg70
Nsg63
(lp2062
sbasbasbasbag56
(g72
g58
NtRp2063
(dp2064
g61
(dp2065
sg70
g66
sg63
(lp2066
g56
(g77
g58
NtRp2067
(dp2068
g61
(dp2069
g81
g82
ssg70
g2063
sg63
(lp2070
S'url'
p2071
asbag56
(g77
g58
NtRp2072
(dp2073
g61
(dp2074
g88
g89
ssg70
g2063
sg63
(lp2075
S':'
asbag56
(g77
g58
NtRp2076
(dp2077
g61
(dp2078
sg70
g2063
sg63
(lp2079
g56
(g57
g58
NtRp2080
(dp2081
g61
(dp2082
g69
I5
ssg70
g2076
sg63
(lp2083
S'/welcome/default/coming_soon'
p2084
asbasbasbag56
(g72
g58
NtRp2085
(dp2086
g61
(dp2087
sg70
g66
sg63
(lp2088
g56
(g77
g58
NtRp2089
(dp2090
g61
(dp2091
g81
g82
ssg70
g2085
sg63
(lp2092
S'utcnow'
p2093
asbag56
(g77
g58
NtRp2094
(dp2095
g61
(dp2096
g88
g89
ssg70
g2085
sg63
(lp2097
S':'
asbag56
(g77
g58
NtRp2098
(dp2099
g61
(dp2100
sg70
g2085
sg63
(lp2101
g56
(g57
g58
NtRp2102
(dp2103
g61
(dp2104
g69
I5
ssg70
g2098
sg63
(lp2105
S'datetime.datetime(2011, 9, 29, 0, 0, 50, 217808)'
p2106
asbasbasbag56
(g72
g58
NtRp2107
(dp2108
g61
(dp2109
sg70
g66
sg63
(lp2110
g56
(g77
g58
NtRp2111
(dp2112
g61
(dp2113
g81
g82
ssg70
g2107
sg63
(lp2114
S'uuid'
p2115
asbag56
(g77
g58
NtRp2116
(dp2117
g61
(dp2118
g88
g89
ssg70
g2107
sg63
(lp2119
S':'
asbag56
(g77
g58
NtRp2120
(dp2121
g61
(dp2122
sg70
g2107
sg63
(lp2123
g56
(g57
g58
NtRp2124
(dp2125
g61
(dp2126
g69
I5
ssg70
g2120
sg63
(lp2127
S'welcome/127.0.0.1.2011-09-28.17-00-50.176aadea-ace6-4095-8bc4-1a387e551bed'
p2128
asbasbasbag56
(g72
g58
NtRp2129
(dp2130
g61
(dp2131
sg70
g66
sg63
(lp2132
g56
(g77
g58
NtRp2133
(dp2134
g61
(dp2135
g81
g82
ssg70
g2129
sg63
(lp2136
S'vars'
p2137
asbag56
(g77
g58
NtRp2138
(dp2139
g61
(dp2140
g88
g89
ssg70
g2129
sg63
(lp2141
S':'
asbag56
(g77
g58
NtRp2142
(dp2143
g61
(dp2144
sg70
g2129
sg63
(lp2145
g56
(g57
g58
NtRp2146
(dp2147
g61
(dp2148
g69
I5
ssg70
g2142
sg63
(lp2149
g56
(g65
g58
NtRp2150
(dp2151
g61
(dp2152
g69
I4
ssg70
Nsg63
(lp2153
sbasbasbasbag56
(g72
g58
NtRp2154
(dp2155
g61
(dp2156
sg70
g66
sg63
(lp2157
g56
(g77
g58
NtRp2158
(dp2159
g61
(dp2160
g81
g82
ssg70
g2154
sg63
(lp2161
S'wsgi'
p2162
asbag56
(g77
g58
NtRp2163
(dp2164
g61
(dp2165
g88
g89
ssg70
g2154
sg63
(lp2166
S':'
asbag56
(g77
g58
NtRp2167
(dp2168
g61
(dp2169
sg70
g2154
sg63
(lp2170
g56
(g57
g58
NtRp2171
(dp2172
g61
(dp2173
g69
I5
ssg70
g2167
sg63
(lp2174
g56
(g65
g58
NtRp2175
(dp2176
g61
(dp2177
g69
I4
ssg70
Nsg63
(lp2178
g56
(g72
g58
NtRp2179
(dp2180
g61
(dp2181
sg70
g2175
sg63
(lp2182
g56
(g77
g58
NtRp2183
(dp2184
g61
(dp2185
g81
g82
ssg70
g2179
sg63
(lp2186
S'environ'
p2187
asbag56
(g77
g58
NtRp2188
(dp2189
g61
(dp2190
g88
g89
ssg70
g2179
sg63
(lp2191
S':'
asbag56
(g77
g58
NtRp2192
(dp2193
g61
(dp2194
sg70
g2179
sg63
(lp2195
g56
(g57
g58
NtRp2196
(dp2197
g61
(dp2198
g69
I4
ssg70
g2192
sg63
(lp2199
g56
(g65
g58
NtRp2200
(dp2201
g61
(dp2202
g69
I3
ssg70
Nsg63
(lp2203
g56
(g72
g58
NtRp2204
(dp2205
g61
(dp2206
sg70
g2200
sg63
(lp2207
g56
(g77
g58
NtRp2208
(dp2209
g61
(dp2210
g81
g82
ssg70
g2204
sg63
(lp2211
S'HTTP_ACCEPT'
p2212
asbag56
(g77
g58
NtRp2213
(dp2214
g61
(dp2215
g88
g89
ssg70
g2204
sg63
(lp2216
S':'
asbag56
(g77
g58
NtRp2217
(dp2218
g61
(dp2219
sg70
g2204
sg63
(lp2220
g56
(g57
g58
NtRp2221
(dp2222
g61
(dp2223
g69
I3
ssg70
g2217
sg63
(lp2224
g817
asbasbasbag56
(g72
g58
NtRp2225
(dp2226
g61
(dp2227
sg70
g2200
sg63
(lp2228
g56
(g77
g58
NtRp2229
(dp2230
g61
(dp2231
g81
g82
ssg70
g2225
sg63
(lp2232
S'HTTP_ACCEPT_CHARSET'
p2233
asbag56
(g77
g58
NtRp2234
(dp2235
g61
(dp2236
g88
g89
ssg70
g2225
sg63
(lp2237
S':'
asbag56
(g77
g58
NtRp2238
(dp2239
g61
(dp2240
sg70
g2225
sg63
(lp2241
g56
(g57
g58
NtRp2242
(dp2243
g61
(dp2244
g69
I3
ssg70
g2238
sg63
(lp2245
g839
asbasbasbag56
(g72
g58
NtRp2246
(dp2247
g61
(dp2248
sg70
g2200
sg63
(lp2249
g56
(g77
g58
NtRp2250
(dp2251
g61
(dp2252
g81
g82
ssg70
g2246
sg63
(lp2253
S'HTTP_ACCEPT_ENCODING'
p2254
asbag56
(g77
g58
NtRp2255
(dp2256
g61
(dp2257
g88
g89
ssg70
g2246
sg63
(lp2258
S':'
asbag56
(g77
g58
NtRp2259
(dp2260
g61
(dp2261
sg70
g2246
sg63
(lp2262
g56
(g57
g58
NtRp2263
(dp2264
g61
(dp2265
g69
I3
ssg70
g2259
sg63
(lp2266
g861
asbasbasbag56
(g72
g58
NtRp2267
(dp2268
g61
(dp2269
sg70
g2200
sg63
(lp2270
g56
(g77
g58
NtRp2271
(dp2272
g61
(dp2273
g81
g82
ssg70
g2267
sg63
(lp2274
S'HTTP_ACCEPT_LANGUAGE'
p2275
asbag56
(g77
g58
NtRp2276
(dp2277
g61
(dp2278
g88
g89
ssg70
g2267
sg63
(lp2279
S':'
asbag56
(g77
g58
NtRp2280
(dp2281
g61
(dp2282
sg70
g2267
sg63
(lp2283
g56
(g57
g58
NtRp2284
(dp2285
g61
(dp2286
g69
I3
ssg70
g2280
sg63
(lp2287
g883
asbasbasbag56
(g72
g58
NtRp2288
(dp2289
g61
(dp2290
sg70
g2200
sg63
(lp2291
g56
(g77
g58
NtRp2292
(dp2293
g61
(dp2294
g81
g82
ssg70
g2288
sg63
(lp2295
S'HTTP_CACHE_CONTROL'
p2296
asbag56
(g77
g58
NtRp2297
(dp2298
g61
(dp2299
g88
g89
ssg70
g2288
sg63
(lp2300
S':'
asbag56
(g77
g58
NtRp2301
(dp2302
g61
(dp2303
sg70
g2288
sg63
(lp2304
g56
(g57
g58
NtRp2305
(dp2306
g61
(dp2307
g69
I3
ssg70
g2301
sg63
(lp2308
g905
asbasbasbag56
(g72
g58
NtRp2309
(dp2310
g61
(dp2311
sg70
g2200
sg63
(lp2312
g56
(g77
g58
NtRp2313
(dp2314
g61
(dp2315
g81
g82
ssg70
g2309
sg63
(lp2316
S'HTTP_CONNECTION'
p2317
asbag56
(g77
g58
NtRp2318
(dp2319
g61
(dp2320
g88
g89
ssg70
g2309
sg63
(lp2321
S':'
asbag56
(g77
g58
NtRp2322
(dp2323
g61
(dp2324
sg70
g2309
sg63
(lp2325
g56
(g57
g58
NtRp2326
(dp2327
g61
(dp2328
g69
I3
ssg70
g2322
sg63
(lp2329
g927
asbasbasbag56
(g72
g58
NtRp2330
(dp2331
g61
(dp2332
sg70
g2200
sg63
(lp2333
g56
(g77
g58
NtRp2334
(dp2335
g61
(dp2336
g81
g82
ssg70
g2330
sg63
(lp2337
S'HTTP_COOKIE'
p2338
asbag56
(g77
g58
NtRp2339
(dp2340
g61
(dp2341
g88
g89
ssg70
g2330
sg63
(lp2342
S':'
asbag56
(g77
g58
NtRp2343
(dp2344
g61
(dp2345
sg70
g2330
sg63
(lp2346
g56
(g57
g58
NtRp2347
(dp2348
g61
(dp2349
g69
I3
ssg70
g2343
sg63
(lp2350
g949
asbasbasbag56
(g72
g58
NtRp2351
(dp2352
g61
(dp2353
sg70
g2200
sg63
(lp2354
g56
(g77
g58
NtRp2355
(dp2356
g61
(dp2357
g81
g82
ssg70
g2351
sg63
(lp2358
S'HTTP_HOST'
p2359
asbag56
(g77
g58
NtRp2360
(dp2361
g61
(dp2362
g88
g89
ssg70
g2351
sg63
(lp2363
S':'
asbag56
(g77
g58
NtRp2364
(dp2365
g61
(dp2366
sg70
g2351
sg63
(lp2367
g56
(g57
g58
NtRp2368
(dp2369
g61
(dp2370
g69
I3
ssg70
g2364
sg63
(lp2371
g971
asbasbasbag56
(g72
g58
NtRp2372
(dp2373
g61
(dp2374
sg70
g2200
sg63
(lp2375
g56
(g77
g58
NtRp2376
(dp2377
g61
(dp2378
g81
g82
ssg70
g2372
sg63
(lp2379
S'HTTP_USER_AGENT'
p2380
asbag56
(g77
g58
NtRp2381
(dp2382
g61
(dp2383
g88
g89
ssg70
g2372
sg63
(lp2384
S':'
asbag56
(g77
g58
NtRp2385
(dp2386
g61
(dp2387
sg70
g2372
sg63
(lp2388
g56
(g57
g58
NtRp2389
(dp2390
g61
(dp2391
g69
I3
ssg70
g2385
sg63
(lp2392
g993
asbasbasbag56
(g72
g58
NtRp2393
(dp2394
g61
(dp2395
sg70
g2200
sg63
(lp2396
g56
(g77
g58
NtRp2397
(dp2398
g61
(dp2399
g81
g82
ssg70
g2393
sg63
(lp2400
S'PATH_INFO'
p2401
asbag56
(g77
g58
NtRp2402
(dp2403
g61
(dp2404
g88
g89
ssg70
g2393
sg63
(lp2405
S':'
asbag56
(g77
g58
NtRp2406
(dp2407
g61
(dp2408
sg70
g2393
sg63
(lp2409
g56
(g57
g58
NtRp2410
(dp2411
g61
(dp2412
g69
I3
ssg70
g2406
sg63
(lp2413
g1036
asbasbasbag56
(g72
g58
NtRp2414
(dp2415
g61
(dp2416
sg70
g2200
sg63
(lp2417
g56
(g77
g58
NtRp2418
(dp2419
g61
(dp2420
g81
g82
ssg70
g2414
sg63
(lp2421
S'QUERY_STRING'
p2422
asbag56
(g77
g58
NtRp2423
(dp2424
g61
(dp2425
g88
g89
ssg70
g2414
sg63
(lp2426
S':'
asbag56
(g77
g58
NtRp2427
(dp2428
g61
(dp2429
sg70
g2414
sg63
(lp2430
g56
(g57
g58
NtRp2431
(dp2432
g61
(dp2433
g69
I3
ssg70
g2427
sg63
(lp2434
S''
asbasbasbag56
(g72
g58
NtRp2435
(dp2436
g61
(dp2437
sg70
g2200
sg63
(lp2438
g56
(g77
g58
NtRp2439
(dp2440
g61
(dp2441
g81
g82
ssg70
g2435
sg63
(lp2442
S'REMOTE_ADDR'
p2443
asbag56
(g77
g58
NtRp2444
(dp2445
g61
(dp2446
g88
g89
ssg70
g2435
sg63
(lp2447
S':'
asbag56
(g77
g58
NtRp2448
(dp2449
g61
(dp2450
sg70
g2435
sg63
(lp2451
g56
(g57
g58
NtRp2452
(dp2453
g61
(dp2454
g69
I3
ssg70
g2448
sg63
(lp2455
g189
asbasbasbag56
(g72
g58
NtRp2456
(dp2457
g61
(dp2458
sg70
g2200
sg63
(lp2459
g56
(g77
g58
NtRp2460
(dp2461
g61
(dp2462
g81
g82
ssg70
g2456
sg63
(lp2463
S'REMOTE_PORT'
p2464
asbag56
(g77
g58
NtRp2465
(dp2466
g61
(dp2467
g88
g89
ssg70
g2456
sg63
(lp2468
S':'
asbag56
(g77
g58
NtRp2469
(dp2470
g61
(dp2471
sg70
g2456
sg63
(lp2472
g56
(g57
g58
NtRp2473
(dp2474
g61
(dp2475
g69
I3
ssg70
g2469
sg63
(lp2476
g1100
asbasbasbag56
(g72
g58
NtRp2477
(dp2478
g61
(dp2479
sg70
g2200
sg63
(lp2480
g56
(g77
g58
NtRp2481
(dp2482
g61
(dp2483
g81
g82
ssg70
g2477
sg63
(lp2484
S'REQUEST_METHOD'
p2485
asbag56
(g77
g58
NtRp2486
(dp2487
g61
(dp2488
g88
g89
ssg70
g2477
sg63
(lp2489
S':'
asbag56
(g77
g58
NtRp2490
(dp2491
g61
(dp2492
sg70
g2477
sg63
(lp2493
g56
(g57
g58
NtRp2494
(dp2495
g61
(dp2496
g69
I3
ssg70
g2490
sg63
(lp2497
g1122
asbasbasbag56
(g72
g58
NtRp2498
(dp2499
g61
(dp2500
sg70
g2200
sg63
(lp2501
g56
(g77
g58
NtRp2502
(dp2503
g61
(dp2504
g81
g82
ssg70
g2498
sg63
(lp2505
S'SCRIPT_NAME'
p2506
asbag56
(g77
g58
NtRp2507
(dp2508
g61
(dp2509
g88
g89
ssg70
g2498
sg63
(lp2510
S':'
asbag56
(g77
g58
NtRp2511
(dp2512
g61
(dp2513
sg70
g2498
sg63
(lp2514
g56
(g57
g58
NtRp2515
(dp2516
g61
(dp2517
g69
I3
ssg70
g2511
sg63
(lp2518
S''
asbasbasbag56
(g72
g58
NtRp2519
(dp2520
g61
(dp2521
sg70
g2200
sg63
(lp2522
g56
(g77
g58
NtRp2523
(dp2524
g61
(dp2525
g81
g82
ssg70
g2519
sg63
(lp2526
S'SERVER_NAME'
p2527
asbag56
(g77
g58
NtRp2528
(dp2529
g61
(dp2530
g88
g89
ssg70
g2519
sg63
(lp2531
S':'
asbag56
(g77
g58
NtRp2532
(dp2533
g61
(dp2534
sg70
g2519
sg63
(lp2535
g56
(g57
g58
NtRp2536
(dp2537
g61
(dp2538
g69
I3
ssg70
g2532
sg63
(lp2539
g1165
asbasbasbag56
(g72
g58
NtRp2540
(dp2541
g61
(dp2542
sg70
g2200
sg63
(lp2543
g56
(g77
g58
NtRp2544
(dp2545
g61
(dp2546
g81
g82
ssg70
g2540
sg63
(lp2547
S'SERVER_PORT'
p2548
asbag56
(g77
g58
NtRp2549
(dp2550
g61
(dp2551
g88
g89
ssg70
g2540
sg63
(lp2552
S':'
asbag56
(g77
g58
NtRp2553
(dp2554
g61
(dp2555
sg70
g2540
sg63
(lp2556
g56
(g57
g58
NtRp2557
(dp2558
g61
(dp2559
g69
I3
ssg70
g2553
sg63
(lp2560
g1187
asbasbasbag56
(g72
g58
NtRp2561
(dp2562
g61
(dp2563
sg70
g2200
sg63
(lp2564
g56
(g77
g58
NtRp2565
(dp2566
g61
(dp2567
g81
g82
ssg70
g2561
sg63
(lp2568
S'SERVER_PROTOCOL'
p2569
asbag56
(g77
g58
NtRp2570
(dp2571
g61
(dp2572
g88
g89
ssg70
g2561
sg63
(lp2573
S':'
asbag56
(g77
g58
NtRp2574
(dp2575
g61
(dp2576
sg70
g2561
sg63
(lp2577
g56
(g57
g58
NtRp2578
(dp2579
g61
(dp2580
g69
I3
ssg70
g2574
sg63
(lp2581
g1209
asbasbasbag56
(g72
g58
NtRp2582
(dp2583
g61
(dp2584
sg70
g2200
sg63
(lp2585
g56
(g77
g58
NtRp2586
(dp2587
g61
(dp2588
g81
g82
ssg70
g2582
sg63
(lp2589
S'SERVER_SOFTWARE'
p2590
asbag56
(g77
g58
NtRp2591
(dp2592
g61
(dp2593
g88
g89
ssg70
g2582
sg63
(lp2594
S':'
asbag56
(g77
g58
NtRp2595
(dp2596
g61
(dp2597
sg70
g2582
sg63
(lp2598
g56
(g57
g58
NtRp2599
(dp2600
g61
(dp2601
g69
I3
ssg70
g2595
sg63
(lp2602
g1231
asbasbasbag56
(g72
g58
NtRp2603
(dp2604
g61
(dp2605
sg70
g2200
sg63
(lp2606
g56
(g77
g58
NtRp2607
(dp2608
g61
(dp2609
g81
g82
ssg70
g2603
sg63
(lp2610
S'wsgi.errors'
p2611
asbag56
(g77
g58
NtRp2612
(dp2613
g61
(dp2614
g88
g89
ssg70
g2603
sg63
(lp2615
S':'
asbag56
(g77
g58
NtRp2616
(dp2617
g61
(dp2618
sg70
g2603
sg63
(lp2619
g56
(g57
g58
NtRp2620
(dp2621
g61
(dp2622
g69
I3
ssg70
g2616
sg63
(lp2623
S"<open file '<stderr>', mode 'w' at 0x100416140>"
p2624
asbasbasbag56
(g72
g58
NtRp2625
(dp2626
g61
(dp2627
sg70
g2200
sg63
(lp2628
g56
(g77
g58
NtRp2629
(dp2630
g61
(dp2631
g81
g82
ssg70
g2625
sg63
(lp2632
S'wsgi.file_wrapper'
p2633
asbag56
(g77
g58
NtRp2634
(dp2635
g61
(dp2636
g88
g89
ssg70
g2625
sg63
(lp2637
S':'
asbag56
(g77
g58
NtRp2638
(dp2639
g61
(dp2640
sg70
g2625
sg63
(lp2641
g56
(g57
g58
NtRp2642
(dp2643
g61
(dp2644
g69
I3
ssg70
g2638
sg63
(lp2645
S'<class wsgiref.util.FileWrapper at 0x1014a1bf0>'
p2646
asbasbasbag56
(g72
g58
NtRp2647
(dp2648
g61
(dp2649
sg70
g2200
sg63
(lp2650
g56
(g77
g58
NtRp2651
(dp2652
g61
(dp2653
g81
g82
ssg70
g2647
sg63
(lp2654
S'wsgi.input'
p2655
asbag56
(g77
g58
NtRp2656
(dp2657
g61
(dp2658
g88
g89
ssg70
g2647
sg63
(lp2659
S':'
asbag56
(g77
g58
NtRp2660
(dp2661
g61
(dp2662
sg70
g2647
sg63
(lp2663
g56
(g57
g58
NtRp2664
(dp2665
g61
(dp2666
g69
I3
ssg70
g2660
sg63
(lp2667
S'<cStringIO.StringO object at 0x112dce4c8>'
p2668
asbasbasbag56
(g72
g58
NtRp2669
(dp2670
g61
(dp2671
sg70
g2200
sg63
(lp2672
g56
(g77
g58
NtRp2673
(dp2674
g61
(dp2675
g81
g82
ssg70
g2669
sg63
(lp2676
S'wsgi.multiprocess'
p2677
asbag56
(g77
g58
NtRp2678
(dp2679
g61
(dp2680
g88
g89
ssg70
g2669
sg63
(lp2681
S':'
asbag56
(g77
g58
NtRp2682
(dp2683
g61
(dp2684
sg70
g2669
sg63
(lp2685
g56
(g57
g58
NtRp2686
(dp2687
g61
(dp2688
g69
I3
ssg70
g2682
sg63
(lp2689
g99
asbasbasbag56
(g72
g58
NtRp2690
(dp2691
g61
(dp2692
sg70
g2200
sg63
(lp2693
g56
(g77
g58
NtRp2694
(dp2695
g61
(dp2696
g81
g82
ssg70
g2690
sg63
(lp2697
S'wsgi.multithread'
p2698
asbag56
(g77
g58
NtRp2699
(dp2700
g61
(dp2701
g88
g89
ssg70
g2690
sg63
(lp2702
S':'
asbag56
(g77
g58
NtRp2703
(dp2704
g61
(dp2705
sg70
g2690
sg63
(lp2706
g56
(g57
g58
NtRp2707
(dp2708
g61
(dp2709
g69
I3
ssg70
g2703
sg63
(lp2710
g1471
asbasbasbag56
(g72
g58
NtRp2711
(dp2712
g61
(dp2713
sg70
g2200
sg63
(lp2714
g56
(g77
g58
NtRp2715
(dp2716
g61
(dp2717
g81
g82
ssg70
g2711
sg63
(lp2718
S'wsgi.run_once'
p2719
asbag56
(g77
g58
NtRp2720
(dp2721
g61
(dp2722
g88
g89
ssg70
g2711
sg63
(lp2723
S':'
asbag56
(g77
g58
NtRp2724
(dp2725
g61
(dp2726
sg70
g2711
sg63
(lp2727
g56
(g57
g58
NtRp2728
(dp2729
g61
(dp2730
g69
I3
ssg70
g2724
sg63
(lp2731
g99
asbasbasbag56
(g72
g58
NtRp2732
(dp2733
g61
(dp2734
sg70
g2200
sg63
(lp2735
g56
(g77
g58
NtRp2736
(dp2737
g61
(dp2738
g81
g82
ssg70
g2732
sg63
(lp2739
S'wsgi.url_scheme'
p2740
asbag56
(g77
g58
NtRp2741
(dp2742
g61
(dp2743
g88
g89
ssg70
g2732
sg63
(lp2744
S':'
asbag56
(g77
g58
NtRp2745
(dp2746
g61
(dp2747
sg70
g2732
sg63
(lp2748
g56
(g57
g58
NtRp2749
(dp2750
g61
(dp2751
g69
I3
ssg70
g2745
sg63
(lp2752
g1514
asbasbasbag56
(g72
g58
NtRp2753
(dp2754
g61
(dp2755
sg70
g2200
sg63
(lp2756
g56
(g77
g58
NtRp2757
(dp2758
g61
(dp2759
g81
g82
ssg70
g2753
sg63
(lp2760
S'wsgi.version'
p2761
asbag56
(g77
g58
NtRp2762
(dp2763
g61
(dp2764
g88
g89
ssg70
g2753
sg63
(lp2765
S':'
asbag56
(g77
g58
NtRp2766
(dp2767
g61
(dp2768
sg70
g2753
sg63
(lp2769
g56
(g57
g58
NtRp2770
(dp2771
g61
(dp2772
g69
I3
ssg70
g2766
sg63
(lp2773
S'1'
asbasbasbasbasbasbasbasbasbasbasbasbasbsS'frames'
p2774
(lp2775
(dp2776
S'file'
p2777
S'/Users/excon/Sites/dreamscape/gluon/restricted.py'
p2778
sS'dump'
p2779
(dp2780
S'environment'
p2781
S"{'A': <class 'gluon.html.A'>, 'Auth': <class 'gluon.tools.Auth'>, 'B': <class 'gluon.html.B'>, 'BEAUTIFY': <class 'gluon.html.BEAUTIFY'>, 'BODY': <class 'gluon.html.BODY'>, 'BR': <class 'gluon.html.BR'>, 'BUTTON': <class 'gluon.html.BUTTON'>, 'CAT': <class 'gluon.html.CAT'>, 'CENTER': <class 'gluon.html.CENTER'>, 'CLEANUP': <class 'gluon.validators.CLEANUP'>, ...}"
p2782
sS'ccode'
p2783
S'<code object <module> at 0x10101d648, file "/Use...cations/welcome/controllers/default.py", line 12>'
p2784
ssS'lnum'
p2785
I194
sS'lines'
p2786
(dp2787
I192
S'        else:'
p2788
sI193
S'            ccode = compile2(code,layer)'
p2789
sI194
S'        exec ccode in environment'
p2790
sI195
S'    except HTTP:'
p2791
sI196
S'        raise'
p2792
sI197
S'    except Exception, error:'
p2793
sI198
S'        # XXX Show exception in Wing IDE if running in debugger'
p2794
sI189
S'    try:'
p2795
sI190
S'        if type(code) == types.CodeType:'
p2796
sI191
S'            ccode = code'
p2797
ssS'call'
p2798
S"(code='# -*- coding: utf-8 -*-\\n# this file is released ...))\\n\\nresponse._vars=response._caller(coming_soon)\\n', environment={'A': <class 'gluon.html.A'>, 'Auth': <class 'gluon.tools.Auth'>, 'B': <class 'gluon.html.B'>, 'BEAUTIFY': <class 'gluon.html.BEAUTIFY'>, 'BODY': <class 'gluon.html.BODY'>, 'BR': <class 'gluon.html.BR'>, 'BUTTON': <class 'gluon.html.BUTTON'>, 'CAT': <class 'gluon.html.CAT'>, 'CENTER': <class 'gluon.html.CENTER'>, 'CLEANUP': <class 'gluon.validators.CLEANUP'>, ...}, layer='/Users/excon/Sites/dreamscape/applications/welcome/controllers/default.py')"
p2799
sS'func'
p2800
S'restricted'
p2801
sa(dp2802
g2777
S'/Users/excon/Sites/dreamscape/applications/welcome/controllers/default.py'
p2803
sg2779
(dp2804
sg2785
I88
sg2786
(dp2805
I77
S'    http://..../[app]/default/data/update/[table]/[id]'
p2806
sI78
S'    http://..../[app]/default/data/delete/[table]/[id]'
p2807
sI79
S'    http://..../[app]/default/data/select/[table]'
p2808
sI80
S'    http://..../[app]/default/data/search/[table]'
p2809
sI81
S'    but URLs bust be signed, i.e. linked with'
p2810
sI82
S"      A('table',_href=URL('data/tables',user_signature=True))"
p2811
sI83
S'    or with the signed load operator'
p2812
sI84
S"      LOAD('default','data.load',args='tables',ajax=True,user_signature=True)"
p2813
sI85
S'    """'
p2814
sI86
S'    return dict(form=crud())'
p2815
ssg2798
S'()'
p2816
sg2800
S'<module>'
p2817
sa(dp2818
g2777
S'/Users/excon/Sites/dreamscape/gluon/globals.py'
p2819
sg2779
(dp2820
S'self'
p2821
S'undefined'
p2822
sS'f'
S'<function coming_soon at 0x10101dc08>'
p2823
ssg2785
I149
sg2786
(dp2824
I144
S'        self.meta = Storage()      # used by web2py_ajax.html'
p2825
sI145
S'        self.menu = []             # used by the default view layout'
p2826
sI146
S'        self.files = []            # used by web2py_ajax.html'
p2827
sI147
S'        self.generic_patterns = [] # patterns to allow generic views'
p2828
sI148
S'        self._vars = None'
p2829
sI149
S'        self._caller = lambda f: f()'
p2830
sI150
S'        self._view_environment = None'
p2831
sI151
S'        self._custom_commit = None'
p2832
sI152
S'        self._custom_rollback = None'
p2833
sI153
S''
ssg2798
S'(f=<function coming_soon at 0x10101dc08>)'
p2834
sg2800
S'<lambda>'
p2835
sa(dp2836
g2777
S'/Users/excon/Sites/dreamscape/applications/welcome/controllers/default.py'
p2837
sg2779
(dp2838
S'ddb'
p2839
g2822
sS'builtinFalse'
p2840
g99
ssg2785
I24
sg2786
(dp2841
I19
S'    if COMING_SOON:'
p2842
sI20
S"        redirect(URL(r=request, f='coming_soon'))"
p2843
sI21
S'    return dict()'
p2844
sI22
S''
sI23
S'def coming_soon():'
p2845
sI24
S'    ddb.invitation.writeable = False'
p2846
sI25
S'    form = SQLFORM.factory(db.invitation)'
p2847
sI26
S''
sI27
S'    if form.process().accepted:'
p2848
sI28
S"        response.flash = 'You have wonderful dreams!'"
p2849
ssg2798
S'()'
p2850
sg2800
S'coming_soon'
p2851
sasS'pyver'
p2852
S'Python 2.6.1: /usr/bin/python'
p2853
sS'session'
p2854
g56
(g57
g58
NtRp2855
(dp2856
g61
(dp2857
sg63
(lp2858
g56
(g65
g58
NtRp2859
(dp2860
g61
(dp2861
g69
I5
ssg70
Nsg63
(lp2862
sbasbsS'etype'
p2863
S"<type 'exceptions.NameError'>"
p2864
sS'date'
p2865
S'Wed Sep 28 17:00:50 2011'
p2866
sS'response'
p2867
g56
(g57
g58
NtRp2868
(dp2869
g61
(dp2870
sg63
(lp2871
g56
(g65
g58
NtRp2872
(dp2873
g61
(dp2874
g69
I5
ssg70
Nsg63
(lp2875
g56
(g72
g58
NtRp2876
(dp2877
g61
(dp2878
sg70
g2872
sg63
(lp2879
g56
(g77
g58
NtRp2880
(dp2881
g61
(dp2882
g81
g82
ssg70
g2876
sg63
(lp2883
g154
asbag56
(g77
g58
NtRp2884
(dp2885
g61
(dp2886
g88
g89
ssg70
g2876
sg63
(lp2887
S':'
asbag56
(g77
g58
NtRp2888
(dp2889
g61
(dp2890
sg70
g2876
sg63
(lp2891
g56
(g57
g58
NtRp2892
(dp2893
g61
(dp2894
g69
I5
ssg70
g2888
sg63
(lp2895
S'<cStringIO.StringO object at 0x10102d340>'
p2896
asbasbasbag56
(g72
g58
NtRp2897
(dp2898
g61
(dp2899
sg70
g2872
sg63
(lp2900
g56
(g77
g58
NtRp2901
(dp2902
g61
(dp2903
g81
g82
ssg70
g2897
sg63
(lp2904
g220
asbag56
(g77
g58
NtRp2905
(dp2906
g61
(dp2907
g88
g89
ssg70
g2897
sg63
(lp2908
S':'
asbag56
(g77
g58
NtRp2909
(dp2910
g61
(dp2911
sg70
g2897
sg63
(lp2912
g56
(g57
g58
NtRp2913
(dp2914
g61
(dp2915
g69
I5
ssg70
g2909
sg63
(lp2916
g56
(g65
g58
NtRp2917
(dp2918
g61
(dp2919
g69
I4
ssg70
Nsg63
(lp2920
g56
(g72
g58
NtRp2921
(dp2922
g61
(dp2923
sg70
g2917
sg63
(lp2924
g56
(g77
g58
NtRp2925
(dp2926
g61
(dp2927
g81
g82
ssg70
g2921
sg63
(lp2928
S'session_id_welcome'
p2929
asbag56
(g77
g58
NtRp2930
(dp2931
g61
(dp2932
g88
g89
ssg70
g2921
sg63
(lp2933
S':'
asbag56
(g77
g58
NtRp2934
(dp2935
g61
(dp2936
sg70
g2921
sg63
(lp2937
g56
(g57
g58
NtRp2938
(dp2939
g61
(dp2940
g69
I4
ssg70
g2934
sg63
(lp2941
g56
(g65
g58
NtRp2942
(dp2943
g61
(dp2944
g69
I3
ssg70
Nsg63
(lp2945
g56
(g72
g58
NtRp2946
(dp2947
g61
(dp2948
sg70
g2942
sg63
(lp2949
g56
(g77
g58
NtRp2950
(dp2951
g61
(dp2952
g81
g82
ssg70
g2946
sg63
(lp2953
g270
asbag56
(g77
g58
NtRp2954
(dp2955
g61
(dp2956
g88
g89
ssg70
g2946
sg63
(lp2957
S':'
asbag56
(g77
g58
NtRp2958
(dp2959
g61
(dp2960
sg70
g2946
sg63
(lp2961
g56
(g57
g58
NtRp2962
(dp2963
g61
(dp2964
g69
I3
ssg70
g2958
sg63
(lp2965
S''
asbasbasbag56
(g72
g58
NtRp2966
(dp2967
g61
(dp2968
sg70
g2942
sg63
(lp2969
g56
(g77
g58
NtRp2970
(dp2971
g61
(dp2972
g81
g82
ssg70
g2966
sg63
(lp2973
g291
asbag56
(g77
g58
NtRp2974
(dp2975
g61
(dp2976
g88
g89
ssg70
g2966
sg63
(lp2977
S':'
asbag56
(g77
g58
NtRp2978
(dp2979
g61
(dp2980
sg70
g2966
sg63
(lp2981
g56
(g57
g58
NtRp2982
(dp2983
g61
(dp2984
g69
I3
ssg70
g2978
sg63
(lp2985
S''
asbasbasbag56
(g72
g58
NtRp2986
(dp2987
g61
(dp2988
sg70
g2942
sg63
(lp2989
g56
(g77
g58
NtRp2990
(dp2991
g61
(dp2992
g81
g82
ssg70
g2986
sg63
(lp2993
g312
asbag56
(g77
g58
NtRp2994
(dp2995
g61
(dp2996
g88
g89
ssg70
g2986
sg63
(lp2997
S':'
asbag56
(g77
g58
NtRp2998
(dp2999
g61
(dp3000
sg70
g2986
sg63
(lp3001
g56
(g57
g58
NtRp3002
(dp3003
g61
(dp3004
g69
I3
ssg70
g2998
sg63
(lp3005
S''
asbasbasbag56
(g72
g58
NtRp3006
(dp3007
g61
(dp3008
sg70
g2942
sg63
(lp3009
g56
(g77
g58
NtRp3010
(dp3011
g61
(dp3012
g81
g82
ssg70
g3006
sg63
(lp3013
g333
asbag56
(g77
g58
NtRp3014
(dp3015
g61
(dp3016
g88
g89
ssg70
g3006
sg63
(lp3017
S':'
asbag56
(g77
g58
NtRp3018
(dp3019
g61
(dp3020
sg70
g3006
sg63
(lp3021
g56
(g57
g58
NtRp3022
(dp3023
g61
(dp3024
g69
I3
ssg70
g3018
sg63
(lp3025
S''
asbasbasbag56
(g72
g58
NtRp3026
(dp3027
g61
(dp3028
sg70
g2942
sg63
(lp3029
g56
(g77
g58
NtRp3030
(dp3031
g61
(dp3032
g81
g82
ssg70
g3026
sg63
(lp3033
g354
asbag56
(g77
g58
NtRp3034
(dp3035
g61
(dp3036
g88
g89
ssg70
g3026
sg63
(lp3037
S':'
asbag56
(g77
g58
NtRp3038
(dp3039
g61
(dp3040
sg70
g3026
sg63
(lp3041
g56
(g57
g58
NtRp3042
(dp3043
g61
(dp3044
g69
I3
ssg70
g3038
sg63
(lp3045
S''
asbasbasbag56
(g72
g58
NtRp3046
(dp3047
g61
(dp3048
sg70
g2942
sg63
(lp3049
g56
(g77
g58
NtRp3050
(dp3051
g61
(dp3052
g81
g82
ssg70
g3046
sg63
(lp3053
g375
asbag56
(g77
g58
NtRp3054
(dp3055
g61
(dp3056
g88
g89
ssg70
g3046
sg63
(lp3057
S':'
asbag56
(g77
g58
NtRp3058
(dp3059
g61
(dp3060
sg70
g3046
sg63
(lp3061
g56
(g57
g58
NtRp3062
(dp3063
g61
(dp3064
g69
I3
ssg70
g3058
sg63
(lp3065
S'/'
asbasbasbag56
(g72
g58
NtRp3066
(dp3067
g61
(dp3068
sg70
g2942
sg63
(lp3069
g56
(g77
g58
NtRp3070
(dp3071
g61
(dp3072
g81
g82
ssg70
g3066
sg63
(lp3073
g396
asbag56
(g77
g58
NtRp3074
(dp3075
g61
(dp3076
g88
g89
ssg70
g3066
sg63
(lp3077
S':'
asbag56
(g77
g58
NtRp3078
(dp3079
g61
(dp3080
sg70
g3066
sg63
(lp3081
g56
(g57
g58
NtRp3082
(dp3083
g61
(dp3084
g69
I3
ssg70
g3078
sg63
(lp3085
S''
asbasbasbag56
(g72
g58
NtRp3086
(dp3087
g61
(dp3088
sg70
g2942
sg63
(lp3089
g56
(g77
g58
NtRp3090
(dp3091
g61
(dp3092
g81
g82
ssg70
g3086
sg63
(lp3093
g417
asbag56
(g77
g58
NtRp3094
(dp3095
g61
(dp3096
g88
g89
ssg70
g3086
sg63
(lp3097
S':'
asbag56
(g77
g58
NtRp3098
(dp3099
g61
(dp3100
sg70
g3086
sg63
(lp3101
g56
(g57
g58
NtRp3102
(dp3103
g61
(dp3104
g69
I3
ssg70
g3098
sg63
(lp3105
S''
asbasbasbasbasbasbasbasbasbasbasbag56
(g72
g58
NtRp3106
(dp3107
g61
(dp3108
sg70
g2872
sg63
(lp3109
g56
(g77
g58
NtRp3110
(dp3111
g61
(dp3112
g81
g82
ssg70
g3106
sg63
(lp3113
S'files'
p3114
asbag56
(g77
g58
NtRp3115
(dp3116
g61
(dp3117
g88
g89
ssg70
g3106
sg63
(lp3118
S':'
asbag56
(g77
g58
NtRp3119
(dp3120
g61
(dp3121
sg70
g3106
sg63
(lp3122
g56
(g57
g58
NtRp3123
(dp3124
g61
(dp3125
g69
I5
ssg70
g3119
sg63
(lp3126
g56
(g65
g58
NtRp3127
(dp3128
g61
(dp3129
g69
I4
ssg70
Nsg63
(lp3130
sbasbasbasbag56
(g72
g58
NtRp3131
(dp3132
g61
(dp3133
sg70
g2872
sg63
(lp3134
g56
(g77
g58
NtRp3135
(dp3136
g61
(dp3137
g81
g82
ssg70
g3131
sg63
(lp3138
S'flash'
p3139
asbag56
(g77
g58
NtRp3140
(dp3141
g61
(dp3142
g88
g89
ssg70
g3131
sg63
(lp3143
S':'
asbag56
(g77
g58
NtRp3144
(dp3145
g61
(dp3146
sg70
g3131
sg63
(lp3147
g56
(g57
g58
NtRp3148
(dp3149
g61
(dp3150
g69
I5
ssg70
g3144
sg63
(lp3151
S''
asbasbasbag56
(g72
g58
NtRp3152
(dp3153
g61
(dp3154
sg70
g2872
sg63
(lp3155
g56
(g77
g58
NtRp3156
(dp3157
g61
(dp3158
g81
g82
ssg70
g3152
sg63
(lp3159
S'generic_patterns'
p3160
asbag56
(g77
g58
NtRp3161
(dp3162
g61
(dp3163
g88
g89
ssg70
g3152
sg63
(lp3164
S':'
asbag56
(g77
g58
NtRp3165
(dp3166
g61
(dp3167
sg70
g3152
sg63
(lp3168
g56
(g57
g58
NtRp3169
(dp3170
g61
(dp3171
g69
I5
ssg70
g3165
sg63
(lp3172
g56
(g65
g58
NtRp3173
(dp3174
g61
(dp3175
g69
I4
ssg70
Nsg63
(lp3176
g56
(g72
g58
NtRp3177
(dp3178
g61
(dp3179
sg70
g3173
sg63
(lp3180
g56
(g77
g58
NtRp3181
(dp3182
g61
(dp3183
sg70
g3177
sg63
(lp3184
g56
(g57
g58
NtRp3185
(dp3186
g61
(dp3187
g69
I4
ssg70
g3181
sg63
(lp3188
S'*'
asbasbasbasbasbasbasbag56
(g72
g58
NtRp3189
(dp3190
g61
(dp3191
sg70
g2872
sg63
(lp3192
g56
(g77
g58
NtRp3193
(dp3194
g61
(dp3195
g81
g82
ssg70
g3189
sg63
(lp3196
S'headers'
p3197
asbag56
(g77
g58
NtRp3198
(dp3199
g61
(dp3200
g88
g89
ssg70
g3189
sg63
(lp3201
S':'
asbag56
(g77
g58
NtRp3202
(dp3203
g61
(dp3204
sg70
g3189
sg63
(lp3205
g56
(g57
g58
NtRp3206
(dp3207
g61
(dp3208
g69
I5
ssg70
g3202
sg63
(lp3209
g56
(g65
g58
NtRp3210
(dp3211
g61
(dp3212
g69
I4
ssg70
Nsg63
(lp3213
g56
(g72
g58
NtRp3214
(dp3215
g61
(dp3216
sg70
g3210
sg63
(lp3217
g56
(g77
g58
NtRp3218
(dp3219
g61
(dp3220
g81
g82
ssg70
g3214
sg63
(lp3221
S'Cache-Control'
p3222
asbag56
(g77
g58
NtRp3223
(dp3224
g61
(dp3225
g88
g89
ssg70
g3214
sg63
(lp3226
S':'
asbag56
(g77
g58
NtRp3227
(dp3228
g61
(dp3229
sg70
g3214
sg63
(lp3230
g56
(g57
g58
NtRp3231
(dp3232
g61
(dp3233
g69
I4
ssg70
g3227
sg63
(lp3234
S'no-store, no-cache, must-revalidate, post-check=0, pre-check=0'
p3235
asbasbasbag56
(g72
g58
NtRp3236
(dp3237
g61
(dp3238
sg70
g3210
sg63
(lp3239
g56
(g77
g58
NtRp3240
(dp3241
g61
(dp3242
g81
g82
ssg70
g3236
sg63
(lp3243
S'Content-Type'
p3244
asbag56
(g77
g58
NtRp3245
(dp3246
g61
(dp3247
g88
g89
ssg70
g3236
sg63
(lp3248
S':'
asbag56
(g77
g58
NtRp3249
(dp3250
g61
(dp3251
sg70
g3236
sg63
(lp3252
g56
(g57
g58
NtRp3253
(dp3254
g61
(dp3255
g69
I4
ssg70
g3249
sg63
(lp3256
S'text/html; charset=utf-8'
p3257
asbasbasbag56
(g72
g58
NtRp3258
(dp3259
g61
(dp3260
sg70
g3210
sg63
(lp3261
g56
(g77
g58
NtRp3262
(dp3263
g61
(dp3264
g81
g82
ssg70
g3258
sg63
(lp3265
S'Expires'
p3266
asbag56
(g77
g58
NtRp3267
(dp3268
g61
(dp3269
g88
g89
ssg70
g3258
sg63
(lp3270
S':'
asbag56
(g77
g58
NtRp3271
(dp3272
g61
(dp3273
sg70
g3258
sg63
(lp3274
g56
(g57
g58
NtRp3275
(dp3276
g61
(dp3277
g69
I4
ssg70
g3271
sg63
(lp3278
S'Thu, 29 Sep 2011 00:00:50 GMT'
p3279
asbasbasbag56
(g72
g58
NtRp3280
(dp3281
g61
(dp3282
sg70
g3210
sg63
(lp3283
g56
(g77
g58
NtRp3284
(dp3285
g61
(dp3286
g81
g82
ssg70
g3280
sg63
(lp3287
S'Pragma'
p3288
asbag56
(g77
g58
NtRp3289
(dp3290
g61
(dp3291
g88
g89
ssg70
g3280
sg63
(lp3292
S':'
asbag56
(g77
g58
NtRp3293
(dp3294
g61
(dp3295
sg70
g3280
sg63
(lp3296
g56
(g57
g58
NtRp3297
(dp3298
g61
(dp3299
g69
I4
ssg70
g3293
sg63
(lp3300
S'no-cache'
p3301
asbasbasbag56
(g72
g58
NtRp3302
(dp3303
g61
(dp3304
sg70
g3210
sg63
(lp3305
g56
(g77
g58
NtRp3306
(dp3307
g61
(dp3308
g81
g82
ssg70
g3302
sg63
(lp3309
S'X-Powered-By'
p3310
asbag56
(g77
g58
NtRp3311
(dp3312
g61
(dp3313
g88
g89
ssg70
g3302
sg63
(lp3314
S':'
asbag56
(g77
g58
NtRp3315
(dp3316
g61
(dp3317
sg70
g3302
sg63
(lp3318
g56
(g57
g58
NtRp3319
(dp3320
g61
(dp3321
g69
I4
ssg70
g3315
sg63
(lp3322
S'web2py'
p3323
asbasbasbasbasbasbasbag56
(g72
g58
NtRp3324
(dp3325
g61
(dp3326
sg70
g2872
sg63
(lp3327
g56
(g77
g58
NtRp3328
(dp3329
g61
(dp3330
g81
g82
ssg70
g3324
sg63
(lp3331
S'menu'
p3332
asbag56
(g77
g58
NtRp3333
(dp3334
g61
(dp3335
g88
g89
ssg70
g3324
sg63
(lp3336
S':'
asbag56
(g77
g58
NtRp3337
(dp3338
g61
(dp3339
sg70
g3324
sg63
(lp3340
g56
(g57
g58
NtRp3341
(dp3342
g61
(dp3343
g69
I5
ssg70
g3337
sg63
(lp3344
g56
(g65
g58
NtRp3345
(dp3346
g61
(dp3347
g69
I4
ssg70
Nsg63
(lp3348
g56
(g72
g58
NtRp3349
(dp3350
g61
(dp3351
sg70
g3345
sg63
(lp3352
g56
(g77
g58
NtRp3353
(dp3354
g61
(dp3355
sg70
g3349
sg63
(lp3356
g56
(g57
g58
NtRp3357
(dp3358
g61
(dp3359
g69
I4
ssg70
g3353
sg63
(lp3360
g56
(g65
g58
NtRp3361
(dp3362
g61
(dp3363
g69
I3
ssg70
Nsg63
(lp3364
g56
(g72
g58
NtRp3365
(dp3366
g61
(dp3367
sg70
g3361
sg63
(lp3368
g56
(g77
g58
NtRp3369
(dp3370
g61
(dp3371
sg70
g3365
sg63
(lp3372
g56
(g57
g58
NtRp3373
(dp3374
g61
(dp3375
g69
I3
ssg70
g3369
sg63
(lp3376
cgluon.languages
lazyT_unpickle
p3377
(S's\x04\x00\x00\x00Home'
tRp3378
asbasbasbag56
(g72
g58
NtRp3379
(dp3380
g61
(dp3381
sg70
g3361
sg63
(lp3382
g56
(g77
g58
NtRp3383
(dp3384
g61
(dp3385
sg70
g3379
sg63
(lp3386
g56
(g57
g58
NtRp3387
(dp3388
g61
(dp3389
g69
I3
ssg70
g3383
sg63
(lp3390
g99
asbasbasbag56
(g72
g58
NtRp3391
(dp3392
g61
(dp3393
sg70
g3361
sg63
(lp3394
g56
(g77
g58
NtRp3395
(dp3396
g61
(dp3397
sg70
g3391
sg63
(lp3398
g56
(g57
g58
NtRp3399
(dp3400
g61
(dp3401
g69
I3
ssg70
g3395
sg63
(lp3402
S'/welcome/default/index'
p3403
asbasbasbag56
(g72
g58
NtRp3404
(dp3405
g61
(dp3406
sg70
g3361
sg63
(lp3407
g56
(g77
g58
NtRp3408
(dp3409
g61
(dp3410
sg70
g3404
sg63
(lp3411
g56
(g57
g58
NtRp3412
(dp3413
g61
(dp3414
g69
I3
ssg70
g3408
sg63
(lp3415
g56
(g65
g58
NtRp3416
(dp3417
g61
(dp3418
g69
I2
ssg70
Nsg63
(lp3419
sbasbasbasbasbasbasbasbag56
(g72
g58
NtRp3420
(dp3421
g61
(dp3422
sg70
g3345
sg63
(lp3423
g56
(g77
g58
NtRp3424
(dp3425
g61
(dp3426
sg70
g3420
sg63
(lp3427
g56
(g57
g58
NtRp3428
(dp3429
g61
(dp3430
g69
I4
ssg70
g3424
sg63
(lp3431
g56
(g65
g58
NtRp3432
(dp3433
g61
(dp3434
g69
I3
ssg70
Nsg63
(lp3435
g56
(g72
g58
NtRp3436
(dp3437
g61
(dp3438
sg70
g3432
sg63
(lp3439
g56
(g77
g58
NtRp3440
(dp3441
g61
(dp3442
sg70
g3436
sg63
(lp3443
g56
(g57
g58
NtRp3444
(dp3445
g61
(dp3446
g69
I3
ssg70
g3440
sg63
(lp3447
g3377
(S's\x08\x00\x00\x00This App'
tRp3448
asbasbasbag56
(g72
g58
NtRp3449
(dp3450
g61
(dp3451
sg70
g3432
sg63
(lp3452
g56
(g77
g58
NtRp3453
(dp3454
g61
(dp3455
sg70
g3449
sg63
(lp3456
g56
(g57
g58
NtRp3457
(dp3458
g61
(dp3459
g69
I3
ssg70
g3453
sg63
(lp3460
g99
asbasbasbag56
(g72
g58
NtRp3461
(dp3462
g61
(dp3463
sg70
g3432
sg63
(lp3464
g56
(g77
g58
NtRp3465
(dp3466
g61
(dp3467
sg70
g3461
sg63
(lp3468
g56
(g57
g58
NtRp3469
(dp3470
g61
(dp3471
g69
I3
ssg70
g3465
sg63
(lp3472
S'/admin/default/design/welcome'
p3473
asbasbasbag56
(g72
g58
NtRp3474
(dp3475
g61
(dp3476
sg70
g3432
sg63
(lp3477
g56
(g77
g58
NtRp3478
(dp3479
g61
(dp3480
sg70
g3474
sg63
(lp3481
g56
(g57
g58
NtRp3482
(dp3483
g61
(dp3484
g69
I3
ssg70
g3478
sg63
(lp3485
g56
(g65
g58
NtRp3486
(dp3487
g61
(dp3488
g69
I2
ssg70
Nsg63
(lp3489
g56
(g72
g58
NtRp3490
(dp3491
g61
(dp3492
sg70
g3486
sg63
(lp3493
g56
(g77
g58
NtRp3494
(dp3495
g61
(dp3496
sg70
g3490
sg63
(lp3497
g56
(g57
g58
NtRp3498
(dp3499
g61
(dp3500
g69
I2
ssg70
g3494
sg63
(lp3501
g56
(g65
g58
NtRp3502
(dp3503
g61
(dp3504
g69
I1
ssg70
Nsg63
(lp3505
g56
(g72
g58
NtRp3506
(dp3507
g61
(dp3508
sg70
g3502
sg63
(lp3509
g56
(g77
g58
NtRp3510
(dp3511
g61
(dp3512
sg70
g3506
sg63
(lp3513
g56
(g57
g58
NtRp3514
(dp3515
g61
(dp3516
g69
I1
ssg70
g3510
sg63
(lp3517
g3377
(S's\n\x00\x00\x00Controller'
tRp3518
asbasbasbag56
(g72
g58
NtRp3519
(dp3520
g61
(dp3521
sg70
g3502
sg63
(lp3522
g56
(g77
g58
NtRp3523
(dp3524
g61
(dp3525
sg70
g3519
sg63
(lp3526
g56
(g57
g58
NtRp3527
(dp3528
g61
(dp3529
g69
I1
ssg70
g3523
sg63
(lp3530
I00
asbasbasbag56
(g72
g58
NtRp3531
(dp3532
g61
(dp3533
sg70
g3502
sg63
(lp3534
g56
(g77
g58
NtRp3535
(dp3536
g61
(dp3537
sg70
g3531
sg63
(lp3538
g56
(g57
g58
NtRp3539
(dp3540
g61
(dp3541
g69
I1
ssg70
g3535
sg63
(lp3542
S'/admin/default/edit/welcome/controllers/default.py'
p3543
asbasbasbasbasbasbasbag56
(g72
g58
NtRp3544
(dp3545
g61
(dp3546
sg70
g3486
sg63
(lp3547
g56
(g77
g58
NtRp3548
(dp3549
g61
(dp3550
sg70
g3544
sg63
(lp3551
g56
(g57
g58
NtRp3552
(dp3553
g61
(dp3554
g69
I2
ssg70
g3548
sg63
(lp3555
g56
(g65
g58
NtRp3556
(dp3557
g61
(dp3558
g69
I1
ssg70
Nsg63
(lp3559
g56
(g72
g58
NtRp3560
(dp3561
g61
(dp3562
sg70
g3556
sg63
(lp3563
g56
(g77
g58
NtRp3564
(dp3565
g61
(dp3566
sg70
g3560
sg63
(lp3567
g56
(g57
g58
NtRp3568
(dp3569
g61
(dp3570
g69
I1
ssg70
g3564
sg63
(lp3571
g3377
(S's\x04\x00\x00\x00View'
tRp3572
asbasbasbag56
(g72
g58
NtRp3573
(dp3574
g61
(dp3575
sg70
g3556
sg63
(lp3576
g56
(g77
g58
NtRp3577
(dp3578
g61
(dp3579
sg70
g3573
sg63
(lp3580
g56
(g57
g58
NtRp3581
(dp3582
g61
(dp3583
g69
I1
ssg70
g3577
sg63
(lp3584
I00
asbasbasbag56
(g72
g58
NtRp3585
(dp3586
g61
(dp3587
sg70
g3556
sg63
(lp3588
g56
(g77
g58
NtRp3589
(dp3590
g61
(dp3591
sg70
g3585
sg63
(lp3592
g56
(g57
g58
NtRp3593
(dp3594
g61
(dp3595
g69
I1
ssg70
g3589
sg63
(lp3596
S'/admin/default/edit/welcome/views/default/coming_soon.html'
p3597
asbasbasbasbasbasbasbag56
(g72
g58
NtRp3598
(dp3599
g61
(dp3600
sg70
g3486
sg63
(lp3601
g56
(g77
g58
NtRp3602
(dp3603
g61
(dp3604
sg70
g3598
sg63
(lp3605
g56
(g57
g58
NtRp3606
(dp3607
g61
(dp3608
g69
I2
ssg70
g3602
sg63
(lp3609
g56
(g65
g58
NtRp3610
(dp3611
g61
(dp3612
g69
I1
ssg70
Nsg63
(lp3613
g56
(g72
g58
NtRp3614
(dp3615
g61
(dp3616
sg70
g3610
sg63
(lp3617
g56
(g77
g58
NtRp3618
(dp3619
g61
(dp3620
sg70
g3614
sg63
(lp3621
g56
(g57
g58
NtRp3622
(dp3623
g61
(dp3624
g69
I1
ssg70
g3618
sg63
(lp3625
g3377
(S's\x06\x00\x00\x00Layout'
tRp3626
asbasbasbag56
(g72
g58
NtRp3627
(dp3628
g61
(dp3629
sg70
g3610
sg63
(lp3630
g56
(g77
g58
NtRp3631
(dp3632
g61
(dp3633
sg70
g3627
sg63
(lp3634
g56
(g57
g58
NtRp3635
(dp3636
g61
(dp3637
g69
I1
ssg70
g3631
sg63
(lp3638
I00
asbasbasbag56
(g72
g58
NtRp3639
(dp3640
g61
(dp3641
sg70
g3610
sg63
(lp3642
g56
(g77
g58
NtRp3643
(dp3644
g61
(dp3645
sg70
g3639
sg63
(lp3646
g56
(g57
g58
NtRp3647
(dp3648
g61
(dp3649
g69
I1
ssg70
g3643
sg63
(lp3650
S'/admin/default/edit/welcome/views/layout.html'
p3651
asbasbasbasbasbasbasbag56
(g72
g58
NtRp3652
(dp3653
g61
(dp3654
sg70
g3486
sg63
(lp3655
g56
(g77
g58
NtRp3656
(dp3657
g61
(dp3658
sg70
g3652
sg63
(lp3659
g56
(g57
g58
NtRp3660
(dp3661
g61
(dp3662
g69
I2
ssg70
g3656
sg63
(lp3663
g56
(g65
g58
NtRp3664
(dp3665
g61
(dp3666
g69
I1
ssg70
Nsg63
(lp3667
g56
(g72
g58
NtRp3668
(dp3669
g61
(dp3670
sg70
g3664
sg63
(lp3671
g56
(g77
g58
NtRp3672
(dp3673
g61
(dp3674
sg70
g3668
sg63
(lp3675
g56
(g57
g58
NtRp3676
(dp3677
g61
(dp3678
g69
I1
ssg70
g3672
sg63
(lp3679
g3377
(S's\n\x00\x00\x00Stylesheet'
tRp3680
asbasbasbag56
(g72
g58
NtRp3681
(dp3682
g61
(dp3683
sg70
g3664
sg63
(lp3684
g56
(g77
g58
NtRp3685
(dp3686
g61
(dp3687
sg70
g3681
sg63
(lp3688
g56
(g57
g58
NtRp3689
(dp3690
g61
(dp3691
g69
I1
ssg70
g3685
sg63
(lp3692
I00
asbasbasbag56
(g72
g58
NtRp3693
(dp3694
g61
(dp3695
sg70
g3664
sg63
(lp3696
g56
(g77
g58
NtRp3697
(dp3698
g61
(dp3699
sg70
g3693
sg63
(lp3700
g56
(g57
g58
NtRp3701
(dp3702
g61
(dp3703
g69
I1
ssg70
g3697
sg63
(lp3704
S'/admin/default/edit/welcome/static/base.css'
p3705
asbasbasbasbasbasbasbag56
(g72
g58
NtRp3706
(dp3707
g61
(dp3708
sg70
g3486
sg63
(lp3709
g56
(g77
g58
NtRp3710
(dp3711
g61
(dp3712
sg70
g3706
sg63
(lp3713
g56
(g57
g58
NtRp3714
(dp3715
g61
(dp3716
g69
I2
ssg70
g3710
sg63
(lp3717
g56
(g65
g58
NtRp3718
(dp3719
g61
(dp3720
g69
I1
ssg70
Nsg63
(lp3721
g56
(g72
g58
NtRp3722
(dp3723
g61
(dp3724
sg70
g3718
sg63
(lp3725
g56
(g77
g58
NtRp3726
(dp3727
g61
(dp3728
sg70
g3722
sg63
(lp3729
g56
(g57
g58
NtRp3730
(dp3731
g61
(dp3732
g69
I1
ssg70
g3726
sg63
(lp3733
g3377
(S's\x08\x00\x00\x00DB Model'
tRp3734
asbasbasbag56
(g72
g58
NtRp3735
(dp3736
g61
(dp3737
sg70
g3718
sg63
(lp3738
g56
(g77
g58
NtRp3739
(dp3740
g61
(dp3741
sg70
g3735
sg63
(lp3742
g56
(g57
g58
NtRp3743
(dp3744
g61
(dp3745
g69
I1
ssg70
g3739
sg63
(lp3746
I00
asbasbasbag56
(g72
g58
NtRp3747
(dp3748
g61
(dp3749
sg70
g3718
sg63
(lp3750
g56
(g77
g58
NtRp3751
(dp3752
g61
(dp3753
sg70
g3747
sg63
(lp3754
g56
(g57
g58
NtRp3755
(dp3756
g61
(dp3757
g69
I1
ssg70
g3751
sg63
(lp3758
S'/admin/default/edit/welcome/models/db.py'
p3759
asbasbasbasbasbasbasbag56
(g72
g58
NtRp3760
(dp3761
g61
(dp3762
sg70
g3486
sg63
(lp3763
g56
(g77
g58
NtRp3764
(dp3765
g61
(dp3766
sg70
g3760
sg63
(lp3767
g56
(g57
g58
NtRp3768
(dp3769
g61
(dp3770
g69
I2
ssg70
g3764
sg63
(lp3771
g56
(g65
g58
NtRp3772
(dp3773
g61
(dp3774
g69
I1
ssg70
Nsg63
(lp3775
g56
(g72
g58
NtRp3776
(dp3777
g61
(dp3778
sg70
g3772
sg63
(lp3779
g56
(g77
g58
NtRp3780
(dp3781
g61
(dp3782
sg70
g3776
sg63
(lp3783
g56
(g57
g58
NtRp3784
(dp3785
g61
(dp3786
g69
I1
ssg70
g3780
sg63
(lp3787
g3377
(S's\n\x00\x00\x00Menu Model'
tRp3788
asbasbasbag56
(g72
g58
NtRp3789
(dp3790
g61
(dp3791
sg70
g3772
sg63
(lp3792
g56
(g77
g58
NtRp3793
(dp3794
g61
(dp3795
sg70
g3789
sg63
(lp3796
g56
(g57
g58
NtRp3797
(dp3798
g61
(dp3799
g69
I1
ssg70
g3793
sg63
(lp3800
I00
asbasbasbag56
(g72
g58
NtRp3801
(dp3802
g61
(dp3803
sg70
g3772
sg63
(lp3804
g56
(g77
g58
NtRp3805
(dp3806
g61
(dp3807
sg70
g3801
sg63
(lp3808
g56
(g57
g58
NtRp3809
(dp3810
g61
(dp3811
g69
I1
ssg70
g3805
sg63
(lp3812
S'/admin/default/edit/welcome/models/menu.py'
p3813
asbasbasbasbasbasbasbag56
(g72
g58
NtRp3814
(dp3815
g61
(dp3816
sg70
g3486
sg63
(lp3817
g56
(g77
g58
NtRp3818
(dp3819
g61
(dp3820
sg70
g3814
sg63
(lp3821
g56
(g57
g58
NtRp3822
(dp3823
g61
(dp3824
g69
I2
ssg70
g3818
sg63
(lp3825
g56
(g65
g58
NtRp3826
(dp3827
g61
(dp3828
g69
I1
ssg70
Nsg63
(lp3829
g56
(g72
g58
NtRp3830
(dp3831
g61
(dp3832
sg70
g3826
sg63
(lp3833
g56
(g77
g58
NtRp3834
(dp3835
g61
(dp3836
sg70
g3830
sg63
(lp3837
g56
(g57
g58
NtRp3838
(dp3839
g61
(dp3840
g69
I1
ssg70
g3834
sg63
(lp3841
g3377
(S's\x08\x00\x00\x00Database'
tRp3842
asbasbasbag56
(g72
g58
NtRp3843
(dp3844
g61
(dp3845
sg70
g3826
sg63
(lp3846
g56
(g77
g58
NtRp3847
(dp3848
g61
(dp3849
sg70
g3843
sg63
(lp3850
g56
(g57
g58
NtRp3851
(dp3852
g61
(dp3853
g69
I1
ssg70
g3847
sg63
(lp3854
I00
asbasbasbag56
(g72
g58
NtRp3855
(dp3856
g61
(dp3857
sg70
g3826
sg63
(lp3858
g56
(g77
g58
NtRp3859
(dp3860
g61
(dp3861
sg70
g3855
sg63
(lp3862
g56
(g57
g58
NtRp3863
(dp3864
g61
(dp3865
g69
I1
ssg70
g3859
sg63
(lp3866
S'/welcome/appadmin/index'
p3867
asbasbasbasbasbasbasbag56
(g72
g58
NtRp3868
(dp3869
g61
(dp3870
sg70
g3486
sg63
(lp3871
g56
(g77
g58
NtRp3872
(dp3873
g61
(dp3874
sg70
g3868
sg63
(lp3875
g56
(g57
g58
NtRp3876
(dp3877
g61
(dp3878
g69
I2
ssg70
g3872
sg63
(lp3879
g56
(g65
g58
NtRp3880
(dp3881
g61
(dp3882
g69
I1
ssg70
Nsg63
(lp3883
g56
(g72
g58
NtRp3884
(dp3885
g61
(dp3886
sg70
g3880
sg63
(lp3887
g56
(g77
g58
NtRp3888
(dp3889
g61
(dp3890
sg70
g3884
sg63
(lp3891
g56
(g57
g58
NtRp3892
(dp3893
g61
(dp3894
g69
I1
ssg70
g3888
sg63
(lp3895
g3377
(S's\x06\x00\x00\x00Errors'
tRp3896
asbasbasbag56
(g72
g58
NtRp3897
(dp3898
g61
(dp3899
sg70
g3880
sg63
(lp3900
g56
(g77
g58
NtRp3901
(dp3902
g61
(dp3903
sg70
g3897
sg63
(lp3904
g56
(g57
g58
NtRp3905
(dp3906
g61
(dp3907
g69
I1
ssg70
g3901
sg63
(lp3908
I00
asbasbasbag56
(g72
g58
NtRp3909
(dp3910
g61
(dp3911
sg70
g3880
sg63
(lp3912
g56
(g77
g58
NtRp3913
(dp3914
g61
(dp3915
sg70
g3909
sg63
(lp3916
g56
(g57
g58
NtRp3917
(dp3918
g61
(dp3919
g69
I1
ssg70
g3913
sg63
(lp3920
S'/admin/default/errors/welcome'
p3921
asbasbasbasbasbasbasbag56
(g72
g58
NtRp3922
(dp3923
g61
(dp3924
sg70
g3486
sg63
(lp3925
g56
(g77
g58
NtRp3926
(dp3927
g61
(dp3928
sg70
g3922
sg63
(lp3929
g56
(g57
g58
NtRp3930
(dp3931
g61
(dp3932
g69
I2
ssg70
g3926
sg63
(lp3933
g56
(g65
g58
NtRp3934
(dp3935
g61
(dp3936
g69
I1
ssg70
Nsg63
(lp3937
g56
(g72
g58
NtRp3938
(dp3939
g61
(dp3940
sg70
g3934
sg63
(lp3941
g56
(g77
g58
NtRp3942
(dp3943
g61
(dp3944
sg70
g3938
sg63
(lp3945
g56
(g57
g58
NtRp3946
(dp3947
g61
(dp3948
g69
I1
ssg70
g3942
sg63
(lp3949
g3377
(S's\x05\x00\x00\x00About'
tRp3950
asbasbasbag56
(g72
g58
NtRp3951
(dp3952
g61
(dp3953
sg70
g3934
sg63
(lp3954
g56
(g77
g58
NtRp3955
(dp3956
g61
(dp3957
sg70
g3951
sg63
(lp3958
g56
(g57
g58
NtRp3959
(dp3960
g61
(dp3961
g69
I1
ssg70
g3955
sg63
(lp3962
I00
asbasbasbag56
(g72
g58
NtRp3963
(dp3964
g61
(dp3965
sg70
g3934
sg63
(lp3966
g56
(g77
g58
NtRp3967
(dp3968
g61
(dp3969
sg70
g3963
sg63
(lp3970
g56
(g57
g58
NtRp3971
(dp3972
g61
(dp3973
g69
I1
ssg70
g3967
sg63
(lp3974
S'/admin/default/about/welcome'
p3975
asbasbasbasbasbasbasbasbasbasbasbasbasbasbasbag56
(g72
g58
NtRp3976
(dp3977
g61
(dp3978
sg70
g3345
sg63
(lp3979
g56
(g77
g58
NtRp3980
(dp3981
g61
(dp3982
sg70
g3976
sg63
(lp3983
g56
(g57
g58
NtRp3984
(dp3985
g61
(dp3986
g69
I4
ssg70
g3980
sg63
(lp3987
g56
(g65
g58
NtRp3988
(dp3989
g61
(dp3990
g69
I3
ssg70
Nsg63
(lp3991
g56
(g72
g58
NtRp3992
(dp3993
g61
(dp3994
sg70
g3988
sg63
(lp3995
g56
(g77
g58
NtRp3996
(dp3997
g61
(dp3998
sg70
g3992
sg63
(lp3999
g56
(g57
g58
NtRp4000
(dp4001
g61
(dp4002
g69
I3
ssg70
g3996
sg63
(lp4003
g3377
(S's\t\x00\x00\x00Resources'
tRp4004
asbasbasbag56
(g72
g58
NtRp4005
(dp4006
g61
(dp4007
sg70
g3988
sg63
(lp4008
g56
(g77
g58
NtRp4009
(dp4010
g61
(dp4011
sg70
g4005
sg63
(lp4012
g56
(g57
g58
NtRp4013
(dp4014
g61
(dp4015
g69
I3
ssg70
g4009
sg63
(lp4016
g99
asbasbasbag56
(g72
g58
NtRp4017
(dp4018
g61
(dp4019
sg70
g3988
sg63
(lp4020
g56
(g77
g58
NtRp4021
(dp4022
g61
(dp4023
sg70
g4017
sg63
(lp4024
g56
(g57
g58
NtRp4025
(dp4026
g61
(dp4027
g69
I3
ssg70
g4021
sg63
(lp4028
S'None'
p4029
asbasbasbag56
(g72
g58
NtRp4030
(dp4031
g61
(dp4032
sg70
g3988
sg63
(lp4033
g56
(g77
g58
NtRp4034
(dp4035
g61
(dp4036
sg70
g4030
sg63
(lp4037
g56
(g57
g58
NtRp4038
(dp4039
g61
(dp4040
g69
I3
ssg70
g4034
sg63
(lp4041
g56
(g65
g58
NtRp4042
(dp4043
g61
(dp4044
g69
I2
ssg70
Nsg63
(lp4045
g56
(g72
g58
NtRp4046
(dp4047
g61
(dp4048
sg70
g4042
sg63
(lp4049
g56
(g77
g58
NtRp4050
(dp4051
g61
(dp4052
sg70
g4046
sg63
(lp4053
g56
(g57
g58
NtRp4054
(dp4055
g61
(dp4056
g69
I2
ssg70
g4050
sg63
(lp4057
g56
(g65
g58
NtRp4058
(dp4059
g61
(dp4060
g69
I1
ssg70
Nsg63
(lp4061
g56
(g72
g58
NtRp4062
(dp4063
g61
(dp4064
sg70
g4058
sg63
(lp4065
g56
(g77
g58
NtRp4066
(dp4067
g61
(dp4068
sg70
g4062
sg63
(lp4069
g56
(g57
g58
NtRp4070
(dp4071
g61
(dp4072
g69
I1
ssg70
g4066
sg63
(lp4073
g3377
(S's\r\x00\x00\x00Documentation'
tRp4074
asbasbasbag56
(g72
g58
NtRp4075
(dp4076
g61
(dp4077
sg70
g4058
sg63
(lp4078
g56
(g77
g58
NtRp4079
(dp4080
g61
(dp4081
sg70
g4075
sg63
(lp4082
g56
(g57
g58
NtRp4083
(dp4084
g61
(dp4085
g69
I1
ssg70
g4079
sg63
(lp4086
I00
asbasbasbag56
(g72
g58
NtRp4087
(dp4088
g61
(dp4089
sg70
g4058
sg63
(lp4090
g56
(g77
g58
NtRp4091
(dp4092
g61
(dp4093
sg70
g4087
sg63
(lp4094
g56
(g57
g58
NtRp4095
(dp4096
g61
(dp4097
g69
I1
ssg70
g4091
sg63
(lp4098
S'http://www.web2py.com/book'
p4099
asbasbasbag56
(g72
g58
NtRp4100
(dp4101
g61
(dp4102
sg70
g4058
sg63
(lp4103
g56
(g77
g58
NtRp4104
(dp4105
g61
(dp4106
sg70
g4100
sg63
(lp4107
g56
(g57
g58
NtRp4108
(dp4109
g61
(dp4110
g69
I1
ssg70
g4104
sg63
(lp4111
(lp4112
(g3377
(S's\x07\x00\x00\x00Preface'
tRp4113
I00
S'http://www.web2py.com/book/default/chapter/00'
p4114
tp4115
a(g3377
(S's\x0c\x00\x00\x00Introduction'
tRp4116
I00
S'http://www.web2py.com/book/default/chapter/01'
p4117
tp4118
a(g3377
(S's\x06\x00\x00\x00Python'
tRp4119
I00
S'http://www.web2py.com/book/default/chapter/02'
p4120
tp4121
a(g3377
(S's\x08\x00\x00\x00Overview'
tRp4122
I00
S'http://www.web2py.com/book/default/chapter/03'
p4123
tp4124
a(g3377
(S's\x08\x00\x00\x00The Core'
tRp4125
I00
S'http://www.web2py.com/book/default/chapter/04'
p4126
tp4127
a(g3377
(S's\t\x00\x00\x00The Views'
tRp4128
I00
S'http://www.web2py.com/book/default/chapter/05'
p4129
tp4130
a(g3377
(S's\x08\x00\x00\x00Database'
tRp4131
I00
S'http://www.web2py.com/book/default/chapter/06'
p4132
tp4133
a(g3377
(S's\x14\x00\x00\x00Forms and Validators'
tRp4134
I00
S'http://www.web2py.com/book/default/chapter/07'
p4135
tp4136
a(g3377
(S's\x0e\x00\x00\x00Access Control'
tRp4137
I00
S'http://www.web2py.com/book/default/chapter/08'
p4138
tp4139
a(g3377
(S's\x08\x00\x00\x00Services'
tRp4140
I00
S'http://www.web2py.com/book/default/chapter/09'
p4141
tp4142
a(g3377
(S's\x0c\x00\x00\x00Ajax Recipes'
tRp4143
I00
S'http://www.web2py.com/book/default/chapter/10'
p4144
tp4145
a(g3377
(S's\x12\x00\x00\x00Deployment Recipes'
tRp4146
I00
S'http://www.web2py.com/book/default/chapter/11'
p4147
tp4148
a(g3377
(S's\r\x00\x00\x00Other Recipes'
tRp4149
I00
S'http://www.web2py.com/book/default/chapter/12'
p4150
tp4151
a(g3377
(S's\r\x00\x00\x00Buy this book'
tRp4152
I00
S'http://stores.lulu.com/web2py'
p4153
tp4154
aasbasbasbasbasbasbasbag56
(g72
g58
NtRp4155
(dp4156
g61
(dp4157
sg70
g4042
sg63
(lp4158
g56
(g77
g58
NtRp4159
(dp4160
g61
(dp4161
sg70
g4155
sg63
(lp4162
g56
(g57
g58
NtRp4163
(dp4164
g61
(dp4165
g69
I2
ssg70
g4159
sg63
(lp4166
g56
(g65
g58
NtRp4167
(dp4168
g61
(dp4169
g69
I1
ssg70
Nsg63
(lp4170
g56
(g72
g58
NtRp4171
(dp4172
g61
(dp4173
sg70
g4167
sg63
(lp4174
g56
(g77
g58
NtRp4175
(dp4176
g61
(dp4177
sg70
g4171
sg63
(lp4178
g56
(g57
g58
NtRp4179
(dp4180
g61
(dp4181
g69
I1
ssg70
g4175
sg63
(lp4182
g3377
(S's\t\x00\x00\x00Community'
tRp4183
asbasbasbag56
(g72
g58
NtRp4184
(dp4185
g61
(dp4186
sg70
g4167
sg63
(lp4187
g56
(g77
g58
NtRp4188
(dp4189
g61
(dp4190
sg70
g4184
sg63
(lp4191
g56
(g57
g58
NtRp4192
(dp4193
g61
(dp4194
g69
I1
ssg70
g4188
sg63
(lp4195
I00
asbasbasbag56
(g72
g58
NtRp4196
(dp4197
g61
(dp4198
sg70
g4167
sg63
(lp4199
g56
(g77
g58
NtRp4200
(dp4201
g61
(dp4202
sg70
g4196
sg63
(lp4203
g56
(g57
g58
NtRp4204
(dp4205
g61
(dp4206
g69
I1
ssg70
g4200
sg63
(lp4207
Nasbasbasbag56
(g72
g58
NtRp4208
(dp4209
g61
(dp4210
sg70
g4167
sg63
(lp4211
g56
(g77
g58
NtRp4212
(dp4213
g61
(dp4214
sg70
g4208
sg63
(lp4215
g56
(g57
g58
NtRp4216
(dp4217
g61
(dp4218
g69
I1
ssg70
g4212
sg63
(lp4219
(lp4220
(g3377
(S's\x06\x00\x00\x00Groups'
tRp4221
I00
S'http://www.web2py.com/examples/default/usergroups'
p4222
tp4223
a(g3377
(S's\x07\x00\x00\x00Twitter'
tRp4224
I00
S'http://twitter.com/web2py'
p4225
tp4226
a(g3377
(S's\t\x00\x00\x00Live chat'
tRp4227
I00
S'http://mibbit.com/?channel=%23web2py&server=irc.mibbit.net'
p4228
tp4229
a(g3377
(S's\n\x00\x00\x00User Voice'
tRp4230
I00
S'http://web2py.uservoice.com/'
p4231
tp4232
aasbasbasbasbasbasbasbag56
(g72
g58
NtRp4233
(dp4234
g61
(dp4235
sg70
g4042
sg63
(lp4236
g56
(g77
g58
NtRp4237
(dp4238
g61
(dp4239
sg70
g4233
sg63
(lp4240
g56
(g57
g58
NtRp4241
(dp4242
g61
(dp4243
g69
I2
ssg70
g4237
sg63
(lp4244
g56
(g65
g58
NtRp4245
(dp4246
g61
(dp4247
g69
I1
ssg70
Nsg63
(lp4248
g56
(g72
g58
NtRp4249
(dp4250
g61
(dp4251
sg70
g4245
sg63
(lp4252
g56
(g77
g58
NtRp4253
(dp4254
g61
(dp4255
sg70
g4249
sg63
(lp4256
g56
(g57
g58
NtRp4257
(dp4258
g61
(dp4259
g69
I1
ssg70
g4253
sg63
(lp4260
g3377
(S's\x06\x00\x00\x00Web2py'
tRp4261
asbasbasbag56
(g72
g58
NtRp4262
(dp4263
g61
(dp4264
sg70
g4245
sg63
(lp4265
g56
(g77
g58
NtRp4266
(dp4267
g61
(dp4268
sg70
g4262
sg63
(lp4269
g56
(g57
g58
NtRp4270
(dp4271
g61
(dp4272
g69
I1
ssg70
g4266
sg63
(lp4273
I00
asbasbasbag56
(g72
g58
NtRp4274
(dp4275
g61
(dp4276
sg70
g4245
sg63
(lp4277
g56
(g77
g58
NtRp4278
(dp4279
g61
(dp4280
sg70
g4274
sg63
(lp4281
g56
(g57
g58
NtRp4282
(dp4283
g61
(dp4284
g69
I1
ssg70
g4278
sg63
(lp4285
S'http://www.web2py.com'
p4286
asbasbasbag56
(g72
g58
NtRp4287
(dp4288
g61
(dp4289
sg70
g4245
sg63
(lp4290
g56
(g77
g58
NtRp4291
(dp4292
g61
(dp4293
sg70
g4287
sg63
(lp4294
g56
(g57
g58
NtRp4295
(dp4296
g61
(dp4297
g69
I1
ssg70
g4291
sg63
(lp4298
(lp4299
(g3377
(S's\x08\x00\x00\x00Download'
tRp4300
I00
S'http://www.web2py.com/examples/default/download'
p4301
tp4302
a(g3377
(S's\x07\x00\x00\x00Support'
tRp4303
I00
S'http://www.web2py.com/examples/default/support'
p4304
tp4305
a(g3377
(S's\x0e\x00\x00\x00Quick Examples'
tRp4306
I00
S'http://web2py.com/examples/default/examples'
p4307
tp4308
a(g3377
(S's\x03\x00\x00\x00FAQ'
tRp4309
I00
S'http://web2py.com/AlterEgo'
p4310
tp4311
a(g3377
(S's\x11\x00\x00\x00Free Applications'
tRp4312
I00
S'http://web2py.com/appliances'
p4313
tp4314
a(g3377
(S's\x07\x00\x00\x00Plugins'
tRp4315
I00
S'http://web2py.com/plugins'
p4316
tp4317
a(g3377
(S's\x07\x00\x00\x00Recipes'
tRp4318
I00
S'http://web2pyslices.com/'
p4319
tp4320
a(g3377
(S's\x04\x00\x00\x00Demo'
tRp4321
I00
S'http://web2py.com/demo_admin'
p4322
tp4323
a(g3377
(S's\x08\x00\x00\x00Semantic'
tRp4324
I00
S'http://web2py.com/semantic'
p4325
tp4326
a(g3377
(S's\x07\x00\x00\x00Layouts'
tRp4327
I00
S'http://web2py.com/layouts'
p4328
tp4329
a(g3377
(S's\x06\x00\x00\x00Videos'
tRp4330
I00
S'http://www.web2py.com/examples/default/videos/'
p4331
tp4332
aasbasbasbasbasbasbasbasbasbasbasbasbasbasbasbasbasbasbasbag56
(g72
g58
NtRp4333
(dp4334
g61
(dp4335
sg70
g2872
sg63
(lp4336
g56
(g77
g58
NtRp4337
(dp4338
g61
(dp4339
g81
g82
ssg70
g4333
sg63
(lp4340
S'meta'
p4341
asbag56
(g77
g58
NtRp4342
(dp4343
g61
(dp4344
g88
g89
ssg70
g4333
sg63
(lp4345
S':'
asbag56
(g77
g58
NtRp4346
(dp4347
g61
(dp4348
sg70
g4333
sg63
(lp4349
g56
(g57
g58
NtRp4350
(dp4351
g61
(dp4352
g69
I5
ssg70
g4346
sg63
(lp4353
g56
(g65
g58
NtRp4354
(dp4355
g61
(dp4356
g69
I4
ssg70
Nsg63
(lp4357
g56
(g72
g58
NtRp4358
(dp4359
g61
(dp4360
sg70
g4354
sg63
(lp4361
g56
(g77
g58
NtRp4362
(dp4363
g61
(dp4364
g81
g82
ssg70
g4358
sg63
(lp4365
S'author'
p4366
asbag56
(g77
g58
NtRp4367
(dp4368
g61
(dp4369
g88
g89
ssg70
g4358
sg63
(lp4370
S':'
asbag56
(g77
g58
NtRp4371
(dp4372
g61
(dp4373
sg70
g4358
sg63
(lp4374
g56
(g57
g58
NtRp4375
(dp4376
g61
(dp4377
g69
I4
ssg70
g4371
sg63
(lp4378
S'Your Name <you@example.com>'
p4379
asbasbasbag56
(g72
g58
NtRp4380
(dp4381
g61
(dp4382
sg70
g4354
sg63
(lp4383
g56
(g77
g58
NtRp4384
(dp4385
g61
(dp4386
g81
g82
ssg70
g4380
sg63
(lp4387
S'copyright'
p4388
asbag56
(g77
g58
NtRp4389
(dp4390
g61
(dp4391
g88
g89
ssg70
g4380
sg63
(lp4392
S':'
asbag56
(g77
g58
NtRp4393
(dp4394
g61
(dp4395
sg70
g4380
sg63
(lp4396
g56
(g57
g58
NtRp4397
(dp4398
g61
(dp4399
g69
I4
ssg70
g4393
sg63
(lp4400
S'Copyright 2011'
p4401
asbasbasbag56
(g72
g58
NtRp4402
(dp4403
g61
(dp4404
sg70
g4354
sg63
(lp4405
g56
(g77
g58
NtRp4406
(dp4407
g61
(dp4408
g81
g82
ssg70
g4402
sg63
(lp4409
S'description'
p4410
asbag56
(g77
g58
NtRp4411
(dp4412
g61
(dp4413
g88
g89
ssg70
g4402
sg63
(lp4414
S':'
asbag56
(g77
g58
NtRp4415
(dp4416
g61
(dp4417
sg70
g4402
sg63
(lp4418
g56
(g57
g58
NtRp4419
(dp4420
g61
(dp4421
g69
I4
ssg70
g4415
sg63
(lp4422
S'a cool new app'
p4423
asbasbasbag56
(g72
g58
NtRp4424
(dp4425
g61
(dp4426
sg70
g4354
sg63
(lp4427
g56
(g77
g58
NtRp4428
(dp4429
g61
(dp4430
g81
g82
ssg70
g4424
sg63
(lp4431
S'generator'
p4432
asbag56
(g77
g58
NtRp4433
(dp4434
g61
(dp4435
g88
g89
ssg70
g4424
sg63
(lp4436
S':'
asbag56
(g77
g58
NtRp4437
(dp4438
g61
(dp4439
sg70
g4424
sg63
(lp4440
g56
(g57
g58
NtRp4441
(dp4442
g61
(dp4443
g69
I4
ssg70
g4437
sg63
(lp4444
S'Web2py Web Framework'
p4445
asbasbasbag56
(g72
g58
NtRp4446
(dp4447
g61
(dp4448
sg70
g4354
sg63
(lp4449
g56
(g77
g58
NtRp4450
(dp4451
g61
(dp4452
g81
g82
ssg70
g4446
sg63
(lp4453
S'keywords'
p4454
asbag56
(g77
g58
NtRp4455
(dp4456
g61
(dp4457
g88
g89
ssg70
g4446
sg63
(lp4458
S':'
asbag56
(g77
g58
NtRp4459
(dp4460
g61
(dp4461
sg70
g4446
sg63
(lp4462
g56
(g57
g58
NtRp4463
(dp4464
g61
(dp4465
g69
I4
ssg70
g4459
sg63
(lp4466
S'web2py, python, framework'
p4467
asbasbasbasbasbasbasbag56
(g72
g58
NtRp4468
(dp4469
g61
(dp4470
sg70
g2872
sg63
(lp4471
g56
(g77
g58
NtRp4472
(dp4473
g61
(dp4474
g81
g82
ssg70
g4468
sg63
(lp4475
S'postprocessing'
p4476
asbag56
(g77
g58
NtRp4477
(dp4478
g61
(dp4479
g88
g89
ssg70
g4468
sg63
(lp4480
S':'
asbag56
(g77
g58
NtRp4481
(dp4482
g61
(dp4483
sg70
g4468
sg63
(lp4484
g56
(g57
g58
NtRp4485
(dp4486
g61
(dp4487
g69
I5
ssg70
g4481
sg63
(lp4488
g56
(g65
g58
NtRp4489
(dp4490
g61
(dp4491
g69
I4
ssg70
Nsg63
(lp4492
sbasbasbasbag56
(g72
g58
NtRp4493
(dp4494
g61
(dp4495
sg70
g2872
sg63
(lp4496
g56
(g77
g58
NtRp4497
(dp4498
g61
(dp4499
g81
g82
ssg70
g4493
sg63
(lp4500
S'session_file'
p4501
asbag56
(g77
g58
NtRp4502
(dp4503
g61
(dp4504
g88
g89
ssg70
g4493
sg63
(lp4505
S':'
asbag56
(g77
g58
NtRp4506
(dp4507
g61
(dp4508
sg70
g4493
sg63
(lp4509
g56
(g57
g58
NtRp4510
(dp4511
g61
(dp4512
g69
I5
ssg70
g4506
sg63
(lp4513
S"<open file '/Users/excon/Sites/dreamscape/applications/welcome/sessions/127.0.0.1-51cc951f-9f8f-44c6-96d8-bac94161d020', mode 'rb+' at 0x101c7ecf0>"
p4514
asbasbasbag56
(g72
g58
NtRp4515
(dp4516
g61
(dp4517
sg70
g2872
sg63
(lp4518
g56
(g77
g58
NtRp4519
(dp4520
g61
(dp4521
g81
g82
ssg70
g4515
sg63
(lp4522
S'session_filename'
p4523
asbag56
(g77
g58
NtRp4524
(dp4525
g61
(dp4526
g88
g89
ssg70
g4515
sg63
(lp4527
S':'
asbag56
(g77
g58
NtRp4528
(dp4529
g61
(dp4530
sg70
g4515
sg63
(lp4531
g56
(g57
g58
NtRp4532
(dp4533
g61
(dp4534
g69
I5
ssg70
g4528
sg63
(lp4535
S'/Users/excon/Sites/dreamscape/applications/welcome/sessions/127.0.0.1-51cc951f-9f8f-44c6-96d8-bac94161d020'
p4536
asbasbasbag56
(g72
g58
NtRp4537
(dp4538
g61
(dp4539
sg70
g2872
sg63
(lp4540
g56
(g77
g58
NtRp4541
(dp4542
g61
(dp4543
g81
g82
ssg70
g4537
sg63
(lp4544
S'session_id'
p4545
asbag56
(g77
g58
NtRp4546
(dp4547
g61
(dp4548
g88
g89
ssg70
g4537
sg63
(lp4549
S':'
asbag56
(g77
g58
NtRp4550
(dp4551
g61
(dp4552
sg70
g4537
sg63
(lp4553
g56
(g57
g58
NtRp4554
(dp4555
g61
(dp4556
g69
I5
ssg70
g4550
sg63
(lp4557
S'127.0.0.1-51cc951f-9f8f-44c6-96d8-bac94161d020'
p4558
asbasbasbag56
(g72
g58
NtRp4559
(dp4560
g61
(dp4561
sg70
g2872
sg63
(lp4562
g56
(g77
g58
NtRp4563
(dp4564
g61
(dp4565
g81
g82
ssg70
g4559
sg63
(lp4566
S'session_id_name'
p4567
asbag56
(g77
g58
NtRp4568
(dp4569
g61
(dp4570
g88
g89
ssg70
g4559
sg63
(lp4571
S':'
asbag56
(g77
g58
NtRp4572
(dp4573
g61
(dp4574
sg70
g4559
sg63
(lp4575
g56
(g57
g58
NtRp4576
(dp4577
g61
(dp4578
g69
I5
ssg70
g4572
sg63
(lp4579
g2929
asbasbasbag56
(g72
g58
NtRp4580
(dp4581
g61
(dp4582
sg70
g2872
sg63
(lp4583
g56
(g77
g58
NtRp4584
(dp4585
g61
(dp4586
g81
g82
ssg70
g4580
sg63
(lp4587
S'session_locked'
p4588
asbag56
(g77
g58
NtRp4589
(dp4590
g61
(dp4591
g88
g89
ssg70
g4580
sg63
(lp4592
S':'
asbag56
(g77
g58
NtRp4593
(dp4594
g61
(dp4595
sg70
g4580
sg63
(lp4596
g56
(g57
g58
NtRp4597
(dp4598
g61
(dp4599
g69
I5
ssg70
g4593
sg63
(lp4600
g1471
asbasbasbag56
(g72
g58
NtRp4601
(dp4602
g61
(dp4603
sg70
g2872
sg63
(lp4604
g56
(g77
g58
NtRp4605
(dp4606
g61
(dp4607
g81
g82
ssg70
g4601
sg63
(lp4608
S'session_new'
p4609
asbag56
(g77
g58
NtRp4610
(dp4611
g61
(dp4612
g88
g89
ssg70
g4601
sg63
(lp4613
S':'
asbag56
(g77
g58
NtRp4614
(dp4615
g61
(dp4616
sg70
g4601
sg63
(lp4617
g56
(g57
g58
NtRp4618
(dp4619
g61
(dp4620
g69
I5
ssg70
g4614
sg63
(lp4621
g99
asbasbasbag56
(g72
g58
NtRp4622
(dp4623
g61
(dp4624
sg70
g2872
sg63
(lp4625
g56
(g77
g58
NtRp4626
(dp4627
g61
(dp4628
g81
g82
ssg70
g4622
sg63
(lp4629
S'status'
p4630
asbag56
(g77
g58
NtRp4631
(dp4632
g61
(dp4633
g88
g89
ssg70
g4622
sg63
(lp4634
S':'
asbag56
(g77
g58
NtRp4635
(dp4636
g61
(dp4637
sg70
g4622
sg63
(lp4638
g56
(g57
g58
NtRp4639
(dp4640
g61
(dp4641
g69
I5
ssg70
g4635
sg63
(lp4642
S'200'
p4643
asbasbasbag56
(g72
g58
NtRp4644
(dp4645
g61
(dp4646
sg70
g2872
sg63
(lp4647
g56
(g77
g58
NtRp4648
(dp4649
g61
(dp4650
g81
g82
ssg70
g4644
sg63
(lp4651
S'subtitle'
p4652
asbag56
(g77
g58
NtRp4653
(dp4654
g61
(dp4655
g88
g89
ssg70
g4644
sg63
(lp4656
S':'
asbag56
(g77
g58
NtRp4657
(dp4658
g61
(dp4659
sg70
g4644
sg63
(lp4660
g56
(g57
g58
NtRp4661
(dp4662
g61
(dp4663
g69
I5
ssg70
g4657
sg63
(lp4664
g3377
(S's\r\x00\x00\x00customize me!'
tRp4665
asbasbasbag56
(g72
g58
NtRp4666
(dp4667
g61
(dp4668
sg70
g2872
sg63
(lp4669
g56
(g77
g58
NtRp4670
(dp4671
g61
(dp4672
g81
g82
ssg70
g4666
sg63
(lp4673
S'title'
p4674
asbag56
(g77
g58
NtRp4675
(dp4676
g61
(dp4677
g88
g89
ssg70
g4666
sg63
(lp4678
S':'
asbag56
(g77
g58
NtRp4679
(dp4680
g61
(dp4681
sg70
g4666
sg63
(lp4682
g56
(g57
g58
NtRp4683
(dp4684
g61
(dp4685
g69
I5
ssg70
g4679
sg63
(lp4686
g121
asbasbasbag56
(g72
g58
NtRp4687
(dp4688
g61
(dp4689
sg70
g2872
sg63
(lp4690
g56
(g77
g58
NtRp4691
(dp4692
g61
(dp4693
g81
g82
ssg70
g4687
sg63
(lp4694
g2115
asbag56
(g77
g58
NtRp4695
(dp4696
g61
(dp4697
g88
g89
ssg70
g4687
sg63
(lp4698
S':'
asbag56
(g77
g58
NtRp4699
(dp4700
g61
(dp4701
sg70
g4687
sg63
(lp4702
g56
(g57
g58
NtRp4703
(dp4704
g61
(dp4705
g69
I5
ssg70
g4699
sg63
(lp4706
g2128
asbasbasbag56
(g72
g58
NtRp4707
(dp4708
g61
(dp4709
sg70
g2872
sg63
(lp4710
g56
(g77
g58
NtRp4711
(dp4712
g61
(dp4713
g81
g82
ssg70
g4707
sg63
(lp4714
S'view'
p4715
asbag56
(g77
g58
NtRp4716
(dp4717
g61
(dp4718
g88
g89
ssg70
g4707
sg63
(lp4719
S':'
asbag56
(g77
g58
NtRp4720
(dp4721
g61
(dp4722
sg70
g4707
sg63
(lp4723
g56
(g57
g58
NtRp4724
(dp4725
g61
(dp4726
g69
I5
ssg70
g4720
sg63
(lp4727
S'default/coming_soon.html'
p4728
asbasbasbasbasbsS'locals'
p4729
(dp4730
ssS'traceback'
p4731
S'Traceback (most recent call last):\n  File "/Users/excon/Sites/dreamscape/gluon/restricted.py", line 194, in restricted\n    exec ccode in environment\n  File "/Users/excon/Sites/dreamscape/applications/welcome/controllers/default.py", line 88, in <module>\n  File "/Users/excon/Sites/dreamscape/gluon/globals.py", line 149, in <lambda>\n    self._caller = lambda f: f()\n  File "/Users/excon/Sites/dreamscape/applications/welcome/controllers/default.py", line 24, in coming_soon\n    ddb.invitation.writeable = False\nNameError: global name \'ddb\' is not defined\n'
p4732
s.