(dp1
S'output'
p2
S''
sS'layer'
p3
S'/Users/excon/Sites/dreamscape/applications/welcome/controllers/default.py'
p4
sS'code'
p5
S'# -*- coding: utf-8 -*-\n# this file is released under public domain and you can use without limitations\n\n#########################################################################\n## This is a samples controller\n## - index is the default action of any application\n## - user is required for authentication and authorization\n## - download is for downloading files uploaded in the db (does streaming)\n## - call exposes all registered services (none by default)\n#########################################################################\n\nCOMING_SOON = True\n\ndef index():\n    """\n    example action using the internationalization operator T and flash\n    rendered by views/default/index.html or views/generic.html\n    """\n    if COMING_SOON:\n        redirect(URL(r=request, f=\'coming_soon\'))\n    return dict()\n    \ndef coming_soon():\n    form = SQLFORM.factory(db.invitation, submit_button=\'DREAM\', formstyle=\'div\')\n            \n    if form.process().accepted:\n        db.invitation.insert(email=form.vars.email)\n        response.flash = \'You have wonderful dreams!\'\n    elif form.errors:\n        response.flash = \'Invalid Email\'\n    else:\n        response.flash = \'Type your email\'\n        \n    return dict(form=form)\n\ndef user():\n    """\n    exposes:\n    http://..../[app]/default/user/login\n    http://..../[app]/default/user/logout\n    http://..../[app]/default/user/register\n    http://..../[app]/default/user/profile\n    http://..../[app]/default/user/retrieve_password\n    http://..../[app]/default/user/change_password\n    use @auth.requires_login()\n        @auth.requires_membership(\'group name\')\n        @auth.requires_permission(\'read\',\'table name\',record_id)\n    to decorate functions that need access control\n    """\n    if COMING_SOON:\n        redirect(URL(r=request, f=\'coming_soon\'))\n    return dict(form=auth())\n\n\ndef download():\n    """\n    allows downloading of uploaded files\n    http://..../[app]/default/download/[filename]\n    """\n    if COMING_SOON:\n        redirect(URL(r=request, f=\'coming_soon\'))\n    return response.download(request,db)\n\n\ndef call():\n    """\n    exposes services. for example:\n    http://..../[app]/default/call/jsonrpc\n    decorate with @services.jsonrpc the functions to expose\n    supports xml, json, xmlrpc, jsonrpc, amfrpc, rss, csv\n    """\n    if COMING_SOON:\n        redirect(URL(r=request, f=\'coming_soon\'))\n    return service()\n\n\n@auth.requires_signature()\ndef data():\n    """\n    http://..../[app]/default/data/tables\n    http://..../[app]/default/data/create/[table]\n    http://..../[app]/default/data/read/[table]/[id]\n    http://..../[app]/default/data/update/[table]/[id]\n    http://..../[app]/default/data/delete/[table]/[id]\n    http://..../[app]/default/data/select/[table]\n    http://..../[app]/default/data/search/[table]\n    but URLs bust be signed, i.e. linked with\n      A(\'table\',_href=URL(\'data/tables\',user_signature=True))\n    or with the signed load operator\n      LOAD(\'default\',\'data.load\',args=\'tables\',ajax=True,user_signature=True)\n    """\n    if COMING_SOON:\n        redirect(URL(r=request, f=\'coming_soon\'))\n    return dict(form=crud())\n\nresponse._vars=response._caller(coming_soon)\n'
p6
sS'snapshot'
p7
(dp8
S'exception'
p9
(dp10
S'__hash__'
p11
S"<method-wrapper '__hash__' of exceptions.RuntimeError object at 0x112946bd8>"
p12
sS'__setattr__'
p13
S"<method-wrapper '__setattr__' of exceptions.RuntimeError object at 0x112946bd8>"
p14
sS'__reduce_ex__'
p15
S'<built-in method __reduce_ex__ of exceptions.RuntimeError object at 0x112946bd8>'
p16
sS'__getslice__'
p17
S"<method-wrapper '__getslice__' of exceptions.RuntimeError object at 0x112946bd8>"
p18
sS'__getitem__'
p19
S"<method-wrapper '__getitem__' of exceptions.RuntimeError object at 0x112946bd8>"
p20
sS'__setstate__'
p21
S'<built-in method __setstate__ of exceptions.RuntimeError object at 0x112946bd8>'
p22
sS'args'
p23
S"('formstyle not supported',)"
p24
sS'__reduce__'
p25
S'<built-in method __reduce__ of exceptions.RuntimeError object at 0x112946bd8>'
p26
sS'__str__'
p27
S"<method-wrapper '__str__' of exceptions.RuntimeError object at 0x112946bd8>"
p28
sS'__format__'
p29
S'<built-in method __format__ of exceptions.RuntimeError object at 0x112946bd8>'
p30
sS'__getattribute__'
p31
S"<method-wrapper '__getattribute__' of exceptions.RuntimeError object at 0x112946bd8>"
p32
sS'__class__'
p33
S"<type 'exceptions.RuntimeError'>"
p34
sS'__unicode__'
p35
S'<built-in method __unicode__ of exceptions.RuntimeError object at 0x112946bd8>'
p36
sS'__delattr__'
p37
S"<method-wrapper '__delattr__' of exceptions.RuntimeError object at 0x112946bd8>"
p38
sS'__subclasshook__'
p39
S'<built-in method __subclasshook__ of type object at 0x10011b300>'
p40
sS'__repr__'
p41
S"<method-wrapper '__repr__' of exceptions.RuntimeError object at 0x112946bd8>"
p42
sS'__dict__'
p43
S'{}'
p44
sS'__sizeof__'
p45
S'<built-in method __sizeof__ of exceptions.RuntimeError object at 0x112946bd8>'
p46
sS'__doc__'
p47
S"'Unspecified run-time error.'"
p48
sS'__init__'
p49
S"<method-wrapper '__init__' of exceptions.RuntimeError object at 0x112946bd8>"
p50
sS'__new__'
p51
S'<built-in method __new__ of type object at 0x10011b300>'
p52
ssS'evalue'
p53
S'formstyle not supported'
p54
sS'request'
p55
ccopy_reg
_reconstructor
p56
(cgluon.html
BEAUTIFY
p57
c__builtin__
object
p58
NtRp59
(dp60
S'attributes'
p61
(dp62
sS'components'
p63
(lp64
g56
(cgluon.html
TABLE
p65
g58
NtRp66
(dp67
g61
(dp68
S'level'
p69
I5
ssS'parent'
p70
Nsg63
(lp71
g56
(cgluon.html
TR
p72
g58
NtRp73
(dp74
g61
(dp75
sg70
g66
sg63
(lp76
g56
(cgluon.html
TD
p77
g58
NtRp78
(dp79
g61
(dp80
S'_style'
p81
S'font-weight:bold;'
p82
ssg70
g73
sg63
(lp83
S'ajax'
p84
asbag56
(g77
g58
NtRp85
(dp86
g61
(dp87
S'_valign'
p88
S'top'
p89
ssg70
g73
sg63
(lp90
S':'
asbag56
(g77
g58
NtRp91
(dp92
g61
(dp93
sg70
g73
sg63
(lp94
g56
(g57
g58
NtRp95
(dp96
g61
(dp97
g69
I5
ssg70
g91
sg63
(lp98
S'False'
p99
asbasbasbag56
(g72
g58
NtRp100
(dp101
g61
(dp102
sg70
g66
sg63
(lp103
g56
(g77
g58
NtRp104
(dp105
g61
(dp106
g81
g82
ssg70
g100
sg63
(lp107
S'application'
p108
asbag56
(g77
g58
NtRp109
(dp110
g61
(dp111
g88
g89
ssg70
g100
sg63
(lp112
S':'
asbag56
(g77
g58
NtRp113
(dp114
g61
(dp115
sg70
g100
sg63
(lp116
g56
(g57
g58
NtRp117
(dp118
g61
(dp119
g69
I5
ssg70
g113
sg63
(lp120
S'welcome'
p121
asbasbasbag56
(g72
g58
NtRp122
(dp123
g61
(dp124
sg70
g66
sg63
(lp125
g56
(g77
g58
NtRp126
(dp127
g61
(dp128
g81
g82
ssg70
g122
sg63
(lp129
g23
asbag56
(g77
g58
NtRp130
(dp131
g61
(dp132
g88
g89
ssg70
g122
sg63
(lp133
S':'
asbag56
(g77
g58
NtRp134
(dp135
g61
(dp136
sg70
g122
sg63
(lp137
g56
(g57
g58
NtRp138
(dp139
g61
(dp140
g69
I5
ssg70
g134
sg63
(lp141
g56
(g65
g58
NtRp142
(dp143
g61
(dp144
g69
I4
ssg70
Nsg63
(lp145
sbasbasbasbag56
(g72
g58
NtRp146
(dp147
g61
(dp148
sg70
g66
sg63
(lp149
g56
(g77
g58
NtRp150
(dp151
g61
(dp152
g81
g82
ssg70
g146
sg63
(lp153
S'body'
p154
asbag56
(g77
g58
NtRp155
(dp156
g61
(dp157
g88
g89
ssg70
g146
sg63
(lp158
S':'
asbag56
(g77
g58
NtRp159
(dp160
g61
(dp161
sg70
g146
sg63
(lp162
g56
(g57
g58
NtRp163
(dp164
g61
(dp165
g69
I5
ssg70
g159
sg63
(lp166
S"<open file '<fdopen>', mode 'w+b' at 0x116f6c470>"
p167
asbasbasbag56
(g72
g58
NtRp168
(dp169
g61
(dp170
sg70
g66
sg63
(lp171
g56
(g77
g58
NtRp172
(dp173
g61
(dp174
g81
g82
ssg70
g168
sg63
(lp175
S'client'
p176
asbag56
(g77
g58
NtRp177
(dp178
g61
(dp179
g88
g89
ssg70
g168
sg63
(lp180
S':'
asbag56
(g77
g58
NtRp181
(dp182
g61
(dp183
sg70
g168
sg63
(lp184
g56
(g57
g58
NtRp185
(dp186
g61
(dp187
g69
I5
ssg70
g181
sg63
(lp188
S'127.0.0.1'
p189
asbasbasbag56
(g72
g58
NtRp190
(dp191
g61
(dp192
sg70
g66
sg63
(lp193
g56
(g77
g58
NtRp194
(dp195
g61
(dp196
g81
g82
ssg70
g190
sg63
(lp197
S'controller'
p198
asbag56
(g77
g58
NtRp199
(dp200
g61
(dp201
g88
g89
ssg70
g190
sg63
(lp202
S':'
asbag56
(g77
g58
NtRp203
(dp204
g61
(dp205
sg70
g190
sg63
(lp206
g56
(g57
g58
NtRp207
(dp208
g61
(dp209
g69
I5
ssg70
g203
sg63
(lp210
S'default'
p211
asbasbasbag56
(g72
g58
NtRp212
(dp213
g61
(dp214
sg70
g66
sg63
(lp215
g56
(g77
g58
NtRp216
(dp217
g61
(dp218
g81
g82
ssg70
g212
sg63
(lp219
S'cookies'
p220
asbag56
(g77
g58
NtRp221
(dp222
g61
(dp223
g88
g89
ssg70
g212
sg63
(lp224
S':'
asbag56
(g77
g58
NtRp225
(dp226
g61
(dp227
sg70
g212
sg63
(lp228
g56
(g57
g58
NtRp229
(dp230
g61
(dp231
g69
I5
ssg70
g225
sg63
(lp232
g56
(g65
g58
NtRp233
(dp234
g61
(dp235
g69
I4
ssg70
Nsg63
(lp236
g56
(g72
g58
NtRp237
(dp238
g61
(dp239
sg70
g233
sg63
(lp240
g56
(g77
g58
NtRp241
(dp242
g61
(dp243
g81
g82
ssg70
g237
sg63
(lp244
S'session_id_admin'
p245
asbag56
(g77
g58
NtRp246
(dp247
g61
(dp248
g88
g89
ssg70
g237
sg63
(lp249
S':'
asbag56
(g77
g58
NtRp250
(dp251
g61
(dp252
sg70
g237
sg63
(lp253
g56
(g57
g58
NtRp254
(dp255
g61
(dp256
g69
I4
ssg70
g250
sg63
(lp257
g56
(g65
g58
NtRp258
(dp259
g61
(dp260
g69
I3
ssg70
Nsg63
(lp261
g56
(g72
g58
NtRp262
(dp263
g61
(dp264
sg70
g258
sg63
(lp265
g56
(g77
g58
NtRp266
(dp267
g61
(dp268
g81
g82
ssg70
g262
sg63
(lp269
S'comment'
p270
asbag56
(g77
g58
NtRp271
(dp272
g61
(dp273
g88
g89
ssg70
g262
sg63
(lp274
S':'
asbag56
(g77
g58
NtRp275
(dp276
g61
(dp277
sg70
g262
sg63
(lp278
g56
(g57
g58
NtRp279
(dp280
g61
(dp281
g69
I3
ssg70
g275
sg63
(lp282
S''
asbasbasbag56
(g72
g58
NtRp283
(dp284
g61
(dp285
sg70
g258
sg63
(lp286
g56
(g77
g58
NtRp287
(dp288
g61
(dp289
g81
g82
ssg70
g283
sg63
(lp290
S'domain'
p291
asbag56
(g77
g58
NtRp292
(dp293
g61
(dp294
g88
g89
ssg70
g283
sg63
(lp295
S':'
asbag56
(g77
g58
NtRp296
(dp297
g61
(dp298
sg70
g283
sg63
(lp299
g56
(g57
g58
NtRp300
(dp301
g61
(dp302
g69
I3
ssg70
g296
sg63
(lp303
S''
asbasbasbag56
(g72
g58
NtRp304
(dp305
g61
(dp306
sg70
g258
sg63
(lp307
g56
(g77
g58
NtRp308
(dp309
g61
(dp310
g81
g82
ssg70
g304
sg63
(lp311
S'expires'
p312
asbag56
(g77
g58
NtRp313
(dp314
g61
(dp315
g88
g89
ssg70
g304
sg63
(lp316
S':'
asbag56
(g77
g58
NtRp317
(dp318
g61
(dp319
sg70
g304
sg63
(lp320
g56
(g57
g58
NtRp321
(dp322
g61
(dp323
g69
I3
ssg70
g317
sg63
(lp324
S''
asbasbasbag56
(g72
g58
NtRp325
(dp326
g61
(dp327
sg70
g258
sg63
(lp328
g56
(g77
g58
NtRp329
(dp330
g61
(dp331
g81
g82
ssg70
g325
sg63
(lp332
S'httponly'
p333
asbag56
(g77
g58
NtRp334
(dp335
g61
(dp336
g88
g89
ssg70
g325
sg63
(lp337
S':'
asbag56
(g77
g58
NtRp338
(dp339
g61
(dp340
sg70
g325
sg63
(lp341
g56
(g57
g58
NtRp342
(dp343
g61
(dp344
g69
I3
ssg70
g338
sg63
(lp345
S''
asbasbasbag56
(g72
g58
NtRp346
(dp347
g61
(dp348
sg70
g258
sg63
(lp349
g56
(g77
g58
NtRp350
(dp351
g61
(dp352
g81
g82
ssg70
g346
sg63
(lp353
S'max-age'
p354
asbag56
(g77
g58
NtRp355
(dp356
g61
(dp357
g88
g89
ssg70
g346
sg63
(lp358
S':'
asbag56
(g77
g58
NtRp359
(dp360
g61
(dp361
sg70
g346
sg63
(lp362
g56
(g57
g58
NtRp363
(dp364
g61
(dp365
g69
I3
ssg70
g359
sg63
(lp366
S''
asbasbasbag56
(g72
g58
NtRp367
(dp368
g61
(dp369
sg70
g258
sg63
(lp370
g56
(g77
g58
NtRp371
(dp372
g61
(dp373
g81
g82
ssg70
g367
sg63
(lp374
S'path'
p375
asbag56
(g77
g58
NtRp376
(dp377
g61
(dp378
g88
g89
ssg70
g367
sg63
(lp379
S':'
asbag56
(g77
g58
NtRp380
(dp381
g61
(dp382
sg70
g367
sg63
(lp383
g56
(g57
g58
NtRp384
(dp385
g61
(dp386
g69
I3
ssg70
g380
sg63
(lp387
S''
asbasbasbag56
(g72
g58
NtRp388
(dp389
g61
(dp390
sg70
g258
sg63
(lp391
g56
(g77
g58
NtRp392
(dp393
g61
(dp394
g81
g82
ssg70
g388
sg63
(lp395
S'secure'
p396
asbag56
(g77
g58
NtRp397
(dp398
g61
(dp399
g88
g89
ssg70
g388
sg63
(lp400
S':'
asbag56
(g77
g58
NtRp401
(dp402
g61
(dp403
sg70
g388
sg63
(lp404
g56
(g57
g58
NtRp405
(dp406
g61
(dp407
g69
I3
ssg70
g401
sg63
(lp408
S''
asbasbasbag56
(g72
g58
NtRp409
(dp410
g61
(dp411
sg70
g258
sg63
(lp412
g56
(g77
g58
NtRp413
(dp414
g61
(dp415
g81
g82
ssg70
g409
sg63
(lp416
S'version'
p417
asbag56
(g77
g58
NtRp418
(dp419
g61
(dp420
g88
g89
ssg70
g409
sg63
(lp421
S':'
asbag56
(g77
g58
NtRp422
(dp423
g61
(dp424
sg70
g409
sg63
(lp425
g56
(g57
g58
NtRp426
(dp427
g61
(dp428
g69
I3
ssg70
g422
sg63
(lp429
S''
asbasbasbasbasbasbasbag56
(g72
g58
NtRp430
(dp431
g61
(dp432
sg70
g233
sg63
(lp433
g56
(g77
g58
NtRp434
(dp435
g61
(dp436
g81
g82
ssg70
g430
sg63
(lp437
S'session_id_welcome'
p438
asbag56
(g77
g58
NtRp439
(dp440
g61
(dp441
g88
g89
ssg70
g430
sg63
(lp442
S':'
asbag56
(g77
g58
NtRp443
(dp444
g61
(dp445
sg70
g430
sg63
(lp446
g56
(g57
g58
NtRp447
(dp448
g61
(dp449
g69
I4
ssg70
g443
sg63
(lp450
g56
(g65
g58
NtRp451
(dp452
g61
(dp453
g69
I3
ssg70
Nsg63
(lp454
g56
(g72
g58
NtRp455
(dp456
g61
(dp457
sg70
g451
sg63
(lp458
g56
(g77
g58
NtRp459
(dp460
g61
(dp461
g81
g82
ssg70
g455
sg63
(lp462
g270
asbag56
(g77
g58
NtRp463
(dp464
g61
(dp465
g88
g89
ssg70
g455
sg63
(lp466
S':'
asbag56
(g77
g58
NtRp467
(dp468
g61
(dp469
sg70
g455
sg63
(lp470
g56
(g57
g58
NtRp471
(dp472
g61
(dp473
g69
I3
ssg70
g467
sg63
(lp474
S''
asbasbasbag56
(g72
g58
NtRp475
(dp476
g61
(dp477
sg70
g451
sg63
(lp478
g56
(g77
g58
NtRp479
(dp480
g61
(dp481
g81
g82
ssg70
g475
sg63
(lp482
g291
asbag56
(g77
g58
NtRp483
(dp484
g61
(dp485
g88
g89
ssg70
g475
sg63
(lp486
S':'
asbag56
(g77
g58
NtRp487
(dp488
g61
(dp489
sg70
g475
sg63
(lp490
g56
(g57
g58
NtRp491
(dp492
g61
(dp493
g69
I3
ssg70
g487
sg63
(lp494
S''
asbasbasbag56
(g72
g58
NtRp495
(dp496
g61
(dp497
sg70
g451
sg63
(lp498
g56
(g77
g58
NtRp499
(dp500
g61
(dp501
g81
g82
ssg70
g495
sg63
(lp502
g312
asbag56
(g77
g58
NtRp503
(dp504
g61
(dp505
g88
g89
ssg70
g495
sg63
(lp506
S':'
asbag56
(g77
g58
NtRp507
(dp508
g61
(dp509
sg70
g495
sg63
(lp510
g56
(g57
g58
NtRp511
(dp512
g61
(dp513
g69
I3
ssg70
g507
sg63
(lp514
S''
asbasbasbag56
(g72
g58
NtRp515
(dp516
g61
(dp517
sg70
g451
sg63
(lp518
g56
(g77
g58
NtRp519
(dp520
g61
(dp521
g81
g82
ssg70
g515
sg63
(lp522
g333
asbag56
(g77
g58
NtRp523
(dp524
g61
(dp525
g88
g89
ssg70
g515
sg63
(lp526
S':'
asbag56
(g77
g58
NtRp527
(dp528
g61
(dp529
sg70
g515
sg63
(lp530
g56
(g57
g58
NtRp531
(dp532
g61
(dp533
g69
I3
ssg70
g527
sg63
(lp534
S''
asbasbasbag56
(g72
g58
NtRp535
(dp536
g61
(dp537
sg70
g451
sg63
(lp538
g56
(g77
g58
NtRp539
(dp540
g61
(dp541
g81
g82
ssg70
g535
sg63
(lp542
g354
asbag56
(g77
g58
NtRp543
(dp544
g61
(dp545
g88
g89
ssg70
g535
sg63
(lp546
S':'
asbag56
(g77
g58
NtRp547
(dp548
g61
(dp549
sg70
g535
sg63
(lp550
g56
(g57
g58
NtRp551
(dp552
g61
(dp553
g69
I3
ssg70
g547
sg63
(lp554
S''
asbasbasbag56
(g72
g58
NtRp555
(dp556
g61
(dp557
sg70
g451
sg63
(lp558
g56
(g77
g58
NtRp559
(dp560
g61
(dp561
g81
g82
ssg70
g555
sg63
(lp562
g375
asbag56
(g77
g58
NtRp563
(dp564
g61
(dp565
g88
g89
ssg70
g555
sg63
(lp566
S':'
asbag56
(g77
g58
NtRp567
(dp568
g61
(dp569
sg70
g555
sg63
(lp570
g56
(g57
g58
NtRp571
(dp572
g61
(dp573
g69
I3
ssg70
g567
sg63
(lp574
S''
asbasbasbag56
(g72
g58
NtRp575
(dp576
g61
(dp577
sg70
g451
sg63
(lp578
g56
(g77
g58
NtRp579
(dp580
g61
(dp581
g81
g82
ssg70
g575
sg63
(lp582
g396
asbag56
(g77
g58
NtRp583
(dp584
g61
(dp585
g88
g89
ssg70
g575
sg63
(lp586
S':'
asbag56
(g77
g58
NtRp587
(dp588
g61
(dp589
sg70
g575
sg63
(lp590
g56
(g57
g58
NtRp591
(dp592
g61
(dp593
g69
I3
ssg70
g587
sg63
(lp594
S''
asbasbasbag56
(g72
g58
NtRp595
(dp596
g61
(dp597
sg70
g451
sg63
(lp598
g56
(g77
g58
NtRp599
(dp600
g61
(dp601
g81
g82
ssg70
g595
sg63
(lp602
g417
asbag56
(g77
g58
NtRp603
(dp604
g61
(dp605
g88
g89
ssg70
g595
sg63
(lp606
S':'
asbag56
(g77
g58
NtRp607
(dp608
g61
(dp609
sg70
g595
sg63
(lp610
g56
(g57
g58
NtRp611
(dp612
g61
(dp613
g69
I3
ssg70
g607
sg63
(lp614
S''
asbasbasbasbasbasbasbasbasbasbasbag56
(g72
g58
NtRp615
(dp616
g61
(dp617
sg70
g66
sg63
(lp618
g56
(g77
g58
NtRp619
(dp620
g61
(dp621
g81
g82
ssg70
g615
sg63
(lp622
S'env'
p623
asbag56
(g77
g58
NtRp624
(dp625
g61
(dp626
g88
g89
ssg70
g615
sg63
(lp627
S':'
asbag56
(g77
g58
NtRp628
(dp629
g61
(dp630
sg70
g615
sg63
(lp631
g56
(g57
g58
NtRp632
(dp633
g61
(dp634
g69
I5
ssg70
g628
sg63
(lp635
g56
(g65
g58
NtRp636
(dp637
g61
(dp638
g69
I4
ssg70
Nsg63
(lp639
g56
(g72
g58
NtRp640
(dp641
g61
(dp642
sg70
g636
sg63
(lp643
g56
(g77
g58
NtRp644
(dp645
g61
(dp646
g81
g82
ssg70
g640
sg63
(lp647
S'app_folders'
p648
asbag56
(g77
g58
NtRp649
(dp650
g61
(dp651
g88
g89
ssg70
g640
sg63
(lp652
S':'
asbag56
(g77
g58
NtRp653
(dp654
g61
(dp655
sg70
g640
sg63
(lp656
g56
(g57
g58
NtRp657
(dp658
g61
(dp659
g69
I4
ssg70
g653
sg63
(lp660
S"set(['/Users/excon/Sites/dreamscape/applications/welcome/', '/Users/excon/Sites/dreamscape/applications/admin/'])"
p661
asbasbasbag56
(g72
g58
NtRp662
(dp663
g61
(dp664
sg70
g636
sg63
(lp665
g56
(g77
g58
NtRp666
(dp667
g61
(dp668
g81
g82
ssg70
g662
sg63
(lp669
S'applications_parent'
p670
asbag56
(g77
g58
NtRp671
(dp672
g61
(dp673
g88
g89
ssg70
g662
sg63
(lp674
S':'
asbag56
(g77
g58
NtRp675
(dp676
g61
(dp677
sg70
g662
sg63
(lp678
g56
(g57
g58
NtRp679
(dp680
g61
(dp681
g69
I4
ssg70
g675
sg63
(lp682
S'/Users/excon/Sites/dreamscape'
p683
asbasbasbag56
(g72
g58
NtRp684
(dp685
g61
(dp686
sg70
g636
sg63
(lp687
g56
(g77
g58
NtRp688
(dp689
g61
(dp690
g81
g82
ssg70
g684
sg63
(lp691
S'cmd_args'
p692
asbag56
(g77
g58
NtRp693
(dp694
g61
(dp695
g88
g89
ssg70
g684
sg63
(lp696
S':'
asbag56
(g77
g58
NtRp697
(dp698
g61
(dp699
sg70
g684
sg63
(lp700
g56
(g57
g58
NtRp701
(dp702
g61
(dp703
g69
I4
ssg70
g697
sg63
(lp704
g56
(g65
g58
NtRp705
(dp706
g61
(dp707
g69
I3
ssg70
Nsg63
(lp708
sbasbasbasbag56
(g72
g58
NtRp709
(dp710
g61
(dp711
sg70
g636
sg63
(lp712
g56
(g77
g58
NtRp713
(dp714
g61
(dp715
g81
g82
ssg70
g709
sg63
(lp716
S'cmd_options'
p717
asbag56
(g77
g58
NtRp718
(dp719
g61
(dp720
g88
g89
ssg70
g709
sg63
(lp721
S':'
asbag56
(g77
g58
NtRp722
(dp723
g61
(dp724
sg70
g709
sg63
(lp725
g56
(g57
g58
NtRp726
(dp727
g61
(dp728
g69
I4
ssg70
g722
sg63
(lp729
S"<Values at 0x101c08e18: {'verbose': False, 'ip': '127.0.0.1', 'shutdown_timeout': 5, 'taskbar': False, 'nocron': False, 'pid_filename': 'httpserver.pid', 'maxthreads': None, 'softcron': False, 'server_name': 'Excons-MacBook.local', 'bpython': False, 'nogui': False, 'port': 8000, 'extcron': False, 'debuglevel': 30, 'test': None, 'folder': '/Users/excon/Sites/dreamscape', 'config': '', 'import_models': False, 'winservice': '', 'shell': None, 'run': '', 'log_filename': 'httpserver.log', 'args': [''], 'ssl_ca_certificate': None, 'scheduler': None, 'profiler_filename': None, 'ssl_private_key': '', 'password': '<ask>', 'request_queue_size': 5, 'ssl_certificate': '', 'cronjob': False, 'plain': False, 'quiet': False, 'interfaces': None, 'minthreads': None, 'timeout': 10, 'numthreads': None, 'nobanner': False}>"
p730
asbasbasbag56
(g72
g58
NtRp731
(dp732
g61
(dp733
sg70
g636
sg63
(lp734
g56
(g77
g58
NtRp735
(dp736
g61
(dp737
g81
g82
ssg70
g731
sg63
(lp738
S'content_length'
p739
asbag56
(g77
g58
NtRp740
(dp741
g61
(dp742
g88
g89
ssg70
g731
sg63
(lp743
S':'
asbag56
(g77
g58
NtRp744
(dp745
g61
(dp746
sg70
g731
sg63
(lp747
g56
(g57
g58
NtRp748
(dp749
g61
(dp750
g69
I4
ssg70
g744
sg63
(lp751
S'458'
p752
asbasbasbag56
(g72
g58
NtRp753
(dp754
g61
(dp755
sg70
g636
sg63
(lp756
g56
(g77
g58
NtRp757
(dp758
g61
(dp759
g81
g82
ssg70
g753
sg63
(lp760
S'content_type'
p761
asbag56
(g77
g58
NtRp762
(dp763
g61
(dp764
g88
g89
ssg70
g753
sg63
(lp765
S':'
asbag56
(g77
g58
NtRp766
(dp767
g61
(dp768
sg70
g753
sg63
(lp769
g56
(g57
g58
NtRp770
(dp771
g61
(dp772
g69
I4
ssg70
g766
sg63
(lp773
S'multipart/form-data; boundary=---------------------------126097367118158599011267248590'
p774
asbasbasbag56
(g72
g58
NtRp775
(dp776
g61
(dp777
sg70
g636
sg63
(lp778
g56
(g77
g58
NtRp779
(dp780
g61
(dp781
g81
g82
ssg70
g775
sg63
(lp782
S'db_sessions'
p783
asbag56
(g77
g58
NtRp784
(dp785
g61
(dp786
g88
g89
ssg70
g775
sg63
(lp787
S':'
asbag56
(g77
g58
NtRp788
(dp789
g61
(dp790
sg70
g775
sg63
(lp791
g56
(g57
g58
NtRp792
(dp793
g61
(dp794
g69
I4
ssg70
g788
sg63
(lp795
S'set([])'
p796
asbasbasbag56
(g72
g58
NtRp797
(dp798
g61
(dp799
sg70
g636
sg63
(lp800
g56
(g77
g58
NtRp801
(dp802
g61
(dp803
g81
g82
ssg70
g797
sg63
(lp804
S'debugging'
p805
asbag56
(g77
g58
NtRp806
(dp807
g61
(dp808
g88
g89
ssg70
g797
sg63
(lp809
S':'
asbag56
(g77
g58
NtRp810
(dp811
g61
(dp812
sg70
g797
sg63
(lp813
g56
(g57
g58
NtRp814
(dp815
g61
(dp816
g69
I4
ssg70
g810
sg63
(lp817
g99
asbasbasbag56
(g72
g58
NtRp818
(dp819
g61
(dp820
sg70
g636
sg63
(lp821
g56
(g77
g58
NtRp822
(dp823
g61
(dp824
g81
g82
ssg70
g818
sg63
(lp825
S'gluon_parent'
p826
asbag56
(g77
g58
NtRp827
(dp828
g61
(dp829
g88
g89
ssg70
g818
sg63
(lp830
S':'
asbag56
(g77
g58
NtRp831
(dp832
g61
(dp833
sg70
g818
sg63
(lp834
g56
(g57
g58
NtRp835
(dp836
g61
(dp837
g69
I4
ssg70
g831
sg63
(lp838
S'/Users/excon/Sites/dreamscape'
p839
asbasbasbag56
(g72
g58
NtRp840
(dp841
g61
(dp842
sg70
g636
sg63
(lp843
g56
(g77
g58
NtRp844
(dp845
g61
(dp846
g81
g82
ssg70
g840
sg63
(lp847
S'http_accept'
p848
asbag56
(g77
g58
NtRp849
(dp850
g61
(dp851
g88
g89
ssg70
g840
sg63
(lp852
S':'
asbag56
(g77
g58
NtRp853
(dp854
g61
(dp855
sg70
g840
sg63
(lp856
g56
(g57
g58
NtRp857
(dp858
g61
(dp859
g69
I4
ssg70
g853
sg63
(lp860
S'text/html,application/xhtml+xml,application/xml;q=0.9,*/*;q=0.8'
p861
asbasbasbag56
(g72
g58
NtRp862
(dp863
g61
(dp864
sg70
g636
sg63
(lp865
g56
(g77
g58
NtRp866
(dp867
g61
(dp868
g81
g82
ssg70
g862
sg63
(lp869
S'http_accept_charset'
p870
asbag56
(g77
g58
NtRp871
(dp872
g61
(dp873
g88
g89
ssg70
g862
sg63
(lp874
S':'
asbag56
(g77
g58
NtRp875
(dp876
g61
(dp877
sg70
g862
sg63
(lp878
g56
(g57
g58
NtRp879
(dp880
g61
(dp881
g69
I4
ssg70
g875
sg63
(lp882
S'ISO-8859-1,utf-8;q=0.7,*;q=0.7'
p883
asbasbasbag56
(g72
g58
NtRp884
(dp885
g61
(dp886
sg70
g636
sg63
(lp887
g56
(g77
g58
NtRp888
(dp889
g61
(dp890
g81
g82
ssg70
g884
sg63
(lp891
S'http_accept_encoding'
p892
asbag56
(g77
g58
NtRp893
(dp894
g61
(dp895
g88
g89
ssg70
g884
sg63
(lp896
S':'
asbag56
(g77
g58
NtRp897
(dp898
g61
(dp899
sg70
g884
sg63
(lp900
g56
(g57
g58
NtRp901
(dp902
g61
(dp903
g69
I4
ssg70
g897
sg63
(lp904
S'gzip, deflate'
p905
asbasbasbag56
(g72
g58
NtRp906
(dp907
g61
(dp908
sg70
g636
sg63
(lp909
g56
(g77
g58
NtRp910
(dp911
g61
(dp912
g81
g82
ssg70
g906
sg63
(lp913
S'http_accept_language'
p914
asbag56
(g77
g58
NtRp915
(dp916
g61
(dp917
g88
g89
ssg70
g906
sg63
(lp918
S':'
asbag56
(g77
g58
NtRp919
(dp920
g61
(dp921
sg70
g906
sg63
(lp922
g56
(g57
g58
NtRp923
(dp924
g61
(dp925
g69
I4
ssg70
g919
sg63
(lp926
S'en-us,en;q=0.5'
p927
asbasbasbag56
(g72
g58
NtRp928
(dp929
g61
(dp930
sg70
g636
sg63
(lp931
g56
(g77
g58
NtRp932
(dp933
g61
(dp934
g81
g82
ssg70
g928
sg63
(lp935
S'http_cache_control'
p936
asbag56
(g77
g58
NtRp937
(dp938
g61
(dp939
g88
g89
ssg70
g928
sg63
(lp940
S':'
asbag56
(g77
g58
NtRp941
(dp942
g61
(dp943
sg70
g928
sg63
(lp944
g56
(g57
g58
NtRp945
(dp946
g61
(dp947
g69
I4
ssg70
g941
sg63
(lp948
S'max-age=0'
p949
asbasbasbag56
(g72
g58
NtRp950
(dp951
g61
(dp952
sg70
g636
sg63
(lp953
g56
(g77
g58
NtRp954
(dp955
g61
(dp956
g81
g82
ssg70
g950
sg63
(lp957
S'http_connection'
p958
asbag56
(g77
g58
NtRp959
(dp960
g61
(dp961
g88
g89
ssg70
g950
sg63
(lp962
S':'
asbag56
(g77
g58
NtRp963
(dp964
g61
(dp965
sg70
g950
sg63
(lp966
g56
(g57
g58
NtRp967
(dp968
g61
(dp969
g69
I4
ssg70
g963
sg63
(lp970
S'keep-alive'
p971
asbasbasbag56
(g72
g58
NtRp972
(dp973
g61
(dp974
sg70
g636
sg63
(lp975
g56
(g77
g58
NtRp976
(dp977
g61
(dp978
g81
g82
ssg70
g972
sg63
(lp979
S'http_content_length'
p980
asbag56
(g77
g58
NtRp981
(dp982
g61
(dp983
g88
g89
ssg70
g972
sg63
(lp984
S':'
asbag56
(g77
g58
NtRp985
(dp986
g61
(dp987
sg70
g972
sg63
(lp988
g56
(g57
g58
NtRp989
(dp990
g61
(dp991
g69
I4
ssg70
g985
sg63
(lp992
g752
asbasbasbag56
(g72
g58
NtRp993
(dp994
g61
(dp995
sg70
g636
sg63
(lp996
g56
(g77
g58
NtRp997
(dp998
g61
(dp999
g81
g82
ssg70
g993
sg63
(lp1000
S'http_content_type'
p1001
asbag56
(g77
g58
NtRp1002
(dp1003
g61
(dp1004
g88
g89
ssg70
g993
sg63
(lp1005
S':'
asbag56
(g77
g58
NtRp1006
(dp1007
g61
(dp1008
sg70
g993
sg63
(lp1009
g56
(g57
g58
NtRp1010
(dp1011
g61
(dp1012
g69
I4
ssg70
g1006
sg63
(lp1013
g774
asbasbasbag56
(g72
g58
NtRp1014
(dp1015
g61
(dp1016
sg70
g636
sg63
(lp1017
g56
(g77
g58
NtRp1018
(dp1019
g61
(dp1020
g81
g82
ssg70
g1014
sg63
(lp1021
S'http_cookie'
p1022
asbag56
(g77
g58
NtRp1023
(dp1024
g61
(dp1025
g88
g89
ssg70
g1014
sg63
(lp1026
S':'
asbag56
(g77
g58
NtRp1027
(dp1028
g61
(dp1029
sg70
g1014
sg63
(lp1030
g56
(g57
g58
NtRp1031
(dp1032
g61
(dp1033
g69
I4
ssg70
g1027
sg63
(lp1034
S'session_id_admin=127.0.0.1-3f2f91da-50db-4004-b086-80abaa693153; session_id_welcome=127.0.0.1-51cc951f-9f8f-44c6-96d8-bac94161d020'
p1035
asbasbasbag56
(g72
g58
NtRp1036
(dp1037
g61
(dp1038
sg70
g636
sg63
(lp1039
g56
(g77
g58
NtRp1040
(dp1041
g61
(dp1042
g81
g82
ssg70
g1036
sg63
(lp1043
S'http_host'
p1044
asbag56
(g77
g58
NtRp1045
(dp1046
g61
(dp1047
g88
g89
ssg70
g1036
sg63
(lp1048
S':'
asbag56
(g77
g58
NtRp1049
(dp1050
g61
(dp1051
sg70
g1036
sg63
(lp1052
g56
(g57
g58
NtRp1053
(dp1054
g61
(dp1055
g69
I4
ssg70
g1049
sg63
(lp1056
S'localhost:8000'
p1057
asbasbasbag56
(g72
g58
NtRp1058
(dp1059
g61
(dp1060
sg70
g636
sg63
(lp1061
g56
(g77
g58
NtRp1062
(dp1063
g61
(dp1064
g81
g82
ssg70
g1058
sg63
(lp1065
S'http_referer'
p1066
asbag56
(g77
g58
NtRp1067
(dp1068
g61
(dp1069
g88
g89
ssg70
g1058
sg63
(lp1070
S':'
asbag56
(g77
g58
NtRp1071
(dp1072
g61
(dp1073
sg70
g1058
sg63
(lp1074
g56
(g57
g58
NtRp1075
(dp1076
g61
(dp1077
g69
I4
ssg70
g1071
sg63
(lp1078
S'http://localhost:8000/welcome/default/coming_soon'
p1079
asbasbasbag56
(g72
g58
NtRp1080
(dp1081
g61
(dp1082
sg70
g636
sg63
(lp1083
g56
(g77
g58
NtRp1084
(dp1085
g61
(dp1086
g81
g82
ssg70
g1080
sg63
(lp1087
S'http_user_agent'
p1088
asbag56
(g77
g58
NtRp1089
(dp1090
g61
(dp1091
g88
g89
ssg70
g1080
sg63
(lp1092
S':'
asbag56
(g77
g58
NtRp1093
(dp1094
g61
(dp1095
sg70
g1080
sg63
(lp1096
g56
(g57
g58
NtRp1097
(dp1098
g61
(dp1099
g69
I4
ssg70
g1093
sg63
(lp1100
S'Mozilla/5.0 (Macintosh; Intel Mac OS X 10.6; rv:6.0.2) Gecko/20100101 Firefox/6.0.2'
p1101
asbasbasbag56
(g72
g58
NtRp1102
(dp1103
g61
(dp1104
sg70
g636
sg63
(lp1105
g56
(g77
g58
NtRp1106
(dp1107
g61
(dp1108
g81
g82
ssg70
g1102
sg63
(lp1109
S'is_jython'
p1110
asbag56
(g77
g58
NtRp1111
(dp1112
g61
(dp1113
g88
g89
ssg70
g1102
sg63
(lp1114
S':'
asbag56
(g77
g58
NtRp1115
(dp1116
g61
(dp1117
sg70
g1102
sg63
(lp1118
g56
(g57
g58
NtRp1119
(dp1120
g61
(dp1121
g69
I4
ssg70
g1115
sg63
(lp1122
g99
asbasbasbag56
(g72
g58
NtRp1123
(dp1124
g61
(dp1125
sg70
g636
sg63
(lp1126
g56
(g77
g58
NtRp1127
(dp1128
g61
(dp1129
g81
g82
ssg70
g1123
sg63
(lp1130
S'path_info'
p1131
asbag56
(g77
g58
NtRp1132
(dp1133
g61
(dp1134
g88
g89
ssg70
g1123
sg63
(lp1135
S':'
asbag56
(g77
g58
NtRp1136
(dp1137
g61
(dp1138
sg70
g1123
sg63
(lp1139
g56
(g57
g58
NtRp1140
(dp1141
g61
(dp1142
g69
I4
ssg70
g1136
sg63
(lp1143
S'/welcome/default/coming_soon'
p1144
asbasbasbag56
(g72
g58
NtRp1145
(dp1146
g61
(dp1147
sg70
g636
sg63
(lp1148
g56
(g77
g58
NtRp1149
(dp1150
g61
(dp1151
g81
g82
ssg70
g1145
sg63
(lp1152
S'query_string'
p1153
asbag56
(g77
g58
NtRp1154
(dp1155
g61
(dp1156
g88
g89
ssg70
g1145
sg63
(lp1157
S':'
asbag56
(g77
g58
NtRp1158
(dp1159
g61
(dp1160
sg70
g1145
sg63
(lp1161
g56
(g57
g58
NtRp1162
(dp1163
g61
(dp1164
g69
I4
ssg70
g1158
sg63
(lp1165
S''
asbasbasbag56
(g72
g58
NtRp1166
(dp1167
g61
(dp1168
sg70
g636
sg63
(lp1169
g56
(g77
g58
NtRp1170
(dp1171
g61
(dp1172
g81
g82
ssg70
g1166
sg63
(lp1173
S'remote_addr'
p1174
asbag56
(g77
g58
NtRp1175
(dp1176
g61
(dp1177
g88
g89
ssg70
g1166
sg63
(lp1178
S':'
asbag56
(g77
g58
NtRp1179
(dp1180
g61
(dp1181
sg70
g1166
sg63
(lp1182
g56
(g57
g58
NtRp1183
(dp1184
g61
(dp1185
g69
I4
ssg70
g1179
sg63
(lp1186
g189
asbasbasbag56
(g72
g58
NtRp1187
(dp1188
g61
(dp1189
sg70
g636
sg63
(lp1190
g56
(g77
g58
NtRp1191
(dp1192
g61
(dp1193
g81
g82
ssg70
g1187
sg63
(lp1194
S'remote_port'
p1195
asbag56
(g77
g58
NtRp1196
(dp1197
g61
(dp1198
g88
g89
ssg70
g1187
sg63
(lp1199
S':'
asbag56
(g77
g58
NtRp1200
(dp1201
g61
(dp1202
sg70
g1187
sg63
(lp1203
g56
(g57
g58
NtRp1204
(dp1205
g61
(dp1206
g69
I4
ssg70
g1200
sg63
(lp1207
S'56422'
p1208
asbasbasbag56
(g72
g58
NtRp1209
(dp1210
g61
(dp1211
sg70
g636
sg63
(lp1212
g56
(g77
g58
NtRp1213
(dp1214
g61
(dp1215
g81
g82
ssg70
g1209
sg63
(lp1216
S'request_method'
p1217
asbag56
(g77
g58
NtRp1218
(dp1219
g61
(dp1220
g88
g89
ssg70
g1209
sg63
(lp1221
S':'
asbag56
(g77
g58
NtRp1222
(dp1223
g61
(dp1224
sg70
g1209
sg63
(lp1225
g56
(g57
g58
NtRp1226
(dp1227
g61
(dp1228
g69
I4
ssg70
g1222
sg63
(lp1229
S'POST'
p1230
asbasbasbag56
(g72
g58
NtRp1231
(dp1232
g61
(dp1233
sg70
g636
sg63
(lp1234
g56
(g77
g58
NtRp1235
(dp1236
g61
(dp1237
g81
g82
ssg70
g1231
sg63
(lp1238
S'script_name'
p1239
asbag56
(g77
g58
NtRp1240
(dp1241
g61
(dp1242
g88
g89
ssg70
g1231
sg63
(lp1243
S':'
asbag56
(g77
g58
NtRp1244
(dp1245
g61
(dp1246
sg70
g1231
sg63
(lp1247
g56
(g57
g58
NtRp1248
(dp1249
g61
(dp1250
g69
I4
ssg70
g1244
sg63
(lp1251
S''
asbasbasbag56
(g72
g58
NtRp1252
(dp1253
g61
(dp1254
sg70
g636
sg63
(lp1255
g56
(g77
g58
NtRp1256
(dp1257
g61
(dp1258
g81
g82
ssg70
g1252
sg63
(lp1259
S'server_name'
p1260
asbag56
(g77
g58
NtRp1261
(dp1262
g61
(dp1263
g88
g89
ssg70
g1252
sg63
(lp1264
S':'
asbag56
(g77
g58
NtRp1265
(dp1266
g61
(dp1267
sg70
g1252
sg63
(lp1268
g56
(g57
g58
NtRp1269
(dp1270
g61
(dp1271
g69
I4
ssg70
g1265
sg63
(lp1272
S'Excons-MacBook.local'
p1273
asbasbasbag56
(g72
g58
NtRp1274
(dp1275
g61
(dp1276
sg70
g636
sg63
(lp1277
g56
(g77
g58
NtRp1278
(dp1279
g61
(dp1280
g81
g82
ssg70
g1274
sg63
(lp1281
S'server_port'
p1282
asbag56
(g77
g58
NtRp1283
(dp1284
g61
(dp1285
g88
g89
ssg70
g1274
sg63
(lp1286
S':'
asbag56
(g77
g58
NtRp1287
(dp1288
g61
(dp1289
sg70
g1274
sg63
(lp1290
g56
(g57
g58
NtRp1291
(dp1292
g61
(dp1293
g69
I4
ssg70
g1287
sg63
(lp1294
S'8000'
p1295
asbasbasbag56
(g72
g58
NtRp1296
(dp1297
g61
(dp1298
sg70
g636
sg63
(lp1299
g56
(g77
g58
NtRp1300
(dp1301
g61
(dp1302
g81
g82
ssg70
g1296
sg63
(lp1303
S'server_protocol'
p1304
asbag56
(g77
g58
NtRp1305
(dp1306
g61
(dp1307
g88
g89
ssg70
g1296
sg63
(lp1308
S':'
asbag56
(g77
g58
NtRp1309
(dp1310
g61
(dp1311
sg70
g1296
sg63
(lp1312
g56
(g57
g58
NtRp1313
(dp1314
g61
(dp1315
g69
I4
ssg70
g1309
sg63
(lp1316
S'HTTP/1.1'
p1317
asbasbasbag56
(g72
g58
NtRp1318
(dp1319
g61
(dp1320
sg70
g636
sg63
(lp1321
g56
(g77
g58
NtRp1322
(dp1323
g61
(dp1324
g81
g82
ssg70
g1318
sg63
(lp1325
S'server_software'
p1326
asbag56
(g77
g58
NtRp1327
(dp1328
g61
(dp1329
g88
g89
ssg70
g1318
sg63
(lp1330
S':'
asbag56
(g77
g58
NtRp1331
(dp1332
g61
(dp1333
sg70
g1318
sg63
(lp1334
g56
(g57
g58
NtRp1335
(dp1336
g61
(dp1337
g69
I4
ssg70
g1331
sg63
(lp1338
S'Rocket 1.2.4'
p1339
asbasbasbag56
(g72
g58
NtRp1340
(dp1341
g61
(dp1342
sg70
g636
sg63
(lp1343
g56
(g77
g58
NtRp1344
(dp1345
g61
(dp1346
g81
g82
ssg70
g1340
sg63
(lp1347
S'web2py_crontype'
p1348
asbag56
(g77
g58
NtRp1349
(dp1350
g61
(dp1351
g88
g89
ssg70
g1340
sg63
(lp1352
S':'
asbag56
(g77
g58
NtRp1353
(dp1354
g61
(dp1355
sg70
g1340
sg63
(lp1356
g56
(g57
g58
NtRp1357
(dp1358
g61
(dp1359
g69
I4
ssg70
g1353
sg63
(lp1360
S'hard'
p1361
asbasbasbag56
(g72
g58
NtRp1362
(dp1363
g61
(dp1364
sg70
g636
sg63
(lp1365
g56
(g77
g58
NtRp1366
(dp1367
g61
(dp1368
g81
g82
ssg70
g1362
sg63
(lp1369
S'web2py_path'
p1370
asbag56
(g77
g58
NtRp1371
(dp1372
g61
(dp1373
g88
g89
ssg70
g1362
sg63
(lp1374
S':'
asbag56
(g77
g58
NtRp1375
(dp1376
g61
(dp1377
sg70
g1362
sg63
(lp1378
g56
(g57
g58
NtRp1379
(dp1380
g61
(dp1381
g69
I4
ssg70
g1375
sg63
(lp1382
g683
asbasbasbag56
(g72
g58
NtRp1383
(dp1384
g61
(dp1385
sg70
g636
sg63
(lp1386
g56
(g77
g58
NtRp1387
(dp1388
g61
(dp1389
g81
g82
ssg70
g1383
sg63
(lp1390
S'web2py_version'
p1391
asbag56
(g77
g58
NtRp1392
(dp1393
g61
(dp1394
g88
g89
ssg70
g1383
sg63
(lp1395
S':'
asbag56
(g77
g58
NtRp1396
(dp1397
g61
(dp1398
sg70
g1383
sg63
(lp1399
g56
(g57
g58
NtRp1400
(dp1401
g61
(dp1402
g69
I4
ssg70
g1396
sg63
(lp1403
g56
(g65
g58
NtRp1404
(dp1405
g61
(dp1406
g69
I3
ssg70
Nsg63
(lp1407
g56
(g72
g58
NtRp1408
(dp1409
g61
(dp1410
sg70
g1404
sg63
(lp1411
g56
(g77
g58
NtRp1412
(dp1413
g61
(dp1414
sg70
g1408
sg63
(lp1415
g56
(g57
g58
NtRp1416
(dp1417
g61
(dp1418
g69
I3
ssg70
g1412
sg63
(lp1419
S'1'
asbasbasbag56
(g72
g58
NtRp1420
(dp1421
g61
(dp1422
sg70
g1404
sg63
(lp1423
g56
(g77
g58
NtRp1424
(dp1425
g61
(dp1426
sg70
g1420
sg63
(lp1427
g56
(g57
g58
NtRp1428
(dp1429
g61
(dp1430
g69
I3
ssg70
g1424
sg63
(lp1431
S'99'
p1432
asbasbasbag56
(g72
g58
NtRp1433
(dp1434
g61
(dp1435
sg70
g1404
sg63
(lp1436
g56
(g77
g58
NtRp1437
(dp1438
g61
(dp1439
sg70
g1433
sg63
(lp1440
g56
(g57
g58
NtRp1441
(dp1442
g61
(dp1443
g69
I3
ssg70
g1437
sg63
(lp1444
S'2'
asbasbasbag56
(g72
g58
NtRp1445
(dp1446
g61
(dp1447
sg70
g1404
sg63
(lp1448
g56
(g77
g58
NtRp1449
(dp1450
g61
(dp1451
sg70
g1445
sg63
(lp1452
g56
(g57
g58
NtRp1453
(dp1454
g61
(dp1455
g69
I3
ssg70
g1449
sg63
(lp1456
S'datetime.datetime(2011, 9, 26, 6, 55, 33)'
p1457
asbasbasbag56
(g72
g58
NtRp1458
(dp1459
g61
(dp1460
sg70
g1404
sg63
(lp1461
g56
(g77
g58
NtRp1462
(dp1463
g61
(dp1464
sg70
g1458
sg63
(lp1465
g56
(g57
g58
NtRp1466
(dp1467
g61
(dp1468
g69
I3
ssg70
g1462
sg63
(lp1469
S'stable'
p1470
asbasbasbasbasbasbasbag56
(g72
g58
NtRp1471
(dp1472
g61
(dp1473
sg70
g636
sg63
(lp1474
g56
(g77
g58
NtRp1475
(dp1476
g61
(dp1477
g81
g82
ssg70
g1471
sg63
(lp1478
S'wsgi_errors'
p1479
asbag56
(g77
g58
NtRp1480
(dp1481
g61
(dp1482
g88
g89
ssg70
g1471
sg63
(lp1483
S':'
asbag56
(g77
g58
NtRp1484
(dp1485
g61
(dp1486
sg70
g1471
sg63
(lp1487
g56
(g57
g58
NtRp1488
(dp1489
g61
(dp1490
g69
I4
ssg70
g1484
sg63
(lp1491
S"<open file '<stderr>', mode 'w' at 0x100416140>"
p1492
asbasbasbag56
(g72
g58
NtRp1493
(dp1494
g61
(dp1495
sg70
g636
sg63
(lp1496
g56
(g77
g58
NtRp1497
(dp1498
g61
(dp1499
g81
g82
ssg70
g1493
sg63
(lp1500
S'wsgi_file_wrapper'
p1501
asbag56
(g77
g58
NtRp1502
(dp1503
g61
(dp1504
g88
g89
ssg70
g1493
sg63
(lp1505
S':'
asbag56
(g77
g58
NtRp1506
(dp1507
g61
(dp1508
sg70
g1493
sg63
(lp1509
g56
(g57
g58
NtRp1510
(dp1511
g61
(dp1512
g69
I4
ssg70
g1506
sg63
(lp1513
S'<class wsgiref.util.FileWrapper at 0x1014a1bf0>'
p1514
asbasbasbag56
(g72
g58
NtRp1515
(dp1516
g61
(dp1517
sg70
g636
sg63
(lp1518
g56
(g77
g58
NtRp1519
(dp1520
g61
(dp1521
g81
g82
ssg70
g1515
sg63
(lp1522
S'wsgi_input'
p1523
asbag56
(g77
g58
NtRp1524
(dp1525
g61
(dp1526
g88
g89
ssg70
g1515
sg63
(lp1527
S':'
asbag56
(g77
g58
NtRp1528
(dp1529
g61
(dp1530
sg70
g1515
sg63
(lp1531
g56
(g57
g58
NtRp1532
(dp1533
g61
(dp1534
g69
I4
ssg70
g1528
sg63
(lp1535
S'<socket._fileobject object at 0x1014e60c8>'
p1536
asbasbasbag56
(g72
g58
NtRp1537
(dp1538
g61
(dp1539
sg70
g636
sg63
(lp1540
g56
(g77
g58
NtRp1541
(dp1542
g61
(dp1543
g81
g82
ssg70
g1537
sg63
(lp1544
S'wsgi_multiprocess'
p1545
asbag56
(g77
g58
NtRp1546
(dp1547
g61
(dp1548
g88
g89
ssg70
g1537
sg63
(lp1549
S':'
asbag56
(g77
g58
NtRp1550
(dp1551
g61
(dp1552
sg70
g1537
sg63
(lp1553
g56
(g57
g58
NtRp1554
(dp1555
g61
(dp1556
g69
I4
ssg70
g1550
sg63
(lp1557
g99
asbasbasbag56
(g72
g58
NtRp1558
(dp1559
g61
(dp1560
sg70
g636
sg63
(lp1561
g56
(g77
g58
NtRp1562
(dp1563
g61
(dp1564
g81
g82
ssg70
g1558
sg63
(lp1565
S'wsgi_multithread'
p1566
asbag56
(g77
g58
NtRp1567
(dp1568
g61
(dp1569
g88
g89
ssg70
g1558
sg63
(lp1570
S':'
asbag56
(g77
g58
NtRp1571
(dp1572
g61
(dp1573
sg70
g1558
sg63
(lp1574
g56
(g57
g58
NtRp1575
(dp1576
g61
(dp1577
g69
I4
ssg70
g1571
sg63
(lp1578
S'True'
p1579
asbasbasbag56
(g72
g58
NtRp1580
(dp1581
g61
(dp1582
sg70
g636
sg63
(lp1583
g56
(g77
g58
NtRp1584
(dp1585
g61
(dp1586
g81
g82
ssg70
g1580
sg63
(lp1587
S'wsgi_run_once'
p1588
asbag56
(g77
g58
NtRp1589
(dp1590
g61
(dp1591
g88
g89
ssg70
g1580
sg63
(lp1592
S':'
asbag56
(g77
g58
NtRp1593
(dp1594
g61
(dp1595
sg70
g1580
sg63
(lp1596
g56
(g57
g58
NtRp1597
(dp1598
g61
(dp1599
g69
I4
ssg70
g1593
sg63
(lp1600
g99
asbasbasbag56
(g72
g58
NtRp1601
(dp1602
g61
(dp1603
sg70
g636
sg63
(lp1604
g56
(g77
g58
NtRp1605
(dp1606
g61
(dp1607
g81
g82
ssg70
g1601
sg63
(lp1608
S'wsgi_url_scheme'
p1609
asbag56
(g77
g58
NtRp1610
(dp1611
g61
(dp1612
g88
g89
ssg70
g1601
sg63
(lp1613
S':'
asbag56
(g77
g58
NtRp1614
(dp1615
g61
(dp1616
sg70
g1601
sg63
(lp1617
g56
(g57
g58
NtRp1618
(dp1619
g61
(dp1620
g69
I4
ssg70
g1614
sg63
(lp1621
S'http'
p1622
asbasbasbag56
(g72
g58
NtRp1623
(dp1624
g61
(dp1625
sg70
g636
sg63
(lp1626
g56
(g77
g58
NtRp1627
(dp1628
g61
(dp1629
g81
g82
ssg70
g1623
sg63
(lp1630
S'wsgi_version'
p1631
asbag56
(g77
g58
NtRp1632
(dp1633
g61
(dp1634
g88
g89
ssg70
g1623
sg63
(lp1635
S':'
asbag56
(g77
g58
NtRp1636
(dp1637
g61
(dp1638
sg70
g1623
sg63
(lp1639
g56
(g57
g58
NtRp1640
(dp1641
g61
(dp1642
g69
I4
ssg70
g1636
sg63
(lp1643
g56
(g65
g58
NtRp1644
(dp1645
g61
(dp1646
g69
I3
ssg70
Nsg63
(lp1647
g56
(g72
g58
NtRp1648
(dp1649
g61
(dp1650
sg70
g1644
sg63
(lp1651
g56
(g77
g58
NtRp1652
(dp1653
g61
(dp1654
sg70
g1648
sg63
(lp1655
g56
(g57
g58
NtRp1656
(dp1657
g61
(dp1658
g69
I3
ssg70
g1652
sg63
(lp1659
S'1'
asbasbasbag56
(g72
g58
NtRp1660
(dp1661
g61
(dp1662
sg70
g1644
sg63
(lp1663
g56
(g77
g58
NtRp1664
(dp1665
g61
(dp1666
sg70
g1660
sg63
(lp1667
g56
(g57
g58
NtRp1668
(dp1669
g61
(dp1670
g69
I3
ssg70
g1664
sg63
(lp1671
S'0'
asbasbasbasbasbasbasbasbasbasbasbag56
(g72
g58
NtRp1672
(dp1673
g61
(dp1674
sg70
g66
sg63
(lp1675
g56
(g77
g58
NtRp1676
(dp1677
g61
(dp1678
g81
g82
ssg70
g1672
sg63
(lp1679
S'extension'
p1680
asbag56
(g77
g58
NtRp1681
(dp1682
g61
(dp1683
g88
g89
ssg70
g1672
sg63
(lp1684
S':'
asbag56
(g77
g58
NtRp1685
(dp1686
g61
(dp1687
sg70
g1672
sg63
(lp1688
g56
(g57
g58
NtRp1689
(dp1690
g61
(dp1691
g69
I5
ssg70
g1685
sg63
(lp1692
S'html'
p1693
asbasbasbag56
(g72
g58
NtRp1694
(dp1695
g61
(dp1696
sg70
g66
sg63
(lp1697
g56
(g77
g58
NtRp1698
(dp1699
g61
(dp1700
g81
g82
ssg70
g1694
sg63
(lp1701
S'folder'
p1702
asbag56
(g77
g58
NtRp1703
(dp1704
g61
(dp1705
g88
g89
ssg70
g1694
sg63
(lp1706
S':'
asbag56
(g77
g58
NtRp1707
(dp1708
g61
(dp1709
sg70
g1694
sg63
(lp1710
g56
(g57
g58
NtRp1711
(dp1712
g61
(dp1713
g69
I5
ssg70
g1707
sg63
(lp1714
S'/Users/excon/Sites/dreamscape/applications/welcome/'
p1715
asbasbasbag56
(g72
g58
NtRp1716
(dp1717
g61
(dp1718
sg70
g66
sg63
(lp1719
g56
(g77
g58
NtRp1720
(dp1721
g61
(dp1722
g81
g82
ssg70
g1716
sg63
(lp1723
S'function'
p1724
asbag56
(g77
g58
NtRp1725
(dp1726
g61
(dp1727
g88
g89
ssg70
g1716
sg63
(lp1728
S':'
asbag56
(g77
g58
NtRp1729
(dp1730
g61
(dp1731
sg70
g1716
sg63
(lp1732
g56
(g57
g58
NtRp1733
(dp1734
g61
(dp1735
g69
I5
ssg70
g1729
sg63
(lp1736
S'coming_soon'
p1737
asbasbasbag56
(g72
g58
NtRp1738
(dp1739
g61
(dp1740
sg70
g66
sg63
(lp1741
g56
(g77
g58
NtRp1742
(dp1743
g61
(dp1744
g81
g82
ssg70
g1738
sg63
(lp1745
S'get_vars'
p1746
asbag56
(g77
g58
NtRp1747
(dp1748
g61
(dp1749
g88
g89
ssg70
g1738
sg63
(lp1750
S':'
asbag56
(g77
g58
NtRp1751
(dp1752
g61
(dp1753
sg70
g1738
sg63
(lp1754
g56
(g57
g58
NtRp1755
(dp1756
g61
(dp1757
g69
I5
ssg70
g1751
sg63
(lp1758
g56
(g65
g58
NtRp1759
(dp1760
g61
(dp1761
g69
I4
ssg70
Nsg63
(lp1762
sbasbasbasbag56
(g72
g58
NtRp1763
(dp1764
g61
(dp1765
sg70
g66
sg63
(lp1766
g56
(g77
g58
NtRp1767
(dp1768
g61
(dp1769
g81
g82
ssg70
g1763
sg63
(lp1770
S'global_settings'
p1771
asbag56
(g77
g58
NtRp1772
(dp1773
g61
(dp1774
g88
g89
ssg70
g1763
sg63
(lp1775
S':'
asbag56
(g77
g58
NtRp1776
(dp1777
g61
(dp1778
sg70
g1763
sg63
(lp1779
g56
(g57
g58
NtRp1780
(dp1781
g61
(dp1782
g69
I5
ssg70
g1776
sg63
(lp1783
g56
(g65
g58
NtRp1784
(dp1785
g61
(dp1786
g69
I4
ssg70
Nsg63
(lp1787
g56
(g72
g58
NtRp1788
(dp1789
g61
(dp1790
sg70
g1784
sg63
(lp1791
g56
(g77
g58
NtRp1792
(dp1793
g61
(dp1794
g81
g82
ssg70
g1788
sg63
(lp1795
g648
asbag56
(g77
g58
NtRp1796
(dp1797
g61
(dp1798
g88
g89
ssg70
g1788
sg63
(lp1799
S':'
asbag56
(g77
g58
NtRp1800
(dp1801
g61
(dp1802
sg70
g1788
sg63
(lp1803
g56
(g57
g58
NtRp1804
(dp1805
g61
(dp1806
g69
I4
ssg70
g1800
sg63
(lp1807
S"set(['/Users/excon/Sites/dreamscape/applications/welcome/', '/Users/excon/Sites/dreamscape/applications/admin/'])"
p1808
asbasbasbag56
(g72
g58
NtRp1809
(dp1810
g61
(dp1811
sg70
g1784
sg63
(lp1812
g56
(g77
g58
NtRp1813
(dp1814
g61
(dp1815
g81
g82
ssg70
g1809
sg63
(lp1816
g670
asbag56
(g77
g58
NtRp1817
(dp1818
g61
(dp1819
g88
g89
ssg70
g1809
sg63
(lp1820
S':'
asbag56
(g77
g58
NtRp1821
(dp1822
g61
(dp1823
sg70
g1809
sg63
(lp1824
g56
(g57
g58
NtRp1825
(dp1826
g61
(dp1827
g69
I4
ssg70
g1821
sg63
(lp1828
g683
asbasbasbag56
(g72
g58
NtRp1829
(dp1830
g61
(dp1831
sg70
g1784
sg63
(lp1832
g56
(g77
g58
NtRp1833
(dp1834
g61
(dp1835
g81
g82
ssg70
g1829
sg63
(lp1836
g692
asbag56
(g77
g58
NtRp1837
(dp1838
g61
(dp1839
g88
g89
ssg70
g1829
sg63
(lp1840
S':'
asbag56
(g77
g58
NtRp1841
(dp1842
g61
(dp1843
sg70
g1829
sg63
(lp1844
g56
(g57
g58
NtRp1845
(dp1846
g61
(dp1847
g69
I4
ssg70
g1841
sg63
(lp1848
g56
(g65
g58
NtRp1849
(dp1850
g61
(dp1851
g69
I3
ssg70
Nsg63
(lp1852
sbasbasbasbag56
(g72
g58
NtRp1853
(dp1854
g61
(dp1855
sg70
g1784
sg63
(lp1856
g56
(g77
g58
NtRp1857
(dp1858
g61
(dp1859
g81
g82
ssg70
g1853
sg63
(lp1860
g717
asbag56
(g77
g58
NtRp1861
(dp1862
g61
(dp1863
g88
g89
ssg70
g1853
sg63
(lp1864
S':'
asbag56
(g77
g58
NtRp1865
(dp1866
g61
(dp1867
sg70
g1853
sg63
(lp1868
g56
(g57
g58
NtRp1869
(dp1870
g61
(dp1871
g69
I4
ssg70
g1865
sg63
(lp1872
S"<Values at 0x101c08e18: {'verbose': False, 'ip': '127.0.0.1', 'shutdown_timeout': 5, 'taskbar': False, 'nocron': False, 'pid_filename': 'httpserver.pid', 'maxthreads': None, 'softcron': False, 'server_name': 'Excons-MacBook.local', 'bpython': False, 'nogui': False, 'port': 8000, 'extcron': False, 'debuglevel': 30, 'test': None, 'folder': '/Users/excon/Sites/dreamscape', 'config': '', 'import_models': False, 'winservice': '', 'shell': None, 'run': '', 'log_filename': 'httpserver.log', 'args': [''], 'ssl_ca_certificate': None, 'scheduler': None, 'profiler_filename': None, 'ssl_private_key': '', 'password': '<ask>', 'request_queue_size': 5, 'ssl_certificate': '', 'cronjob': False, 'plain': False, 'quiet': False, 'interfaces': None, 'minthreads': None, 'timeout': 10, 'numthreads': None, 'nobanner': False}>"
p1873
asbasbasbag56
(g72
g58
NtRp1874
(dp1875
g61
(dp1876
sg70
g1784
sg63
(lp1877
g56
(g77
g58
NtRp1878
(dp1879
g61
(dp1880
g81
g82
ssg70
g1874
sg63
(lp1881
g783
asbag56
(g77
g58
NtRp1882
(dp1883
g61
(dp1884
g88
g89
ssg70
g1874
sg63
(lp1885
S':'
asbag56
(g77
g58
NtRp1886
(dp1887
g61
(dp1888
sg70
g1874
sg63
(lp1889
g56
(g57
g58
NtRp1890
(dp1891
g61
(dp1892
g69
I4
ssg70
g1886
sg63
(lp1893
S'set([])'
p1894
asbasbasbag56
(g72
g58
NtRp1895
(dp1896
g61
(dp1897
sg70
g1784
sg63
(lp1898
g56
(g77
g58
NtRp1899
(dp1900
g61
(dp1901
g81
g82
ssg70
g1895
sg63
(lp1902
g805
asbag56
(g77
g58
NtRp1903
(dp1904
g61
(dp1905
g88
g89
ssg70
g1895
sg63
(lp1906
S':'
asbag56
(g77
g58
NtRp1907
(dp1908
g61
(dp1909
sg70
g1895
sg63
(lp1910
g56
(g57
g58
NtRp1911
(dp1912
g61
(dp1913
g69
I4
ssg70
g1907
sg63
(lp1914
g99
asbasbasbag56
(g72
g58
NtRp1915
(dp1916
g61
(dp1917
sg70
g1784
sg63
(lp1918
g56
(g77
g58
NtRp1919
(dp1920
g61
(dp1921
g81
g82
ssg70
g1915
sg63
(lp1922
g826
asbag56
(g77
g58
NtRp1923
(dp1924
g61
(dp1925
g88
g89
ssg70
g1915
sg63
(lp1926
S':'
asbag56
(g77
g58
NtRp1927
(dp1928
g61
(dp1929
sg70
g1915
sg63
(lp1930
g56
(g57
g58
NtRp1931
(dp1932
g61
(dp1933
g69
I4
ssg70
g1927
sg63
(lp1934
g839
asbasbasbag56
(g72
g58
NtRp1935
(dp1936
g61
(dp1937
sg70
g1784
sg63
(lp1938
g56
(g77
g58
NtRp1939
(dp1940
g61
(dp1941
g81
g82
ssg70
g1935
sg63
(lp1942
g1110
asbag56
(g77
g58
NtRp1943
(dp1944
g61
(dp1945
g88
g89
ssg70
g1935
sg63
(lp1946
S':'
asbag56
(g77
g58
NtRp1947
(dp1948
g61
(dp1949
sg70
g1935
sg63
(lp1950
g56
(g57
g58
NtRp1951
(dp1952
g61
(dp1953
g69
I4
ssg70
g1947
sg63
(lp1954
g99
asbasbasbag56
(g72
g58
NtRp1955
(dp1956
g61
(dp1957
sg70
g1784
sg63
(lp1958
g56
(g77
g58
NtRp1959
(dp1960
g61
(dp1961
g81
g82
ssg70
g1955
sg63
(lp1962
g1348
asbag56
(g77
g58
NtRp1963
(dp1964
g61
(dp1965
g88
g89
ssg70
g1955
sg63
(lp1966
S':'
asbag56
(g77
g58
NtRp1967
(dp1968
g61
(dp1969
sg70
g1955
sg63
(lp1970
g56
(g57
g58
NtRp1971
(dp1972
g61
(dp1973
g69
I4
ssg70
g1967
sg63
(lp1974
g1361
asbasbasbag56
(g72
g58
NtRp1975
(dp1976
g61
(dp1977
sg70
g1784
sg63
(lp1978
g56
(g77
g58
NtRp1979
(dp1980
g61
(dp1981
g81
g82
ssg70
g1975
sg63
(lp1982
g1391
asbag56
(g77
g58
NtRp1983
(dp1984
g61
(dp1985
g88
g89
ssg70
g1975
sg63
(lp1986
S':'
asbag56
(g77
g58
NtRp1987
(dp1988
g61
(dp1989
sg70
g1975
sg63
(lp1990
g56
(g57
g58
NtRp1991
(dp1992
g61
(dp1993
g69
I4
ssg70
g1987
sg63
(lp1994
g56
(g65
g58
NtRp1995
(dp1996
g61
(dp1997
g69
I3
ssg70
Nsg63
(lp1998
g56
(g72
g58
NtRp1999
(dp2000
g61
(dp2001
sg70
g1995
sg63
(lp2002
g56
(g77
g58
NtRp2003
(dp2004
g61
(dp2005
sg70
g1999
sg63
(lp2006
g56
(g57
g58
NtRp2007
(dp2008
g61
(dp2009
g69
I3
ssg70
g2003
sg63
(lp2010
S'1'
asbasbasbag56
(g72
g58
NtRp2011
(dp2012
g61
(dp2013
sg70
g1995
sg63
(lp2014
g56
(g77
g58
NtRp2015
(dp2016
g61
(dp2017
sg70
g2011
sg63
(lp2018
g56
(g57
g58
NtRp2019
(dp2020
g61
(dp2021
g69
I3
ssg70
g2015
sg63
(lp2022
S'99'
p2023
asbasbasbag56
(g72
g58
NtRp2024
(dp2025
g61
(dp2026
sg70
g1995
sg63
(lp2027
g56
(g77
g58
NtRp2028
(dp2029
g61
(dp2030
sg70
g2024
sg63
(lp2031
g56
(g57
g58
NtRp2032
(dp2033
g61
(dp2034
g69
I3
ssg70
g2028
sg63
(lp2035
S'2'
asbasbasbag56
(g72
g58
NtRp2036
(dp2037
g61
(dp2038
sg70
g1995
sg63
(lp2039
g56
(g77
g58
NtRp2040
(dp2041
g61
(dp2042
sg70
g2036
sg63
(lp2043
g56
(g57
g58
NtRp2044
(dp2045
g61
(dp2046
g69
I3
ssg70
g2040
sg63
(lp2047
S'datetime.datetime(2011, 9, 26, 6, 55, 33)'
p2048
asbasbasbag56
(g72
g58
NtRp2049
(dp2050
g61
(dp2051
sg70
g1995
sg63
(lp2052
g56
(g77
g58
NtRp2053
(dp2054
g61
(dp2055
sg70
g2049
sg63
(lp2056
g56
(g57
g58
NtRp2057
(dp2058
g61
(dp2059
g69
I3
ssg70
g2053
sg63
(lp2060
g1470
asbasbasbasbasbasbasbasbasbasbasbag56
(g72
g58
NtRp2061
(dp2062
g61
(dp2063
sg70
g66
sg63
(lp2064
g56
(g77
g58
NtRp2065
(dp2066
g61
(dp2067
g81
g82
ssg70
g2061
sg63
(lp2068
S'is_https'
p2069
asbag56
(g77
g58
NtRp2070
(dp2071
g61
(dp2072
g88
g89
ssg70
g2061
sg63
(lp2073
S':'
asbag56
(g77
g58
NtRp2074
(dp2075
g61
(dp2076
sg70
g2061
sg63
(lp2077
g56
(g57
g58
NtRp2078
(dp2079
g61
(dp2080
g69
I5
ssg70
g2074
sg63
(lp2081
g99
asbasbasbag56
(g72
g58
NtRp2082
(dp2083
g61
(dp2084
sg70
g66
sg63
(lp2085
g56
(g77
g58
NtRp2086
(dp2087
g61
(dp2088
g81
g82
ssg70
g2082
sg63
(lp2089
S'is_local'
p2090
asbag56
(g77
g58
NtRp2091
(dp2092
g61
(dp2093
g88
g89
ssg70
g2082
sg63
(lp2094
S':'
asbag56
(g77
g58
NtRp2095
(dp2096
g61
(dp2097
sg70
g2082
sg63
(lp2098
g56
(g57
g58
NtRp2099
(dp2100
g61
(dp2101
g69
I5
ssg70
g2095
sg63
(lp2102
g1579
asbasbasbag56
(g72
g58
NtRp2103
(dp2104
g61
(dp2105
sg70
g66
sg63
(lp2106
g56
(g77
g58
NtRp2107
(dp2108
g61
(dp2109
g81
g82
ssg70
g2103
sg63
(lp2110
S'is_restful'
p2111
asbag56
(g77
g58
NtRp2112
(dp2113
g61
(dp2114
g88
g89
ssg70
g2103
sg63
(lp2115
S':'
asbag56
(g77
g58
NtRp2116
(dp2117
g61
(dp2118
sg70
g2103
sg63
(lp2119
g56
(g57
g58
NtRp2120
(dp2121
g61
(dp2122
g69
I5
ssg70
g2116
sg63
(lp2123
g99
asbasbasbag56
(g72
g58
NtRp2124
(dp2125
g61
(dp2126
sg70
g66
sg63
(lp2127
g56
(g77
g58
NtRp2128
(dp2129
g61
(dp2130
g81
g82
ssg70
g2124
sg63
(lp2131
S'now'
p2132
asbag56
(g77
g58
NtRp2133
(dp2134
g61
(dp2135
g88
g89
ssg70
g2124
sg63
(lp2136
S':'
asbag56
(g77
g58
NtRp2137
(dp2138
g61
(dp2139
sg70
g2124
sg63
(lp2140
g56
(g57
g58
NtRp2141
(dp2142
g61
(dp2143
g69
I5
ssg70
g2137
sg63
(lp2144
S'datetime.datetime(2011, 9, 28, 19, 34, 53, 4369)'
p2145
asbasbasbag56
(g72
g58
NtRp2146
(dp2147
g61
(dp2148
sg70
g66
sg63
(lp2149
g56
(g77
g58
NtRp2150
(dp2151
g61
(dp2152
g81
g82
ssg70
g2146
sg63
(lp2153
S'post_vars'
p2154
asbag56
(g77
g58
NtRp2155
(dp2156
g61
(dp2157
g88
g89
ssg70
g2146
sg63
(lp2158
S':'
asbag56
(g77
g58
NtRp2159
(dp2160
g61
(dp2161
sg70
g2146
sg63
(lp2162
g56
(g57
g58
NtRp2163
(dp2164
g61
(dp2165
g69
I5
ssg70
g2159
sg63
(lp2166
g56
(g65
g58
NtRp2167
(dp2168
g61
(dp2169
g69
I4
ssg70
Nsg63
(lp2170
g56
(g72
g58
NtRp2171
(dp2172
g61
(dp2173
sg70
g2167
sg63
(lp2174
g56
(g77
g58
NtRp2175
(dp2176
g61
(dp2177
g81
g82
ssg70
g2171
sg63
(lp2178
S'email'
p2179
asbag56
(g77
g58
NtRp2180
(dp2181
g61
(dp2182
g88
g89
ssg70
g2171
sg63
(lp2183
S':'
asbag56
(g77
g58
NtRp2184
(dp2185
g61
(dp2186
sg70
g2171
sg63
(lp2187
g56
(g57
g58
NtRp2188
(dp2189
g61
(dp2190
g69
I4
ssg70
g2184
sg63
(lp2191
S'asdf'
p2192
asbasbasbasbasbasbasbag56
(g72
g58
NtRp2193
(dp2194
g61
(dp2195
sg70
g66
sg63
(lp2196
g56
(g77
g58
NtRp2197
(dp2198
g61
(dp2199
g81
g82
ssg70
g2193
sg63
(lp2200
S'url'
p2201
asbag56
(g77
g58
NtRp2202
(dp2203
g61
(dp2204
g88
g89
ssg70
g2193
sg63
(lp2205
S':'
asbag56
(g77
g58
NtRp2206
(dp2207
g61
(dp2208
sg70
g2193
sg63
(lp2209
g56
(g57
g58
NtRp2210
(dp2211
g61
(dp2212
g69
I5
ssg70
g2206
sg63
(lp2213
S'/welcome/default/coming_soon'
p2214
asbasbasbag56
(g72
g58
NtRp2215
(dp2216
g61
(dp2217
sg70
g66
sg63
(lp2218
g56
(g77
g58
NtRp2219
(dp2220
g61
(dp2221
g81
g82
ssg70
g2215
sg63
(lp2222
S'utcnow'
p2223
asbag56
(g77
g58
NtRp2224
(dp2225
g61
(dp2226
g88
g89
ssg70
g2215
sg63
(lp2227
S':'
asbag56
(g77
g58
NtRp2228
(dp2229
g61
(dp2230
sg70
g2215
sg63
(lp2231
g56
(g57
g58
NtRp2232
(dp2233
g61
(dp2234
g69
I5
ssg70
g2228
sg63
(lp2235
S'datetime.datetime(2011, 9, 29, 2, 34, 53, 4392)'
p2236
asbasbasbag56
(g72
g58
NtRp2237
(dp2238
g61
(dp2239
sg70
g66
sg63
(lp2240
g56
(g77
g58
NtRp2241
(dp2242
g61
(dp2243
g81
g82
ssg70
g2237
sg63
(lp2244
S'uuid'
p2245
asbag56
(g77
g58
NtRp2246
(dp2247
g61
(dp2248
g88
g89
ssg70
g2237
sg63
(lp2249
S':'
asbag56
(g77
g58
NtRp2250
(dp2251
g61
(dp2252
sg70
g2237
sg63
(lp2253
g56
(g57
g58
NtRp2254
(dp2255
g61
(dp2256
g69
I5
ssg70
g2250
sg63
(lp2257
S'welcome/127.0.0.1.2011-09-28.19-34-53.2d1f133e-2766-4cc5-a10c-d9e38018a58a'
p2258
asbasbasbag56
(g72
g58
NtRp2259
(dp2260
g61
(dp2261
sg70
g66
sg63
(lp2262
g56
(g77
g58
NtRp2263
(dp2264
g61
(dp2265
g81
g82
ssg70
g2259
sg63
(lp2266
S'vars'
p2267
asbag56
(g77
g58
NtRp2268
(dp2269
g61
(dp2270
g88
g89
ssg70
g2259
sg63
(lp2271
S':'
asbag56
(g77
g58
NtRp2272
(dp2273
g61
(dp2274
sg70
g2259
sg63
(lp2275
g56
(g57
g58
NtRp2276
(dp2277
g61
(dp2278
g69
I5
ssg70
g2272
sg63
(lp2279
g56
(g65
g58
NtRp2280
(dp2281
g61
(dp2282
g69
I4
ssg70
Nsg63
(lp2283
g56
(g72
g58
NtRp2284
(dp2285
g61
(dp2286
sg70
g2280
sg63
(lp2287
g56
(g77
g58
NtRp2288
(dp2289
g61
(dp2290
g81
g82
ssg70
g2284
sg63
(lp2291
g2179
asbag56
(g77
g58
NtRp2292
(dp2293
g61
(dp2294
g88
g89
ssg70
g2284
sg63
(lp2295
S':'
asbag56
(g77
g58
NtRp2296
(dp2297
g61
(dp2298
sg70
g2284
sg63
(lp2299
g56
(g57
g58
NtRp2300
(dp2301
g61
(dp2302
g69
I4
ssg70
g2296
sg63
(lp2303
g2192
asbasbasbasbasbasbasbag56
(g72
g58
NtRp2304
(dp2305
g61
(dp2306
sg70
g66
sg63
(lp2307
g56
(g77
g58
NtRp2308
(dp2309
g61
(dp2310
g81
g82
ssg70
g2304
sg63
(lp2311
S'wsgi'
p2312
asbag56
(g77
g58
NtRp2313
(dp2314
g61
(dp2315
g88
g89
ssg70
g2304
sg63
(lp2316
S':'
asbag56
(g77
g58
NtRp2317
(dp2318
g61
(dp2319
sg70
g2304
sg63
(lp2320
g56
(g57
g58
NtRp2321
(dp2322
g61
(dp2323
g69
I5
ssg70
g2317
sg63
(lp2324
g56
(g65
g58
NtRp2325
(dp2326
g61
(dp2327
g69
I4
ssg70
Nsg63
(lp2328
g56
(g72
g58
NtRp2329
(dp2330
g61
(dp2331
sg70
g2325
sg63
(lp2332
g56
(g77
g58
NtRp2333
(dp2334
g61
(dp2335
g81
g82
ssg70
g2329
sg63
(lp2336
S'environ'
p2337
asbag56
(g77
g58
NtRp2338
(dp2339
g61
(dp2340
g88
g89
ssg70
g2329
sg63
(lp2341
S':'
asbag56
(g77
g58
NtRp2342
(dp2343
g61
(dp2344
sg70
g2329
sg63
(lp2345
g56
(g57
g58
NtRp2346
(dp2347
g61
(dp2348
g69
I4
ssg70
g2342
sg63
(lp2349
g56
(g65
g58
NtRp2350
(dp2351
g61
(dp2352
g69
I3
ssg70
Nsg63
(lp2353
g56
(g72
g58
NtRp2354
(dp2355
g61
(dp2356
sg70
g2350
sg63
(lp2357
g56
(g77
g58
NtRp2358
(dp2359
g61
(dp2360
g81
g82
ssg70
g2354
sg63
(lp2361
S'CONTENT_LENGTH'
p2362
asbag56
(g77
g58
NtRp2363
(dp2364
g61
(dp2365
g88
g89
ssg70
g2354
sg63
(lp2366
S':'
asbag56
(g77
g58
NtRp2367
(dp2368
g61
(dp2369
sg70
g2354
sg63
(lp2370
g56
(g57
g58
NtRp2371
(dp2372
g61
(dp2373
g69
I3
ssg70
g2367
sg63
(lp2374
g752
asbasbasbag56
(g72
g58
NtRp2375
(dp2376
g61
(dp2377
sg70
g2350
sg63
(lp2378
g56
(g77
g58
NtRp2379
(dp2380
g61
(dp2381
g81
g82
ssg70
g2375
sg63
(lp2382
S'CONTENT_TYPE'
p2383
asbag56
(g77
g58
NtRp2384
(dp2385
g61
(dp2386
g88
g89
ssg70
g2375
sg63
(lp2387
S':'
asbag56
(g77
g58
NtRp2388
(dp2389
g61
(dp2390
sg70
g2375
sg63
(lp2391
g56
(g57
g58
NtRp2392
(dp2393
g61
(dp2394
g69
I3
ssg70
g2388
sg63
(lp2395
g774
asbasbasbag56
(g72
g58
NtRp2396
(dp2397
g61
(dp2398
sg70
g2350
sg63
(lp2399
g56
(g77
g58
NtRp2400
(dp2401
g61
(dp2402
g81
g82
ssg70
g2396
sg63
(lp2403
S'HTTP_ACCEPT'
p2404
asbag56
(g77
g58
NtRp2405
(dp2406
g61
(dp2407
g88
g89
ssg70
g2396
sg63
(lp2408
S':'
asbag56
(g77
g58
NtRp2409
(dp2410
g61
(dp2411
sg70
g2396
sg63
(lp2412
g56
(g57
g58
NtRp2413
(dp2414
g61
(dp2415
g69
I3
ssg70
g2409
sg63
(lp2416
g861
asbasbasbag56
(g72
g58
NtRp2417
(dp2418
g61
(dp2419
sg70
g2350
sg63
(lp2420
g56
(g77
g58
NtRp2421
(dp2422
g61
(dp2423
g81
g82
ssg70
g2417
sg63
(lp2424
S'HTTP_ACCEPT_CHARSET'
p2425
asbag56
(g77
g58
NtRp2426
(dp2427
g61
(dp2428
g88
g89
ssg70
g2417
sg63
(lp2429
S':'
asbag56
(g77
g58
NtRp2430
(dp2431
g61
(dp2432
sg70
g2417
sg63
(lp2433
g56
(g57
g58
NtRp2434
(dp2435
g61
(dp2436
g69
I3
ssg70
g2430
sg63
(lp2437
g883
asbasbasbag56
(g72
g58
NtRp2438
(dp2439
g61
(dp2440
sg70
g2350
sg63
(lp2441
g56
(g77
g58
NtRp2442
(dp2443
g61
(dp2444
g81
g82
ssg70
g2438
sg63
(lp2445
S'HTTP_ACCEPT_ENCODING'
p2446
asbag56
(g77
g58
NtRp2447
(dp2448
g61
(dp2449
g88
g89
ssg70
g2438
sg63
(lp2450
S':'
asbag56
(g77
g58
NtRp2451
(dp2452
g61
(dp2453
sg70
g2438
sg63
(lp2454
g56
(g57
g58
NtRp2455
(dp2456
g61
(dp2457
g69
I3
ssg70
g2451
sg63
(lp2458
g905
asbasbasbag56
(g72
g58
NtRp2459
(dp2460
g61
(dp2461
sg70
g2350
sg63
(lp2462
g56
(g77
g58
NtRp2463
(dp2464
g61
(dp2465
g81
g82
ssg70
g2459
sg63
(lp2466
S'HTTP_ACCEPT_LANGUAGE'
p2467
asbag56
(g77
g58
NtRp2468
(dp2469
g61
(dp2470
g88
g89
ssg70
g2459
sg63
(lp2471
S':'
asbag56
(g77
g58
NtRp2472
(dp2473
g61
(dp2474
sg70
g2459
sg63
(lp2475
g56
(g57
g58
NtRp2476
(dp2477
g61
(dp2478
g69
I3
ssg70
g2472
sg63
(lp2479
g927
asbasbasbag56
(g72
g58
NtRp2480
(dp2481
g61
(dp2482
sg70
g2350
sg63
(lp2483
g56
(g77
g58
NtRp2484
(dp2485
g61
(dp2486
g81
g82
ssg70
g2480
sg63
(lp2487
S'HTTP_CACHE_CONTROL'
p2488
asbag56
(g77
g58
NtRp2489
(dp2490
g61
(dp2491
g88
g89
ssg70
g2480
sg63
(lp2492
S':'
asbag56
(g77
g58
NtRp2493
(dp2494
g61
(dp2495
sg70
g2480
sg63
(lp2496
g56
(g57
g58
NtRp2497
(dp2498
g61
(dp2499
g69
I3
ssg70
g2493
sg63
(lp2500
g949
asbasbasbag56
(g72
g58
NtRp2501
(dp2502
g61
(dp2503
sg70
g2350
sg63
(lp2504
g56
(g77
g58
NtRp2505
(dp2506
g61
(dp2507
g81
g82
ssg70
g2501
sg63
(lp2508
S'HTTP_CONNECTION'
p2509
asbag56
(g77
g58
NtRp2510
(dp2511
g61
(dp2512
g88
g89
ssg70
g2501
sg63
(lp2513
S':'
asbag56
(g77
g58
NtRp2514
(dp2515
g61
(dp2516
sg70
g2501
sg63
(lp2517
g56
(g57
g58
NtRp2518
(dp2519
g61
(dp2520
g69
I3
ssg70
g2514
sg63
(lp2521
g971
asbasbasbag56
(g72
g58
NtRp2522
(dp2523
g61
(dp2524
sg70
g2350
sg63
(lp2525
g56
(g77
g58
NtRp2526
(dp2527
g61
(dp2528
g81
g82
ssg70
g2522
sg63
(lp2529
S'HTTP_CONTENT_LENGTH'
p2530
asbag56
(g77
g58
NtRp2531
(dp2532
g61
(dp2533
g88
g89
ssg70
g2522
sg63
(lp2534
S':'
asbag56
(g77
g58
NtRp2535
(dp2536
g61
(dp2537
sg70
g2522
sg63
(lp2538
g56
(g57
g58
NtRp2539
(dp2540
g61
(dp2541
g69
I3
ssg70
g2535
sg63
(lp2542
g752
asbasbasbag56
(g72
g58
NtRp2543
(dp2544
g61
(dp2545
sg70
g2350
sg63
(lp2546
g56
(g77
g58
NtRp2547
(dp2548
g61
(dp2549
g81
g82
ssg70
g2543
sg63
(lp2550
S'HTTP_CONTENT_TYPE'
p2551
asbag56
(g77
g58
NtRp2552
(dp2553
g61
(dp2554
g88
g89
ssg70
g2543
sg63
(lp2555
S':'
asbag56
(g77
g58
NtRp2556
(dp2557
g61
(dp2558
sg70
g2543
sg63
(lp2559
g56
(g57
g58
NtRp2560
(dp2561
g61
(dp2562
g69
I3
ssg70
g2556
sg63
(lp2563
g774
asbasbasbag56
(g72
g58
NtRp2564
(dp2565
g61
(dp2566
sg70
g2350
sg63
(lp2567
g56
(g77
g58
NtRp2568
(dp2569
g61
(dp2570
g81
g82
ssg70
g2564
sg63
(lp2571
S'HTTP_COOKIE'
p2572
asbag56
(g77
g58
NtRp2573
(dp2574
g61
(dp2575
g88
g89
ssg70
g2564
sg63
(lp2576
S':'
asbag56
(g77
g58
NtRp2577
(dp2578
g61
(dp2579
sg70
g2564
sg63
(lp2580
g56
(g57
g58
NtRp2581
(dp2582
g61
(dp2583
g69
I3
ssg70
g2577
sg63
(lp2584
g1035
asbasbasbag56
(g72
g58
NtRp2585
(dp2586
g61
(dp2587
sg70
g2350
sg63
(lp2588
g56
(g77
g58
NtRp2589
(dp2590
g61
(dp2591
g81
g82
ssg70
g2585
sg63
(lp2592
S'HTTP_HOST'
p2593
asbag56
(g77
g58
NtRp2594
(dp2595
g61
(dp2596
g88
g89
ssg70
g2585
sg63
(lp2597
S':'
asbag56
(g77
g58
NtRp2598
(dp2599
g61
(dp2600
sg70
g2585
sg63
(lp2601
g56
(g57
g58
NtRp2602
(dp2603
g61
(dp2604
g69
I3
ssg70
g2598
sg63
(lp2605
g1057
asbasbasbag56
(g72
g58
NtRp2606
(dp2607
g61
(dp2608
sg70
g2350
sg63
(lp2609
g56
(g77
g58
NtRp2610
(dp2611
g61
(dp2612
g81
g82
ssg70
g2606
sg63
(lp2613
S'HTTP_REFERER'
p2614
asbag56
(g77
g58
NtRp2615
(dp2616
g61
(dp2617
g88
g89
ssg70
g2606
sg63
(lp2618
S':'
asbag56
(g77
g58
NtRp2619
(dp2620
g61
(dp2621
sg70
g2606
sg63
(lp2622
g56
(g57
g58
NtRp2623
(dp2624
g61
(dp2625
g69
I3
ssg70
g2619
sg63
(lp2626
g1079
asbasbasbag56
(g72
g58
NtRp2627
(dp2628
g61
(dp2629
sg70
g2350
sg63
(lp2630
g56
(g77
g58
NtRp2631
(dp2632
g61
(dp2633
g81
g82
ssg70
g2627
sg63
(lp2634
S'HTTP_USER_AGENT'
p2635
asbag56
(g77
g58
NtRp2636
(dp2637
g61
(dp2638
g88
g89
ssg70
g2627
sg63
(lp2639
S':'
asbag56
(g77
g58
NtRp2640
(dp2641
g61
(dp2642
sg70
g2627
sg63
(lp2643
g56
(g57
g58
NtRp2644
(dp2645
g61
(dp2646
g69
I3
ssg70
g2640
sg63
(lp2647
g1101
asbasbasbag56
(g72
g58
NtRp2648
(dp2649
g61
(dp2650
sg70
g2350
sg63
(lp2651
g56
(g77
g58
NtRp2652
(dp2653
g61
(dp2654
g81
g82
ssg70
g2648
sg63
(lp2655
S'PATH_INFO'
p2656
asbag56
(g77
g58
NtRp2657
(dp2658
g61
(dp2659
g88
g89
ssg70
g2648
sg63
(lp2660
S':'
asbag56
(g77
g58
NtRp2661
(dp2662
g61
(dp2663
sg70
g2648
sg63
(lp2664
g56
(g57
g58
NtRp2665
(dp2666
g61
(dp2667
g69
I3
ssg70
g2661
sg63
(lp2668
g1144
asbasbasbag56
(g72
g58
NtRp2669
(dp2670
g61
(dp2671
sg70
g2350
sg63
(lp2672
g56
(g77
g58
NtRp2673
(dp2674
g61
(dp2675
g81
g82
ssg70
g2669
sg63
(lp2676
S'QUERY_STRING'
p2677
asbag56
(g77
g58
NtRp2678
(dp2679
g61
(dp2680
g88
g89
ssg70
g2669
sg63
(lp2681
S':'
asbag56
(g77
g58
NtRp2682
(dp2683
g61
(dp2684
sg70
g2669
sg63
(lp2685
g56
(g57
g58
NtRp2686
(dp2687
g61
(dp2688
g69
I3
ssg70
g2682
sg63
(lp2689
S''
asbasbasbag56
(g72
g58
NtRp2690
(dp2691
g61
(dp2692
sg70
g2350
sg63
(lp2693
g56
(g77
g58
NtRp2694
(dp2695
g61
(dp2696
g81
g82
ssg70
g2690
sg63
(lp2697
S'REMOTE_ADDR'
p2698
asbag56
(g77
g58
NtRp2699
(dp2700
g61
(dp2701
g88
g89
ssg70
g2690
sg63
(lp2702
S':'
asbag56
(g77
g58
NtRp2703
(dp2704
g61
(dp2705
sg70
g2690
sg63
(lp2706
g56
(g57
g58
NtRp2707
(dp2708
g61
(dp2709
g69
I3
ssg70
g2703
sg63
(lp2710
g189
asbasbasbag56
(g72
g58
NtRp2711
(dp2712
g61
(dp2713
sg70
g2350
sg63
(lp2714
g56
(g77
g58
NtRp2715
(dp2716
g61
(dp2717
g81
g82
ssg70
g2711
sg63
(lp2718
S'REMOTE_PORT'
p2719
asbag56
(g77
g58
NtRp2720
(dp2721
g61
(dp2722
g88
g89
ssg70
g2711
sg63
(lp2723
S':'
asbag56
(g77
g58
NtRp2724
(dp2725
g61
(dp2726
sg70
g2711
sg63
(lp2727
g56
(g57
g58
NtRp2728
(dp2729
g61
(dp2730
g69
I3
ssg70
g2724
sg63
(lp2731
g1208
asbasbasbag56
(g72
g58
NtRp2732
(dp2733
g61
(dp2734
sg70
g2350
sg63
(lp2735
g56
(g77
g58
NtRp2736
(dp2737
g61
(dp2738
g81
g82
ssg70
g2732
sg63
(lp2739
S'REQUEST_METHOD'
p2740
asbag56
(g77
g58
NtRp2741
(dp2742
g61
(dp2743
g88
g89
ssg70
g2732
sg63
(lp2744
S':'
asbag56
(g77
g58
NtRp2745
(dp2746
g61
(dp2747
sg70
g2732
sg63
(lp2748
g56
(g57
g58
NtRp2749
(dp2750
g61
(dp2751
g69
I3
ssg70
g2745
sg63
(lp2752
g1230
asbasbasbag56
(g72
g58
NtRp2753
(dp2754
g61
(dp2755
sg70
g2350
sg63
(lp2756
g56
(g77
g58
NtRp2757
(dp2758
g61
(dp2759
g81
g82
ssg70
g2753
sg63
(lp2760
S'SCRIPT_NAME'
p2761
asbag56
(g77
g58
NtRp2762
(dp2763
g61
(dp2764
g88
g89
ssg70
g2753
sg63
(lp2765
S':'
asbag56
(g77
g58
NtRp2766
(dp2767
g61
(dp2768
sg70
g2753
sg63
(lp2769
g56
(g57
g58
NtRp2770
(dp2771
g61
(dp2772
g69
I3
ssg70
g2766
sg63
(lp2773
S''
asbasbasbag56
(g72
g58
NtRp2774
(dp2775
g61
(dp2776
sg70
g2350
sg63
(lp2777
g56
(g77
g58
NtRp2778
(dp2779
g61
(dp2780
g81
g82
ssg70
g2774
sg63
(lp2781
S'SERVER_NAME'
p2782
asbag56
(g77
g58
NtRp2783
(dp2784
g61
(dp2785
g88
g89
ssg70
g2774
sg63
(lp2786
S':'
asbag56
(g77
g58
NtRp2787
(dp2788
g61
(dp2789
sg70
g2774
sg63
(lp2790
g56
(g57
g58
NtRp2791
(dp2792
g61
(dp2793
g69
I3
ssg70
g2787
sg63
(lp2794
g1273
asbasbasbag56
(g72
g58
NtRp2795
(dp2796
g61
(dp2797
sg70
g2350
sg63
(lp2798
g56
(g77
g58
NtRp2799
(dp2800
g61
(dp2801
g81
g82
ssg70
g2795
sg63
(lp2802
S'SERVER_PORT'
p2803
asbag56
(g77
g58
NtRp2804
(dp2805
g61
(dp2806
g88
g89
ssg70
g2795
sg63
(lp2807
S':'
asbag56
(g77
g58
NtRp2808
(dp2809
g61
(dp2810
sg70
g2795
sg63
(lp2811
g56
(g57
g58
NtRp2812
(dp2813
g61
(dp2814
g69
I3
ssg70
g2808
sg63
(lp2815
g1295
asbasbasbag56
(g72
g58
NtRp2816
(dp2817
g61
(dp2818
sg70
g2350
sg63
(lp2819
g56
(g77
g58
NtRp2820
(dp2821
g61
(dp2822
g81
g82
ssg70
g2816
sg63
(lp2823
S'SERVER_PROTOCOL'
p2824
asbag56
(g77
g58
NtRp2825
(dp2826
g61
(dp2827
g88
g89
ssg70
g2816
sg63
(lp2828
S':'
asbag56
(g77
g58
NtRp2829
(dp2830
g61
(dp2831
sg70
g2816
sg63
(lp2832
g56
(g57
g58
NtRp2833
(dp2834
g61
(dp2835
g69
I3
ssg70
g2829
sg63
(lp2836
g1317
asbasbasbag56
(g72
g58
NtRp2837
(dp2838
g61
(dp2839
sg70
g2350
sg63
(lp2840
g56
(g77
g58
NtRp2841
(dp2842
g61
(dp2843
g81
g82
ssg70
g2837
sg63
(lp2844
S'SERVER_SOFTWARE'
p2845
asbag56
(g77
g58
NtRp2846
(dp2847
g61
(dp2848
g88
g89
ssg70
g2837
sg63
(lp2849
S':'
asbag56
(g77
g58
NtRp2850
(dp2851
g61
(dp2852
sg70
g2837
sg63
(lp2853
g56
(g57
g58
NtRp2854
(dp2855
g61
(dp2856
g69
I3
ssg70
g2850
sg63
(lp2857
g1339
asbasbasbag56
(g72
g58
NtRp2858
(dp2859
g61
(dp2860
sg70
g2350
sg63
(lp2861
g56
(g77
g58
NtRp2862
(dp2863
g61
(dp2864
g81
g82
ssg70
g2858
sg63
(lp2865
S'wsgi.errors'
p2866
asbag56
(g77
g58
NtRp2867
(dp2868
g61
(dp2869
g88
g89
ssg70
g2858
sg63
(lp2870
S':'
asbag56
(g77
g58
NtRp2871
(dp2872
g61
(dp2873
sg70
g2858
sg63
(lp2874
g56
(g57
g58
NtRp2875
(dp2876
g61
(dp2877
g69
I3
ssg70
g2871
sg63
(lp2878
S"<open file '<stderr>', mode 'w' at 0x100416140>"
p2879
asbasbasbag56
(g72
g58
NtRp2880
(dp2881
g61
(dp2882
sg70
g2350
sg63
(lp2883
g56
(g77
g58
NtRp2884
(dp2885
g61
(dp2886
g81
g82
ssg70
g2880
sg63
(lp2887
S'wsgi.file_wrapper'
p2888
asbag56
(g77
g58
NtRp2889
(dp2890
g61
(dp2891
g88
g89
ssg70
g2880
sg63
(lp2892
S':'
asbag56
(g77
g58
NtRp2893
(dp2894
g61
(dp2895
sg70
g2880
sg63
(lp2896
g56
(g57
g58
NtRp2897
(dp2898
g61
(dp2899
g69
I3
ssg70
g2893
sg63
(lp2900
S'<class wsgiref.util.FileWrapper at 0x1014a1bf0>'
p2901
asbasbasbag56
(g72
g58
NtRp2902
(dp2903
g61
(dp2904
sg70
g2350
sg63
(lp2905
g56
(g77
g58
NtRp2906
(dp2907
g61
(dp2908
g81
g82
ssg70
g2902
sg63
(lp2909
S'wsgi.input'
p2910
asbag56
(g77
g58
NtRp2911
(dp2912
g61
(dp2913
g88
g89
ssg70
g2902
sg63
(lp2914
S':'
asbag56
(g77
g58
NtRp2915
(dp2916
g61
(dp2917
sg70
g2902
sg63
(lp2918
g56
(g57
g58
NtRp2919
(dp2920
g61
(dp2921
g69
I3
ssg70
g2915
sg63
(lp2922
S"<open file '<fdopen>', mode 'w+b' at 0x116f6c470>"
p2923
asbasbasbag56
(g72
g58
NtRp2924
(dp2925
g61
(dp2926
sg70
g2350
sg63
(lp2927
g56
(g77
g58
NtRp2928
(dp2929
g61
(dp2930
g81
g82
ssg70
g2924
sg63
(lp2931
S'wsgi.multiprocess'
p2932
asbag56
(g77
g58
NtRp2933
(dp2934
g61
(dp2935
g88
g89
ssg70
g2924
sg63
(lp2936
S':'
asbag56
(g77
g58
NtRp2937
(dp2938
g61
(dp2939
sg70
g2924
sg63
(lp2940
g56
(g57
g58
NtRp2941
(dp2942
g61
(dp2943
g69
I3
ssg70
g2937
sg63
(lp2944
g99
asbasbasbag56
(g72
g58
NtRp2945
(dp2946
g61
(dp2947
sg70
g2350
sg63
(lp2948
g56
(g77
g58
NtRp2949
(dp2950
g61
(dp2951
g81
g82
ssg70
g2945
sg63
(lp2952
S'wsgi.multithread'
p2953
asbag56
(g77
g58
NtRp2954
(dp2955
g61
(dp2956
g88
g89
ssg70
g2945
sg63
(lp2957
S':'
asbag56
(g77
g58
NtRp2958
(dp2959
g61
(dp2960
sg70
g2945
sg63
(lp2961
g56
(g57
g58
NtRp2962
(dp2963
g61
(dp2964
g69
I3
ssg70
g2958
sg63
(lp2965
g1579
asbasbasbag56
(g72
g58
NtRp2966
(dp2967
g61
(dp2968
sg70
g2350
sg63
(lp2969
g56
(g77
g58
NtRp2970
(dp2971
g61
(dp2972
g81
g82
ssg70
g2966
sg63
(lp2973
S'wsgi.run_once'
p2974
asbag56
(g77
g58
NtRp2975
(dp2976
g61
(dp2977
g88
g89
ssg70
g2966
sg63
(lp2978
S':'
asbag56
(g77
g58
NtRp2979
(dp2980
g61
(dp2981
sg70
g2966
sg63
(lp2982
g56
(g57
g58
NtRp2983
(dp2984
g61
(dp2985
g69
I3
ssg70
g2979
sg63
(lp2986
g99
asbasbasbag56
(g72
g58
NtRp2987
(dp2988
g61
(dp2989
sg70
g2350
sg63
(lp2990
g56
(g77
g58
NtRp2991
(dp2992
g61
(dp2993
g81
g82
ssg70
g2987
sg63
(lp2994
S'wsgi.url_scheme'
p2995
asbag56
(g77
g58
NtRp2996
(dp2997
g61
(dp2998
g88
g89
ssg70
g2987
sg63
(lp2999
S':'
asbag56
(g77
g58
NtRp3000
(dp3001
g61
(dp3002
sg70
g2987
sg63
(lp3003
g56
(g57
g58
NtRp3004
(dp3005
g61
(dp3006
g69
I3
ssg70
g3000
sg63
(lp3007
g1622
asbasbasbag56
(g72
g58
NtRp3008
(dp3009
g61
(dp3010
sg70
g2350
sg63
(lp3011
g56
(g77
g58
NtRp3012
(dp3013
g61
(dp3014
g81
g82
ssg70
g3008
sg63
(lp3015
S'wsgi.version'
p3016
asbag56
(g77
g58
NtRp3017
(dp3018
g61
(dp3019
g88
g89
ssg70
g3008
sg63
(lp3020
S':'
asbag56
(g77
g58
NtRp3021
(dp3022
g61
(dp3023
sg70
g3008
sg63
(lp3024
g56
(g57
g58
NtRp3025
(dp3026
g61
(dp3027
g69
I3
ssg70
g3021
sg63
(lp3028
S'1'
asbasbasbasbasbasbasbasbasbasbasbasbasbsS'frames'
p3029
(lp3030
(dp3031
S'file'
p3032
S'/Users/excon/Sites/dreamscape/gluon/restricted.py'
p3033
sS'dump'
p3034
(dp3035
S'environment'
p3036
S"{'A': <class 'gluon.html.A'>, 'Auth': <class 'gluon.tools.Auth'>, 'B': <class 'gluon.html.B'>, 'BEAUTIFY': <class 'gluon.html.BEAUTIFY'>, 'BODY': <class 'gluon.html.BODY'>, 'BR': <class 'gluon.html.BR'>, 'BUTTON': <class 'gluon.html.BUTTON'>, 'CAT': <class 'gluon.html.CAT'>, 'CENTER': <class 'gluon.html.CENTER'>, 'CLEANUP': <class 'gluon.validators.CLEANUP'>, ...}"
p3037
sS'ccode'
p3038
S'<code object <module> at 0x116f717b0, file "/Use...cations/welcome/controllers/default.py", line 12>'
p3039
ssS'lnum'
p3040
I194
sS'lines'
p3041
(dp3042
I192
S'        else:'
p3043
sI193
S'            ccode = compile2(code,layer)'
p3044
sI194
S'        exec ccode in environment'
p3045
sI195
S'    except HTTP:'
p3046
sI196
S'        raise'
p3047
sI197
S'    except Exception, error:'
p3048
sI198
S'        # XXX Show exception in Wing IDE if running in debugger'
p3049
sI189
S'    try:'
p3050
sI190
S'        if type(code) == types.CodeType:'
p3051
sI191
S'            ccode = code'
p3052
ssS'call'
p3053
S"(code='# -*- coding: utf-8 -*-\\n# this file is released ...))\\n\\nresponse._vars=response._caller(coming_soon)\\n', environment={'A': <class 'gluon.html.A'>, 'Auth': <class 'gluon.tools.Auth'>, 'B': <class 'gluon.html.B'>, 'BEAUTIFY': <class 'gluon.html.BEAUTIFY'>, 'BODY': <class 'gluon.html.BODY'>, 'BR': <class 'gluon.html.BR'>, 'BUTTON': <class 'gluon.html.BUTTON'>, 'CAT': <class 'gluon.html.CAT'>, 'CENTER': <class 'gluon.html.CENTER'>, 'CLEANUP': <class 'gluon.validators.CLEANUP'>, ...}, layer='/Users/excon/Sites/dreamscape/applications/welcome/controllers/default.py')"
p3054
sS'func'
p3055
S'restricted'
p3056
sa(dp3057
g3032
S'/Users/excon/Sites/dreamscape/applications/welcome/controllers/default.py'
p3058
sg3034
(dp3059
sg3040
I96
sg3041
(dp3060
I85
S'    http://..../[app]/default/data/select/[table]'
p3061
sI86
S'    http://..../[app]/default/data/search/[table]'
p3062
sI87
S'    but URLs bust be signed, i.e. linked with'
p3063
sI88
S"      A('table',_href=URL('data/tables',user_signature=True))"
p3064
sI89
S'    or with the signed load operator'
p3065
sI90
S"      LOAD('default','data.load',args='tables',ajax=True,user_signature=True)"
p3066
sI91
S'    """'
p3067
sI92
S'    if COMING_SOON:'
p3068
sI93
S"        redirect(URL(r=request, f='coming_soon'))"
p3069
sI94
S'    return dict(form=crud())'
p3070
ssg3053
S'()'
p3071
sg3055
S'<module>'
p3072
sa(dp3073
g3032
S'/Users/excon/Sites/dreamscape/gluon/globals.py'
p3074
sg3034
(dp3075
S'self'
p3076
S'undefined'
p3077
sS'f'
S'<function coming_soon at 0x116f718c0>'
p3078
ssg3040
I149
sg3041
(dp3079
I144
S'        self.meta = Storage()      # used by web2py_ajax.html'
p3080
sI145
S'        self.menu = []             # used by the default view layout'
p3081
sI146
S'        self.files = []            # used by web2py_ajax.html'
p3082
sI147
S'        self.generic_patterns = [] # patterns to allow generic views'
p3083
sI148
S'        self._vars = None'
p3084
sI149
S'        self._caller = lambda f: f()'
p3085
sI150
S'        self._view_environment = None'
p3086
sI151
S'        self._custom_commit = None'
p3087
sI152
S'        self._custom_rollback = None'
p3088
sI153
S''
ssg3053
S'(f=<function coming_soon at 0x116f718c0>)'
p3089
sg3055
S'<lambda>'
p3090
sa(dp3091
g3032
S'/Users/excon/Sites/dreamscape/applications/welcome/controllers/default.py'
p3092
sg3034
(dp3093
S'formstyle'
p3094
g3077
sS'form'
p3095
g3077
sS'global SQLFORM'
p3096
S"<class 'gluon.sqlhtml.SQLFORM'>"
p3097
sS'SQLFORM.factory'
p3098
S'<function factory at 0x100776050>'
p3099
sS'submit_button'
p3100
g3077
sS'global db'
p3101
S"<DAL {'auth_event': <Table {'origin': <gluon.dal...'id': <gluon.dal.Field object at 0x116f7a990>}>}>"
p3102
sS'db.invitation'
p3103
S"<Table {'created_at': <gluon.dal.Field object at..., 'id': <gluon.dal.Field object at 0x116f72e90>}>"
p3104
ssg3040
I24
sg3041
(dp3105
I19
S'    if COMING_SOON:'
p3106
sI20
S"        redirect(URL(r=request, f='coming_soon'))"
p3107
sI21
S'    return dict()'
p3108
sI22
S''
sI23
S'def coming_soon():'
p3109
sI24
S"    form = SQLFORM.factory(db.invitation, submit_button='DREAM', formstyle='div')"
p3110
sI25
S''
sI26
S'    if form.process().accepted:'
p3111
sI27
S'        db.invitation.insert(email=form.vars.email)'
p3112
sI28
S"        response.flash = 'You have wonderful dreams!'"
p3113
ssg3053
S'()'
p3114
sg3055
S'coming_soon'
p3115
sa(dp3116
g3032
S'/Users/excon/Sites/dreamscape/gluon/sqlhtml.py'
p3117
sg3034
(dp3118
S'attributes'
p3119
S"{'formstyle': 'div', 'submit_button': 'DREAM'}"
p3120
ssg3040
I1282
sg3041
(dp3121
I1280
S''
sI1281
S'        return SQLFORM(DAL(None).define_table(table_name, *fields),'
p3122
sI1282
S'                       **attributes)'
p3123
sI1283
S''
sI1284
S'    @staticmethod'
p3124
sI1285
S'    def grid(query,'
p3125
sI1286
S'             fields=None,'
p3126
sI1277
S"        # So it won't interfear with SQLDB.define_table"
p3127
sI1278
S"        if 'table_name' in attributes:"
p3128
sI1279
S"            del attributes['table_name']"
p3129
ssg3053
S"(*fields=(<Table {'created_at': <gluon.dal.Field object at..., 'id': <gluon.dal.Field object at 0x116f72e90>}>,), **attributes={'formstyle': 'div', 'submit_button': 'DREAM'})"
p3130
sg3055
S'factory'
p3131
sa(dp3132
g3032
S'/Users/excon/Sites/dreamscape/gluon/sqlhtml.py'
p3133
sg3034
(dp3134
S'xfields'
p3135
S"[('no_table_email__row', <gluon.html.LABEL object at 0x116f75050>, <gluon.html.INPUT object at 0x116f75110>, ''), ('submit_record__row', '', <gluon.html.INPUT object at 0x116be1fd0>, '')]"
p3136
sS'table'
p3137
S"<Table {'created_at': <gluon.dal.Field object at..., 'id': <gluon.dal.Field object at 0x116be1e50>}>"
p3138
sS'self'
p3139
S'<gluon.sqlhtml.SQLFORM object at 0x116be1ed0>'
p3140
sS'self.createform'
p3141
S'<bound method SQLFORM.createform of <gluon.sqlhtml.SQLFORM object at 0x116be1ed0>>'
p3142
ssg3040
I945
sg3041
(dp3143
I940
S"                self['hidden']['id'] = record['id']"
p3144
sI941
S''
sI942
S'        (begin, end) = self._xml()'
p3145
sI943
S'        self.custom.begin = XML("<%s %s>" % (self.tag, begin))'
p3146
sI944
S'        self.custom.end = XML("%s</%s>" % (end, self.tag))'
p3147
sI945
S'        table = self.createform(xfields)'
p3148
sI946
S'        self.components = [table]'
p3149
sI947
S''
sI948
S'    def createform(self, xfields):'
p3150
sI949
S"        if self.formstyle == 'table3cols':"
p3151
ssg3053
S"(self=<gluon.sqlhtml.SQLFORM object at 0x116be1ed0>, table=<Table {'created_at': <gluon.dal.Field object at..., 'id': <gluon.dal.Field object at 0x116be1e50>}>, record=None, deletable=False, linkto=None, upload=None, fields=['id', 'email'], labels=None, col3={}, submit_button='DREAM', delete_label='Check to delete:', showid=True, readonly=False, comments=True, keepopts=[], ignore_rw=False, record_id=None, formstyle='div', buttons=['submit'], separator=': ', **attributes={})"
p3152
sg3055
g49
sa(dp3153
g3032
S'/Users/excon/Sites/dreamscape/gluon/sqlhtml.py'
p3154
sg3034
(dp3155
S'builtinRuntimeError'
p3156
S"<type 'exceptions.RuntimeError'>"
p3157
ssg3040
I988
sg3041
(dp3158
I992
S'    def accepts('
p3159
sI983
S'                if type(newrows).__name__ != "tuple":'
p3160
sI984
S'                    newrows = [newrows]'
p3161
sI985
S'                for newrow in newrows:'
p3162
sI986
S'                    table.append(newrow)'
p3163
sI987
S'        else:'
p3164
sI988
S"            raise RuntimeError, 'formstyle not supported'"
p3165
sI989
S'        return table'
p3166
sI990
S''
sI991
S''
ssg3053
S"(self=<gluon.sqlhtml.SQLFORM object at 0x116be1ed0>, xfields=[('no_table_email__row', <gluon.html.LABEL object at 0x116f75050>, <gluon.html.INPUT object at 0x116f75110>, ''), ('submit_record__row', '', <gluon.html.INPUT object at 0x116be1fd0>, '')])"
p3167
sg3055
S'createform'
p3168
sasS'pyver'
p3169
S'Python 2.6.1: /usr/bin/python'
p3170
sS'session'
p3171
g56
(g57
g58
NtRp3172
(dp3173
g61
(dp3174
sg63
(lp3175
g56
(g65
g58
NtRp3176
(dp3177
g61
(dp3178
g69
I5
ssg70
Nsg63
(lp3179
sbasbsS'etype'
p3180
S"<type 'exceptions.RuntimeError'>"
p3181
sS'date'
p3182
S'Wed Sep 28 19:34:53 2011'
p3183
sS'response'
p3184
g56
(g57
g58
NtRp3185
(dp3186
g61
(dp3187
sg63
(lp3188
g56
(g65
g58
NtRp3189
(dp3190
g61
(dp3191
g69
I5
ssg70
Nsg63
(lp3192
g56
(g72
g58
NtRp3193
(dp3194
g61
(dp3195
sg70
g3189
sg63
(lp3196
g56
(g77
g58
NtRp3197
(dp3198
g61
(dp3199
g81
g82
ssg70
g3193
sg63
(lp3200
g154
asbag56
(g77
g58
NtRp3201
(dp3202
g61
(dp3203
g88
g89
ssg70
g3193
sg63
(lp3204
S':'
asbag56
(g77
g58
NtRp3205
(dp3206
g61
(dp3207
sg70
g3193
sg63
(lp3208
g56
(g57
g58
NtRp3209
(dp3210
g61
(dp3211
g69
I5
ssg70
g3205
sg63
(lp3212
S'<cStringIO.StringO object at 0x116f65ae8>'
p3213
asbasbasbag56
(g72
g58
NtRp3214
(dp3215
g61
(dp3216
sg70
g3189
sg63
(lp3217
g56
(g77
g58
NtRp3218
(dp3219
g61
(dp3220
g81
g82
ssg70
g3214
sg63
(lp3221
g220
asbag56
(g77
g58
NtRp3222
(dp3223
g61
(dp3224
g88
g89
ssg70
g3214
sg63
(lp3225
S':'
asbag56
(g77
g58
NtRp3226
(dp3227
g61
(dp3228
sg70
g3214
sg63
(lp3229
g56
(g57
g58
NtRp3230
(dp3231
g61
(dp3232
g69
I5
ssg70
g3226
sg63
(lp3233
g56
(g65
g58
NtRp3234
(dp3235
g61
(dp3236
g69
I4
ssg70
Nsg63
(lp3237
g56
(g72
g58
NtRp3238
(dp3239
g61
(dp3240
sg70
g3234
sg63
(lp3241
g56
(g77
g58
NtRp3242
(dp3243
g61
(dp3244
g81
g82
ssg70
g3238
sg63
(lp3245
S'session_id_welcome'
p3246
asbag56
(g77
g58
NtRp3247
(dp3248
g61
(dp3249
g88
g89
ssg70
g3238
sg63
(lp3250
S':'
asbag56
(g77
g58
NtRp3251
(dp3252
g61
(dp3253
sg70
g3238
sg63
(lp3254
g56
(g57
g58
NtRp3255
(dp3256
g61
(dp3257
g69
I4
ssg70
g3251
sg63
(lp3258
g56
(g65
g58
NtRp3259
(dp3260
g61
(dp3261
g69
I3
ssg70
Nsg63
(lp3262
g56
(g72
g58
NtRp3263
(dp3264
g61
(dp3265
sg70
g3259
sg63
(lp3266
g56
(g77
g58
NtRp3267
(dp3268
g61
(dp3269
g81
g82
ssg70
g3263
sg63
(lp3270
g270
asbag56
(g77
g58
NtRp3271
(dp3272
g61
(dp3273
g88
g89
ssg70
g3263
sg63
(lp3274
S':'
asbag56
(g77
g58
NtRp3275
(dp3276
g61
(dp3277
sg70
g3263
sg63
(lp3278
g56
(g57
g58
NtRp3279
(dp3280
g61
(dp3281
g69
I3
ssg70
g3275
sg63
(lp3282
S''
asbasbasbag56
(g72
g58
NtRp3283
(dp3284
g61
(dp3285
sg70
g3259
sg63
(lp3286
g56
(g77
g58
NtRp3287
(dp3288
g61
(dp3289
g81
g82
ssg70
g3283
sg63
(lp3290
g291
asbag56
(g77
g58
NtRp3291
(dp3292
g61
(dp3293
g88
g89
ssg70
g3283
sg63
(lp3294
S':'
asbag56
(g77
g58
NtRp3295
(dp3296
g61
(dp3297
sg70
g3283
sg63
(lp3298
g56
(g57
g58
NtRp3299
(dp3300
g61
(dp3301
g69
I3
ssg70
g3295
sg63
(lp3302
S''
asbasbasbag56
(g72
g58
NtRp3303
(dp3304
g61
(dp3305
sg70
g3259
sg63
(lp3306
g56
(g77
g58
NtRp3307
(dp3308
g61
(dp3309
g81
g82
ssg70
g3303
sg63
(lp3310
g312
asbag56
(g77
g58
NtRp3311
(dp3312
g61
(dp3313
g88
g89
ssg70
g3303
sg63
(lp3314
S':'
asbag56
(g77
g58
NtRp3315
(dp3316
g61
(dp3317
sg70
g3303
sg63
(lp3318
g56
(g57
g58
NtRp3319
(dp3320
g61
(dp3321
g69
I3
ssg70
g3315
sg63
(lp3322
S''
asbasbasbag56
(g72
g58
NtRp3323
(dp3324
g61
(dp3325
sg70
g3259
sg63
(lp3326
g56
(g77
g58
NtRp3327
(dp3328
g61
(dp3329
g81
g82
ssg70
g3323
sg63
(lp3330
g333
asbag56
(g77
g58
NtRp3331
(dp3332
g61
(dp3333
g88
g89
ssg70
g3323
sg63
(lp3334
S':'
asbag56
(g77
g58
NtRp3335
(dp3336
g61
(dp3337
sg70
g3323
sg63
(lp3338
g56
(g57
g58
NtRp3339
(dp3340
g61
(dp3341
g69
I3
ssg70
g3335
sg63
(lp3342
S''
asbasbasbag56
(g72
g58
NtRp3343
(dp3344
g61
(dp3345
sg70
g3259
sg63
(lp3346
g56
(g77
g58
NtRp3347
(dp3348
g61
(dp3349
g81
g82
ssg70
g3343
sg63
(lp3350
g354
asbag56
(g77
g58
NtRp3351
(dp3352
g61
(dp3353
g88
g89
ssg70
g3343
sg63
(lp3354
S':'
asbag56
(g77
g58
NtRp3355
(dp3356
g61
(dp3357
sg70
g3343
sg63
(lp3358
g56
(g57
g58
NtRp3359
(dp3360
g61
(dp3361
g69
I3
ssg70
g3355
sg63
(lp3362
S''
asbasbasbag56
(g72
g58
NtRp3363
(dp3364
g61
(dp3365
sg70
g3259
sg63
(lp3366
g56
(g77
g58
NtRp3367
(dp3368
g61
(dp3369
g81
g82
ssg70
g3363
sg63
(lp3370
g375
asbag56
(g77
g58
NtRp3371
(dp3372
g61
(dp3373
g88
g89
ssg70
g3363
sg63
(lp3374
S':'
asbag56
(g77
g58
NtRp3375
(dp3376
g61
(dp3377
sg70
g3363
sg63
(lp3378
g56
(g57
g58
NtRp3379
(dp3380
g61
(dp3381
g69
I3
ssg70
g3375
sg63
(lp3382
S'/'
asbasbasbag56
(g72
g58
NtRp3383
(dp3384
g61
(dp3385
sg70
g3259
sg63
(lp3386
g56
(g77
g58
NtRp3387
(dp3388
g61
(dp3389
g81
g82
ssg70
g3383
sg63
(lp3390
g396
asbag56
(g77
g58
NtRp3391
(dp3392
g61
(dp3393
g88
g89
ssg70
g3383
sg63
(lp3394
S':'
asbag56
(g77
g58
NtRp3395
(dp3396
g61
(dp3397
sg70
g3383
sg63
(lp3398
g56
(g57
g58
NtRp3399
(dp3400
g61
(dp3401
g69
I3
ssg70
g3395
sg63
(lp3402
S''
asbasbasbag56
(g72
g58
NtRp3403
(dp3404
g61
(dp3405
sg70
g3259
sg63
(lp3406
g56
(g77
g58
NtRp3407
(dp3408
g61
(dp3409
g81
g82
ssg70
g3403
sg63
(lp3410
g417
asbag56
(g77
g58
NtRp3411
(dp3412
g61
(dp3413
g88
g89
ssg70
g3403
sg63
(lp3414
S':'
asbag56
(g77
g58
NtRp3415
(dp3416
g61
(dp3417
sg70
g3403
sg63
(lp3418
g56
(g57
g58
NtRp3419
(dp3420
g61
(dp3421
g69
I3
ssg70
g3415
sg63
(lp3422
S''
asbasbasbasbasbasbasbasbasbasbasbag56
(g72
g58
NtRp3423
(dp3424
g61
(dp3425
sg70
g3189
sg63
(lp3426
g56
(g77
g58
NtRp3427
(dp3428
g61
(dp3429
g81
g82
ssg70
g3423
sg63
(lp3430
S'files'
p3431
asbag56
(g77
g58
NtRp3432
(dp3433
g61
(dp3434
g88
g89
ssg70
g3423
sg63
(lp3435
S':'
asbag56
(g77
g58
NtRp3436
(dp3437
g61
(dp3438
sg70
g3423
sg63
(lp3439
g56
(g57
g58
NtRp3440
(dp3441
g61
(dp3442
g69
I5
ssg70
g3436
sg63
(lp3443
g56
(g65
g58
NtRp3444
(dp3445
g61
(dp3446
g69
I4
ssg70
Nsg63
(lp3447
sbasbasbasbag56
(g72
g58
NtRp3448
(dp3449
g61
(dp3450
sg70
g3189
sg63
(lp3451
g56
(g77
g58
NtRp3452
(dp3453
g61
(dp3454
g81
g82
ssg70
g3448
sg63
(lp3455
S'flash'
p3456
asbag56
(g77
g58
NtRp3457
(dp3458
g61
(dp3459
g88
g89
ssg70
g3448
sg63
(lp3460
S':'
asbag56
(g77
g58
NtRp3461
(dp3462
g61
(dp3463
sg70
g3448
sg63
(lp3464
g56
(g57
g58
NtRp3465
(dp3466
g61
(dp3467
g69
I5
ssg70
g3461
sg63
(lp3468
S''
asbasbasbag56
(g72
g58
NtRp3469
(dp3470
g61
(dp3471
sg70
g3189
sg63
(lp3472
g56
(g77
g58
NtRp3473
(dp3474
g61
(dp3475
g81
g82
ssg70
g3469
sg63
(lp3476
S'generic_patterns'
p3477
asbag56
(g77
g58
NtRp3478
(dp3479
g61
(dp3480
g88
g89
ssg70
g3469
sg63
(lp3481
S':'
asbag56
(g77
g58
NtRp3482
(dp3483
g61
(dp3484
sg70
g3469
sg63
(lp3485
g56
(g57
g58
NtRp3486
(dp3487
g61
(dp3488
g69
I5
ssg70
g3482
sg63
(lp3489
g56
(g65
g58
NtRp3490
(dp3491
g61
(dp3492
g69
I4
ssg70
Nsg63
(lp3493
g56
(g72
g58
NtRp3494
(dp3495
g61
(dp3496
sg70
g3490
sg63
(lp3497
g56
(g77
g58
NtRp3498
(dp3499
g61
(dp3500
sg70
g3494
sg63
(lp3501
g56
(g57
g58
NtRp3502
(dp3503
g61
(dp3504
g69
I4
ssg70
g3498
sg63
(lp3505
S'*'
asbasbasbasbasbasbasbag56
(g72
g58
NtRp3506
(dp3507
g61
(dp3508
sg70
g3189
sg63
(lp3509
g56
(g77
g58
NtRp3510
(dp3511
g61
(dp3512
g81
g82
ssg70
g3506
sg63
(lp3513
S'headers'
p3514
asbag56
(g77
g58
NtRp3515
(dp3516
g61
(dp3517
g88
g89
ssg70
g3506
sg63
(lp3518
S':'
asbag56
(g77
g58
NtRp3519
(dp3520
g61
(dp3521
sg70
g3506
sg63
(lp3522
g56
(g57
g58
NtRp3523
(dp3524
g61
(dp3525
g69
I5
ssg70
g3519
sg63
(lp3526
g56
(g65
g58
NtRp3527
(dp3528
g61
(dp3529
g69
I4
ssg70
Nsg63
(lp3530
g56
(g72
g58
NtRp3531
(dp3532
g61
(dp3533
sg70
g3527
sg63
(lp3534
g56
(g77
g58
NtRp3535
(dp3536
g61
(dp3537
g81
g82
ssg70
g3531
sg63
(lp3538
S'Cache-Control'
p3539
asbag56
(g77
g58
NtRp3540
(dp3541
g61
(dp3542
g88
g89
ssg70
g3531
sg63
(lp3543
S':'
asbag56
(g77
g58
NtRp3544
(dp3545
g61
(dp3546
sg70
g3531
sg63
(lp3547
g56
(g57
g58
NtRp3548
(dp3549
g61
(dp3550
g69
I4
ssg70
g3544
sg63
(lp3551
S'no-store, no-cache, must-revalidate, post-check=0, pre-check=0'
p3552
asbasbasbag56
(g72
g58
NtRp3553
(dp3554
g61
(dp3555
sg70
g3527
sg63
(lp3556
g56
(g77
g58
NtRp3557
(dp3558
g61
(dp3559
g81
g82
ssg70
g3553
sg63
(lp3560
S'Content-Type'
p3561
asbag56
(g77
g58
NtRp3562
(dp3563
g61
(dp3564
g88
g89
ssg70
g3553
sg63
(lp3565
S':'
asbag56
(g77
g58
NtRp3566
(dp3567
g61
(dp3568
sg70
g3553
sg63
(lp3569
g56
(g57
g58
NtRp3570
(dp3571
g61
(dp3572
g69
I4
ssg70
g3566
sg63
(lp3573
S'text/html; charset=utf-8'
p3574
asbasbasbag56
(g72
g58
NtRp3575
(dp3576
g61
(dp3577
sg70
g3527
sg63
(lp3578
g56
(g77
g58
NtRp3579
(dp3580
g61
(dp3581
g81
g82
ssg70
g3575
sg63
(lp3582
S'Expires'
p3583
asbag56
(g77
g58
NtRp3584
(dp3585
g61
(dp3586
g88
g89
ssg70
g3575
sg63
(lp3587
S':'
asbag56
(g77
g58
NtRp3588
(dp3589
g61
(dp3590
sg70
g3575
sg63
(lp3591
g56
(g57
g58
NtRp3592
(dp3593
g61
(dp3594
g69
I4
ssg70
g3588
sg63
(lp3595
S'Thu, 29 Sep 2011 02:34:53 GMT'
p3596
asbasbasbag56
(g72
g58
NtRp3597
(dp3598
g61
(dp3599
sg70
g3527
sg63
(lp3600
g56
(g77
g58
NtRp3601
(dp3602
g61
(dp3603
g81
g82
ssg70
g3597
sg63
(lp3604
S'Pragma'
p3605
asbag56
(g77
g58
NtRp3606
(dp3607
g61
(dp3608
g88
g89
ssg70
g3597
sg63
(lp3609
S':'
asbag56
(g77
g58
NtRp3610
(dp3611
g61
(dp3612
sg70
g3597
sg63
(lp3613
g56
(g57
g58
NtRp3614
(dp3615
g61
(dp3616
g69
I4
ssg70
g3610
sg63
(lp3617
S'no-cache'
p3618
asbasbasbag56
(g72
g58
NtRp3619
(dp3620
g61
(dp3621
sg70
g3527
sg63
(lp3622
g56
(g77
g58
NtRp3623
(dp3624
g61
(dp3625
g81
g82
ssg70
g3619
sg63
(lp3626
S'X-Powered-By'
p3627
asbag56
(g77
g58
NtRp3628
(dp3629
g61
(dp3630
g88
g89
ssg70
g3619
sg63
(lp3631
S':'
asbag56
(g77
g58
NtRp3632
(dp3633
g61
(dp3634
sg70
g3619
sg63
(lp3635
g56
(g57
g58
NtRp3636
(dp3637
g61
(dp3638
g69
I4
ssg70
g3632
sg63
(lp3639
S'web2py'
p3640
asbasbasbasbasbasbasbag56
(g72
g58
NtRp3641
(dp3642
g61
(dp3643
sg70
g3189
sg63
(lp3644
g56
(g77
g58
NtRp3645
(dp3646
g61
(dp3647
g81
g82
ssg70
g3641
sg63
(lp3648
S'menu'
p3649
asbag56
(g77
g58
NtRp3650
(dp3651
g61
(dp3652
g88
g89
ssg70
g3641
sg63
(lp3653
S':'
asbag56
(g77
g58
NtRp3654
(dp3655
g61
(dp3656
sg70
g3641
sg63
(lp3657
g56
(g57
g58
NtRp3658
(dp3659
g61
(dp3660
g69
I5
ssg70
g3654
sg63
(lp3661
g56
(g65
g58
NtRp3662
(dp3663
g61
(dp3664
g69
I4
ssg70
Nsg63
(lp3665
g56
(g72
g58
NtRp3666
(dp3667
g61
(dp3668
sg70
g3662
sg63
(lp3669
g56
(g77
g58
NtRp3670
(dp3671
g61
(dp3672
sg70
g3666
sg63
(lp3673
g56
(g57
g58
NtRp3674
(dp3675
g61
(dp3676
g69
I4
ssg70
g3670
sg63
(lp3677
g56
(g65
g58
NtRp3678
(dp3679
g61
(dp3680
g69
I3
ssg70
Nsg63
(lp3681
g56
(g72
g58
NtRp3682
(dp3683
g61
(dp3684
sg70
g3678
sg63
(lp3685
g56
(g77
g58
NtRp3686
(dp3687
g61
(dp3688
sg70
g3682
sg63
(lp3689
g56
(g57
g58
NtRp3690
(dp3691
g61
(dp3692
g69
I3
ssg70
g3686
sg63
(lp3693
cgluon.languages
lazyT_unpickle
p3694
(S's\x04\x00\x00\x00Home'
tRp3695
asbasbasbag56
(g72
g58
NtRp3696
(dp3697
g61
(dp3698
sg70
g3678
sg63
(lp3699
g56
(g77
g58
NtRp3700
(dp3701
g61
(dp3702
sg70
g3696
sg63
(lp3703
g56
(g57
g58
NtRp3704
(dp3705
g61
(dp3706
g69
I3
ssg70
g3700
sg63
(lp3707
g99
asbasbasbag56
(g72
g58
NtRp3708
(dp3709
g61
(dp3710
sg70
g3678
sg63
(lp3711
g56
(g77
g58
NtRp3712
(dp3713
g61
(dp3714
sg70
g3708
sg63
(lp3715
g56
(g57
g58
NtRp3716
(dp3717
g61
(dp3718
g69
I3
ssg70
g3712
sg63
(lp3719
S'/welcome/default/index'
p3720
asbasbasbag56
(g72
g58
NtRp3721
(dp3722
g61
(dp3723
sg70
g3678
sg63
(lp3724
g56
(g77
g58
NtRp3725
(dp3726
g61
(dp3727
sg70
g3721
sg63
(lp3728
g56
(g57
g58
NtRp3729
(dp3730
g61
(dp3731
g69
I3
ssg70
g3725
sg63
(lp3732
g56
(g65
g58
NtRp3733
(dp3734
g61
(dp3735
g69
I2
ssg70
Nsg63
(lp3736
sbasbasbasbasbasbasbasbag56
(g72
g58
NtRp3737
(dp3738
g61
(dp3739
sg70
g3662
sg63
(lp3740
g56
(g77
g58
NtRp3741
(dp3742
g61
(dp3743
sg70
g3737
sg63
(lp3744
g56
(g57
g58
NtRp3745
(dp3746
g61
(dp3747
g69
I4
ssg70
g3741
sg63
(lp3748
g56
(g65
g58
NtRp3749
(dp3750
g61
(dp3751
g69
I3
ssg70
Nsg63
(lp3752
g56
(g72
g58
NtRp3753
(dp3754
g61
(dp3755
sg70
g3749
sg63
(lp3756
g56
(g77
g58
NtRp3757
(dp3758
g61
(dp3759
sg70
g3753
sg63
(lp3760
g56
(g57
g58
NtRp3761
(dp3762
g61
(dp3763
g69
I3
ssg70
g3757
sg63
(lp3764
g3694
(S's\x08\x00\x00\x00This App'
tRp3765
asbasbasbag56
(g72
g58
NtRp3766
(dp3767
g61
(dp3768
sg70
g3749
sg63
(lp3769
g56
(g77
g58
NtRp3770
(dp3771
g61
(dp3772
sg70
g3766
sg63
(lp3773
g56
(g57
g58
NtRp3774
(dp3775
g61
(dp3776
g69
I3
ssg70
g3770
sg63
(lp3777
g99
asbasbasbag56
(g72
g58
NtRp3778
(dp3779
g61
(dp3780
sg70
g3749
sg63
(lp3781
g56
(g77
g58
NtRp3782
(dp3783
g61
(dp3784
sg70
g3778
sg63
(lp3785
g56
(g57
g58
NtRp3786
(dp3787
g61
(dp3788
g69
I3
ssg70
g3782
sg63
(lp3789
S'/admin/default/design/welcome'
p3790
asbasbasbag56
(g72
g58
NtRp3791
(dp3792
g61
(dp3793
sg70
g3749
sg63
(lp3794
g56
(g77
g58
NtRp3795
(dp3796
g61
(dp3797
sg70
g3791
sg63
(lp3798
g56
(g57
g58
NtRp3799
(dp3800
g61
(dp3801
g69
I3
ssg70
g3795
sg63
(lp3802
g56
(g65
g58
NtRp3803
(dp3804
g61
(dp3805
g69
I2
ssg70
Nsg63
(lp3806
g56
(g72
g58
NtRp3807
(dp3808
g61
(dp3809
sg70
g3803
sg63
(lp3810
g56
(g77
g58
NtRp3811
(dp3812
g61
(dp3813
sg70
g3807
sg63
(lp3814
g56
(g57
g58
NtRp3815
(dp3816
g61
(dp3817
g69
I2
ssg70
g3811
sg63
(lp3818
g56
(g65
g58
NtRp3819
(dp3820
g61
(dp3821
g69
I1
ssg70
Nsg63
(lp3822
g56
(g72
g58
NtRp3823
(dp3824
g61
(dp3825
sg70
g3819
sg63
(lp3826
g56
(g77
g58
NtRp3827
(dp3828
g61
(dp3829
sg70
g3823
sg63
(lp3830
g56
(g57
g58
NtRp3831
(dp3832
g61
(dp3833
g69
I1
ssg70
g3827
sg63
(lp3834
g3694
(S's\n\x00\x00\x00Controller'
tRp3835
asbasbasbag56
(g72
g58
NtRp3836
(dp3837
g61
(dp3838
sg70
g3819
sg63
(lp3839
g56
(g77
g58
NtRp3840
(dp3841
g61
(dp3842
sg70
g3836
sg63
(lp3843
g56
(g57
g58
NtRp3844
(dp3845
g61
(dp3846
g69
I1
ssg70
g3840
sg63
(lp3847
I00
asbasbasbag56
(g72
g58
NtRp3848
(dp3849
g61
(dp3850
sg70
g3819
sg63
(lp3851
g56
(g77
g58
NtRp3852
(dp3853
g61
(dp3854
sg70
g3848
sg63
(lp3855
g56
(g57
g58
NtRp3856
(dp3857
g61
(dp3858
g69
I1
ssg70
g3852
sg63
(lp3859
S'/admin/default/edit/welcome/controllers/default.py'
p3860
asbasbasbasbasbasbasbag56
(g72
g58
NtRp3861
(dp3862
g61
(dp3863
sg70
g3803
sg63
(lp3864
g56
(g77
g58
NtRp3865
(dp3866
g61
(dp3867
sg70
g3861
sg63
(lp3868
g56
(g57
g58
NtRp3869
(dp3870
g61
(dp3871
g69
I2
ssg70
g3865
sg63
(lp3872
g56
(g65
g58
NtRp3873
(dp3874
g61
(dp3875
g69
I1
ssg70
Nsg63
(lp3876
g56
(g72
g58
NtRp3877
(dp3878
g61
(dp3879
sg70
g3873
sg63
(lp3880
g56
(g77
g58
NtRp3881
(dp3882
g61
(dp3883
sg70
g3877
sg63
(lp3884
g56
(g57
g58
NtRp3885
(dp3886
g61
(dp3887
g69
I1
ssg70
g3881
sg63
(lp3888
g3694
(S's\x04\x00\x00\x00View'
tRp3889
asbasbasbag56
(g72
g58
NtRp3890
(dp3891
g61
(dp3892
sg70
g3873
sg63
(lp3893
g56
(g77
g58
NtRp3894
(dp3895
g61
(dp3896
sg70
g3890
sg63
(lp3897
g56
(g57
g58
NtRp3898
(dp3899
g61
(dp3900
g69
I1
ssg70
g3894
sg63
(lp3901
I00
asbasbasbag56
(g72
g58
NtRp3902
(dp3903
g61
(dp3904
sg70
g3873
sg63
(lp3905
g56
(g77
g58
NtRp3906
(dp3907
g61
(dp3908
sg70
g3902
sg63
(lp3909
g56
(g57
g58
NtRp3910
(dp3911
g61
(dp3912
g69
I1
ssg70
g3906
sg63
(lp3913
S'/admin/default/edit/welcome/views/default/coming_soon.html'
p3914
asbasbasbasbasbasbasbag56
(g72
g58
NtRp3915
(dp3916
g61
(dp3917
sg70
g3803
sg63
(lp3918
g56
(g77
g58
NtRp3919
(dp3920
g61
(dp3921
sg70
g3915
sg63
(lp3922
g56
(g57
g58
NtRp3923
(dp3924
g61
(dp3925
g69
I2
ssg70
g3919
sg63
(lp3926
g56
(g65
g58
NtRp3927
(dp3928
g61
(dp3929
g69
I1
ssg70
Nsg63
(lp3930
g56
(g72
g58
NtRp3931
(dp3932
g61
(dp3933
sg70
g3927
sg63
(lp3934
g56
(g77
g58
NtRp3935
(dp3936
g61
(dp3937
sg70
g3931
sg63
(lp3938
g56
(g57
g58
NtRp3939
(dp3940
g61
(dp3941
g69
I1
ssg70
g3935
sg63
(lp3942
g3694
(S's\x06\x00\x00\x00Layout'
tRp3943
asbasbasbag56
(g72
g58
NtRp3944
(dp3945
g61
(dp3946
sg70
g3927
sg63
(lp3947
g56
(g77
g58
NtRp3948
(dp3949
g61
(dp3950
sg70
g3944
sg63
(lp3951
g56
(g57
g58
NtRp3952
(dp3953
g61
(dp3954
g69
I1
ssg70
g3948
sg63
(lp3955
I00
asbasbasbag56
(g72
g58
NtRp3956
(dp3957
g61
(dp3958
sg70
g3927
sg63
(lp3959
g56
(g77
g58
NtRp3960
(dp3961
g61
(dp3962
sg70
g3956
sg63
(lp3963
g56
(g57
g58
NtRp3964
(dp3965
g61
(dp3966
g69
I1
ssg70
g3960
sg63
(lp3967
S'/admin/default/edit/welcome/views/layout.html'
p3968
asbasbasbasbasbasbasbag56
(g72
g58
NtRp3969
(dp3970
g61
(dp3971
sg70
g3803
sg63
(lp3972
g56
(g77
g58
NtRp3973
(dp3974
g61
(dp3975
sg70
g3969
sg63
(lp3976
g56
(g57
g58
NtRp3977
(dp3978
g61
(dp3979
g69
I2
ssg70
g3973
sg63
(lp3980
g56
(g65
g58
NtRp3981
(dp3982
g61
(dp3983
g69
I1
ssg70
Nsg63
(lp3984
g56
(g72
g58
NtRp3985
(dp3986
g61
(dp3987
sg70
g3981
sg63
(lp3988
g56
(g77
g58
NtRp3989
(dp3990
g61
(dp3991
sg70
g3985
sg63
(lp3992
g56
(g57
g58
NtRp3993
(dp3994
g61
(dp3995
g69
I1
ssg70
g3989
sg63
(lp3996
g3694
(S's\n\x00\x00\x00Stylesheet'
tRp3997
asbasbasbag56
(g72
g58
NtRp3998
(dp3999
g61
(dp4000
sg70
g3981
sg63
(lp4001
g56
(g77
g58
NtRp4002
(dp4003
g61
(dp4004
sg70
g3998
sg63
(lp4005
g56
(g57
g58
NtRp4006
(dp4007
g61
(dp4008
g69
I1
ssg70
g4002
sg63
(lp4009
I00
asbasbasbag56
(g72
g58
NtRp4010
(dp4011
g61
(dp4012
sg70
g3981
sg63
(lp4013
g56
(g77
g58
NtRp4014
(dp4015
g61
(dp4016
sg70
g4010
sg63
(lp4017
g56
(g57
g58
NtRp4018
(dp4019
g61
(dp4020
g69
I1
ssg70
g4014
sg63
(lp4021
S'/admin/default/edit/welcome/static/base.css'
p4022
asbasbasbasbasbasbasbag56
(g72
g58
NtRp4023
(dp4024
g61
(dp4025
sg70
g3803
sg63
(lp4026
g56
(g77
g58
NtRp4027
(dp4028
g61
(dp4029
sg70
g4023
sg63
(lp4030
g56
(g57
g58
NtRp4031
(dp4032
g61
(dp4033
g69
I2
ssg70
g4027
sg63
(lp4034
g56
(g65
g58
NtRp4035
(dp4036
g61
(dp4037
g69
I1
ssg70
Nsg63
(lp4038
g56
(g72
g58
NtRp4039
(dp4040
g61
(dp4041
sg70
g4035
sg63
(lp4042
g56
(g77
g58
NtRp4043
(dp4044
g61
(dp4045
sg70
g4039
sg63
(lp4046
g56
(g57
g58
NtRp4047
(dp4048
g61
(dp4049
g69
I1
ssg70
g4043
sg63
(lp4050
g3694
(S's\x08\x00\x00\x00DB Model'
tRp4051
asbasbasbag56
(g72
g58
NtRp4052
(dp4053
g61
(dp4054
sg70
g4035
sg63
(lp4055
g56
(g77
g58
NtRp4056
(dp4057
g61
(dp4058
sg70
g4052
sg63
(lp4059
g56
(g57
g58
NtRp4060
(dp4061
g61
(dp4062
g69
I1
ssg70
g4056
sg63
(lp4063
I00
asbasbasbag56
(g72
g58
NtRp4064
(dp4065
g61
(dp4066
sg70
g4035
sg63
(lp4067
g56
(g77
g58
NtRp4068
(dp4069
g61
(dp4070
sg70
g4064
sg63
(lp4071
g56
(g57
g58
NtRp4072
(dp4073
g61
(dp4074
g69
I1
ssg70
g4068
sg63
(lp4075
S'/admin/default/edit/welcome/models/db.py'
p4076
asbasbasbasbasbasbasbag56
(g72
g58
NtRp4077
(dp4078
g61
(dp4079
sg70
g3803
sg63
(lp4080
g56
(g77
g58
NtRp4081
(dp4082
g61
(dp4083
sg70
g4077
sg63
(lp4084
g56
(g57
g58
NtRp4085
(dp4086
g61
(dp4087
g69
I2
ssg70
g4081
sg63
(lp4088
g56
(g65
g58
NtRp4089
(dp4090
g61
(dp4091
g69
I1
ssg70
Nsg63
(lp4092
g56
(g72
g58
NtRp4093
(dp4094
g61
(dp4095
sg70
g4089
sg63
(lp4096
g56
(g77
g58
NtRp4097
(dp4098
g61
(dp4099
sg70
g4093
sg63
(lp4100
g56
(g57
g58
NtRp4101
(dp4102
g61
(dp4103
g69
I1
ssg70
g4097
sg63
(lp4104
g3694
(S's\n\x00\x00\x00Menu Model'
tRp4105
asbasbasbag56
(g72
g58
NtRp4106
(dp4107
g61
(dp4108
sg70
g4089
sg63
(lp4109
g56
(g77
g58
NtRp4110
(dp4111
g61
(dp4112
sg70
g4106
sg63
(lp4113
g56
(g57
g58
NtRp4114
(dp4115
g61
(dp4116
g69
I1
ssg70
g4110
sg63
(lp4117
I00
asbasbasbag56
(g72
g58
NtRp4118
(dp4119
g61
(dp4120
sg70
g4089
sg63
(lp4121
g56
(g77
g58
NtRp4122
(dp4123
g61
(dp4124
sg70
g4118
sg63
(lp4125
g56
(g57
g58
NtRp4126
(dp4127
g61
(dp4128
g69
I1
ssg70
g4122
sg63
(lp4129
S'/admin/default/edit/welcome/models/menu.py'
p4130
asbasbasbasbasbasbasbag56
(g72
g58
NtRp4131
(dp4132
g61
(dp4133
sg70
g3803
sg63
(lp4134
g56
(g77
g58
NtRp4135
(dp4136
g61
(dp4137
sg70
g4131
sg63
(lp4138
g56
(g57
g58
NtRp4139
(dp4140
g61
(dp4141
g69
I2
ssg70
g4135
sg63
(lp4142
g56
(g65
g58
NtRp4143
(dp4144
g61
(dp4145
g69
I1
ssg70
Nsg63
(lp4146
g56
(g72
g58
NtRp4147
(dp4148
g61
(dp4149
sg70
g4143
sg63
(lp4150
g56
(g77
g58
NtRp4151
(dp4152
g61
(dp4153
sg70
g4147
sg63
(lp4154
g56
(g57
g58
NtRp4155
(dp4156
g61
(dp4157
g69
I1
ssg70
g4151
sg63
(lp4158
g3694
(S's\x08\x00\x00\x00Database'
tRp4159
asbasbasbag56
(g72
g58
NtRp4160
(dp4161
g61
(dp4162
sg70
g4143
sg63
(lp4163
g56
(g77
g58
NtRp4164
(dp4165
g61
(dp4166
sg70
g4160
sg63
(lp4167
g56
(g57
g58
NtRp4168
(dp4169
g61
(dp4170
g69
I1
ssg70
g4164
sg63
(lp4171
I00
asbasbasbag56
(g72
g58
NtRp4172
(dp4173
g61
(dp4174
sg70
g4143
sg63
(lp4175
g56
(g77
g58
NtRp4176
(dp4177
g61
(dp4178
sg70
g4172
sg63
(lp4179
g56
(g57
g58
NtRp4180
(dp4181
g61
(dp4182
g69
I1
ssg70
g4176
sg63
(lp4183
S'/welcome/appadmin/index'
p4184
asbasbasbasbasbasbasbag56
(g72
g58
NtRp4185
(dp4186
g61
(dp4187
sg70
g3803
sg63
(lp4188
g56
(g77
g58
NtRp4189
(dp4190
g61
(dp4191
sg70
g4185
sg63
(lp4192
g56
(g57
g58
NtRp4193
(dp4194
g61
(dp4195
g69
I2
ssg70
g4189
sg63
(lp4196
g56
(g65
g58
NtRp4197
(dp4198
g61
(dp4199
g69
I1
ssg70
Nsg63
(lp4200
g56
(g72
g58
NtRp4201
(dp4202
g61
(dp4203
sg70
g4197
sg63
(lp4204
g56
(g77
g58
NtRp4205
(dp4206
g61
(dp4207
sg70
g4201
sg63
(lp4208
g56
(g57
g58
NtRp4209
(dp4210
g61
(dp4211
g69
I1
ssg70
g4205
sg63
(lp4212
g3694
(S's\x06\x00\x00\x00Errors'
tRp4213
asbasbasbag56
(g72
g58
NtRp4214
(dp4215
g61
(dp4216
sg70
g4197
sg63
(lp4217
g56
(g77
g58
NtRp4218
(dp4219
g61
(dp4220
sg70
g4214
sg63
(lp4221
g56
(g57
g58
NtRp4222
(dp4223
g61
(dp4224
g69
I1
ssg70
g4218
sg63
(lp4225
I00
asbasbasbag56
(g72
g58
NtRp4226
(dp4227
g61
(dp4228
sg70
g4197
sg63
(lp4229
g56
(g77
g58
NtRp4230
(dp4231
g61
(dp4232
sg70
g4226
sg63
(lp4233
g56
(g57
g58
NtRp4234
(dp4235
g61
(dp4236
g69
I1
ssg70
g4230
sg63
(lp4237
S'/admin/default/errors/welcome'
p4238
asbasbasbasbasbasbasbag56
(g72
g58
NtRp4239
(dp4240
g61
(dp4241
sg70
g3803
sg63
(lp4242
g56
(g77
g58
NtRp4243
(dp4244
g61
(dp4245
sg70
g4239
sg63
(lp4246
g56
(g57
g58
NtRp4247
(dp4248
g61
(dp4249
g69
I2
ssg70
g4243
sg63
(lp4250
g56
(g65
g58
NtRp4251
(dp4252
g61
(dp4253
g69
I1
ssg70
Nsg63
(lp4254
g56
(g72
g58
NtRp4255
(dp4256
g61
(dp4257
sg70
g4251
sg63
(lp4258
g56
(g77
g58
NtRp4259
(dp4260
g61
(dp4261
sg70
g4255
sg63
(lp4262
g56
(g57
g58
NtRp4263
(dp4264
g61
(dp4265
g69
I1
ssg70
g4259
sg63
(lp4266
g3694
(S's\x05\x00\x00\x00About'
tRp4267
asbasbasbag56
(g72
g58
NtRp4268
(dp4269
g61
(dp4270
sg70
g4251
sg63
(lp4271
g56
(g77
g58
NtRp4272
(dp4273
g61
(dp4274
sg70
g4268
sg63
(lp4275
g56
(g57
g58
NtRp4276
(dp4277
g61
(dp4278
g69
I1
ssg70
g4272
sg63
(lp4279
I00
asbasbasbag56
(g72
g58
NtRp4280
(dp4281
g61
(dp4282
sg70
g4251
sg63
(lp4283
g56
(g77
g58
NtRp4284
(dp4285
g61
(dp4286
sg70
g4280
sg63
(lp4287
g56
(g57
g58
NtRp4288
(dp4289
g61
(dp4290
g69
I1
ssg70
g4284
sg63
(lp4291
S'/admin/default/about/welcome'
p4292
asbasbasbasbasbasbasbasbasbasbasbasbasbasbasbag56
(g72
g58
NtRp4293
(dp4294
g61
(dp4295
sg70
g3662
sg63
(lp4296
g56
(g77
g58
NtRp4297
(dp4298
g61
(dp4299
sg70
g4293
sg63
(lp4300
g56
(g57
g58
NtRp4301
(dp4302
g61
(dp4303
g69
I4
ssg70
g4297
sg63
(lp4304
g56
(g65
g58
NtRp4305
(dp4306
g61
(dp4307
g69
I3
ssg70
Nsg63
(lp4308
g56
(g72
g58
NtRp4309
(dp4310
g61
(dp4311
sg70
g4305
sg63
(lp4312
g56
(g77
g58
NtRp4313
(dp4314
g61
(dp4315
sg70
g4309
sg63
(lp4316
g56
(g57
g58
NtRp4317
(dp4318
g61
(dp4319
g69
I3
ssg70
g4313
sg63
(lp4320
g3694
(S's\t\x00\x00\x00Resources'
tRp4321
asbasbasbag56
(g72
g58
NtRp4322
(dp4323
g61
(dp4324
sg70
g4305
sg63
(lp4325
g56
(g77
g58
NtRp4326
(dp4327
g61
(dp4328
sg70
g4322
sg63
(lp4329
g56
(g57
g58
NtRp4330
(dp4331
g61
(dp4332
g69
I3
ssg70
g4326
sg63
(lp4333
g99
asbasbasbag56
(g72
g58
NtRp4334
(dp4335
g61
(dp4336
sg70
g4305
sg63
(lp4337
g56
(g77
g58
NtRp4338
(dp4339
g61
(dp4340
sg70
g4334
sg63
(lp4341
g56
(g57
g58
NtRp4342
(dp4343
g61
(dp4344
g69
I3
ssg70
g4338
sg63
(lp4345
S'None'
p4346
asbasbasbag56
(g72
g58
NtRp4347
(dp4348
g61
(dp4349
sg70
g4305
sg63
(lp4350
g56
(g77
g58
NtRp4351
(dp4352
g61
(dp4353
sg70
g4347
sg63
(lp4354
g56
(g57
g58
NtRp4355
(dp4356
g61
(dp4357
g69
I3
ssg70
g4351
sg63
(lp4358
g56
(g65
g58
NtRp4359
(dp4360
g61
(dp4361
g69
I2
ssg70
Nsg63
(lp4362
g56
(g72
g58
NtRp4363
(dp4364
g61
(dp4365
sg70
g4359
sg63
(lp4366
g56
(g77
g58
NtRp4367
(dp4368
g61
(dp4369
sg70
g4363
sg63
(lp4370
g56
(g57
g58
NtRp4371
(dp4372
g61
(dp4373
g69
I2
ssg70
g4367
sg63
(lp4374
g56
(g65
g58
NtRp4375
(dp4376
g61
(dp4377
g69
I1
ssg70
Nsg63
(lp4378
g56
(g72
g58
NtRp4379
(dp4380
g61
(dp4381
sg70
g4375
sg63
(lp4382
g56
(g77
g58
NtRp4383
(dp4384
g61
(dp4385
sg70
g4379
sg63
(lp4386
g56
(g57
g58
NtRp4387
(dp4388
g61
(dp4389
g69
I1
ssg70
g4383
sg63
(lp4390
g3694
(S's\r\x00\x00\x00Documentation'
tRp4391
asbasbasbag56
(g72
g58
NtRp4392
(dp4393
g61
(dp4394
sg70
g4375
sg63
(lp4395
g56
(g77
g58
NtRp4396
(dp4397
g61
(dp4398
sg70
g4392
sg63
(lp4399
g56
(g57
g58
NtRp4400
(dp4401
g61
(dp4402
g69
I1
ssg70
g4396
sg63
(lp4403
I00
asbasbasbag56
(g72
g58
NtRp4404
(dp4405
g61
(dp4406
sg70
g4375
sg63
(lp4407
g56
(g77
g58
NtRp4408
(dp4409
g61
(dp4410
sg70
g4404
sg63
(lp4411
g56
(g57
g58
NtRp4412
(dp4413
g61
(dp4414
g69
I1
ssg70
g4408
sg63
(lp4415
S'http://www.web2py.com/book'
p4416
asbasbasbag56
(g72
g58
NtRp4417
(dp4418
g61
(dp4419
sg70
g4375
sg63
(lp4420
g56
(g77
g58
NtRp4421
(dp4422
g61
(dp4423
sg70
g4417
sg63
(lp4424
g56
(g57
g58
NtRp4425
(dp4426
g61
(dp4427
g69
I1
ssg70
g4421
sg63
(lp4428
(lp4429
(g3694
(S's\x07\x00\x00\x00Preface'
tRp4430
I00
S'http://www.web2py.com/book/default/chapter/00'
p4431
tp4432
a(g3694
(S's\x0c\x00\x00\x00Introduction'
tRp4433
I00
S'http://www.web2py.com/book/default/chapter/01'
p4434
tp4435
a(g3694
(S's\x06\x00\x00\x00Python'
tRp4436
I00
S'http://www.web2py.com/book/default/chapter/02'
p4437
tp4438
a(g3694
(S's\x08\x00\x00\x00Overview'
tRp4439
I00
S'http://www.web2py.com/book/default/chapter/03'
p4440
tp4441
a(g3694
(S's\x08\x00\x00\x00The Core'
tRp4442
I00
S'http://www.web2py.com/book/default/chapter/04'
p4443
tp4444
a(g3694
(S's\t\x00\x00\x00The Views'
tRp4445
I00
S'http://www.web2py.com/book/default/chapter/05'
p4446
tp4447
a(g3694
(S's\x08\x00\x00\x00Database'
tRp4448
I00
S'http://www.web2py.com/book/default/chapter/06'
p4449
tp4450
a(g3694
(S's\x14\x00\x00\x00Forms and Validators'
tRp4451
I00
S'http://www.web2py.com/book/default/chapter/07'
p4452
tp4453
a(g3694
(S's\x0e\x00\x00\x00Access Control'
tRp4454
I00
S'http://www.web2py.com/book/default/chapter/08'
p4455
tp4456
a(g3694
(S's\x08\x00\x00\x00Services'
tRp4457
I00
S'http://www.web2py.com/book/default/chapter/09'
p4458
tp4459
a(g3694
(S's\x0c\x00\x00\x00Ajax Recipes'
tRp4460
I00
S'http://www.web2py.com/book/default/chapter/10'
p4461
tp4462
a(g3694
(S's\x12\x00\x00\x00Deployment Recipes'
tRp4463
I00
S'http://www.web2py.com/book/default/chapter/11'
p4464
tp4465
a(g3694
(S's\r\x00\x00\x00Other Recipes'
tRp4466
I00
S'http://www.web2py.com/book/default/chapter/12'
p4467
tp4468
a(g3694
(S's\r\x00\x00\x00Buy this book'
tRp4469
I00
S'http://stores.lulu.com/web2py'
p4470
tp4471
aasbasbasbasbasbasbasbag56
(g72
g58
NtRp4472
(dp4473
g61
(dp4474
sg70
g4359
sg63
(lp4475
g56
(g77
g58
NtRp4476
(dp4477
g61
(dp4478
sg70
g4472
sg63
(lp4479
g56
(g57
g58
NtRp4480
(dp4481
g61
(dp4482
g69
I2
ssg70
g4476
sg63
(lp4483
g56
(g65
g58
NtRp4484
(dp4485
g61
(dp4486
g69
I1
ssg70
Nsg63
(lp4487
g56
(g72
g58
NtRp4488
(dp4489
g61
(dp4490
sg70
g4484
sg63
(lp4491
g56
(g77
g58
NtRp4492
(dp4493
g61
(dp4494
sg70
g4488
sg63
(lp4495
g56
(g57
g58
NtRp4496
(dp4497
g61
(dp4498
g69
I1
ssg70
g4492
sg63
(lp4499
g3694
(S's\t\x00\x00\x00Community'
tRp4500
asbasbasbag56
(g72
g58
NtRp4501
(dp4502
g61
(dp4503
sg70
g4484
sg63
(lp4504
g56
(g77
g58
NtRp4505
(dp4506
g61
(dp4507
sg70
g4501
sg63
(lp4508
g56
(g57
g58
NtRp4509
(dp4510
g61
(dp4511
g69
I1
ssg70
g4505
sg63
(lp4512
I00
asbasbasbag56
(g72
g58
NtRp4513
(dp4514
g61
(dp4515
sg70
g4484
sg63
(lp4516
g56
(g77
g58
NtRp4517
(dp4518
g61
(dp4519
sg70
g4513
sg63
(lp4520
g56
(g57
g58
NtRp4521
(dp4522
g61
(dp4523
g69
I1
ssg70
g4517
sg63
(lp4524
Nasbasbasbag56
(g72
g58
NtRp4525
(dp4526
g61
(dp4527
sg70
g4484
sg63
(lp4528
g56
(g77
g58
NtRp4529
(dp4530
g61
(dp4531
sg70
g4525
sg63
(lp4532
g56
(g57
g58
NtRp4533
(dp4534
g61
(dp4535
g69
I1
ssg70
g4529
sg63
(lp4536
(lp4537
(g3694
(S's\x06\x00\x00\x00Groups'
tRp4538
I00
S'http://www.web2py.com/examples/default/usergroups'
p4539
tp4540
a(g3694
(S's\x07\x00\x00\x00Twitter'
tRp4541
I00
S'http://twitter.com/web2py'
p4542
tp4543
a(g3694
(S's\t\x00\x00\x00Live chat'
tRp4544
I00
S'http://mibbit.com/?channel=%23web2py&server=irc.mibbit.net'
p4545
tp4546
a(g3694
(S's\n\x00\x00\x00User Voice'
tRp4547
I00
S'http://web2py.uservoice.com/'
p4548
tp4549
aasbasbasbasbasbasbasbag56
(g72
g58
NtRp4550
(dp4551
g61
(dp4552
sg70
g4359
sg63
(lp4553
g56
(g77
g58
NtRp4554
(dp4555
g61
(dp4556
sg70
g4550
sg63
(lp4557
g56
(g57
g58
NtRp4558
(dp4559
g61
(dp4560
g69
I2
ssg70
g4554
sg63
(lp4561
g56
(g65
g58
NtRp4562
(dp4563
g61
(dp4564
g69
I1
ssg70
Nsg63
(lp4565
g56
(g72
g58
NtRp4566
(dp4567
g61
(dp4568
sg70
g4562
sg63
(lp4569
g56
(g77
g58
NtRp4570
(dp4571
g61
(dp4572
sg70
g4566
sg63
(lp4573
g56
(g57
g58
NtRp4574
(dp4575
g61
(dp4576
g69
I1
ssg70
g4570
sg63
(lp4577
g3694
(S's\x06\x00\x00\x00Web2py'
tRp4578
asbasbasbag56
(g72
g58
NtRp4579
(dp4580
g61
(dp4581
sg70
g4562
sg63
(lp4582
g56
(g77
g58
NtRp4583
(dp4584
g61
(dp4585
sg70
g4579
sg63
(lp4586
g56
(g57
g58
NtRp4587
(dp4588
g61
(dp4589
g69
I1
ssg70
g4583
sg63
(lp4590
I00
asbasbasbag56
(g72
g58
NtRp4591
(dp4592
g61
(dp4593
sg70
g4562
sg63
(lp4594
g56
(g77
g58
NtRp4595
(dp4596
g61
(dp4597
sg70
g4591
sg63
(lp4598
g56
(g57
g58
NtRp4599
(dp4600
g61
(dp4601
g69
I1
ssg70
g4595
sg63
(lp4602
S'http://www.web2py.com'
p4603
asbasbasbag56
(g72
g58
NtRp4604
(dp4605
g61
(dp4606
sg70
g4562
sg63
(lp4607
g56
(g77
g58
NtRp4608
(dp4609
g61
(dp4610
sg70
g4604
sg63
(lp4611
g56
(g57
g58
NtRp4612
(dp4613
g61
(dp4614
g69
I1
ssg70
g4608
sg63
(lp4615
(lp4616
(g3694
(S's\x08\x00\x00\x00Download'
tRp4617
I00
S'http://www.web2py.com/examples/default/download'
p4618
tp4619
a(g3694
(S's\x07\x00\x00\x00Support'
tRp4620
I00
S'http://www.web2py.com/examples/default/support'
p4621
tp4622
a(g3694
(S's\x0e\x00\x00\x00Quick Examples'
tRp4623
I00
S'http://web2py.com/examples/default/examples'
p4624
tp4625
a(g3694
(S's\x03\x00\x00\x00FAQ'
tRp4626
I00
S'http://web2py.com/AlterEgo'
p4627
tp4628
a(g3694
(S's\x11\x00\x00\x00Free Applications'
tRp4629
I00
S'http://web2py.com/appliances'
p4630
tp4631
a(g3694
(S's\x07\x00\x00\x00Plugins'
tRp4632
I00
S'http://web2py.com/plugins'
p4633
tp4634
a(g3694
(S's\x07\x00\x00\x00Recipes'
tRp4635
I00
S'http://web2pyslices.com/'
p4636
tp4637
a(g3694
(S's\x04\x00\x00\x00Demo'
tRp4638
I00
S'http://web2py.com/demo_admin'
p4639
tp4640
a(g3694
(S's\x08\x00\x00\x00Semantic'
tRp4641
I00
S'http://web2py.com/semantic'
p4642
tp4643
a(g3694
(S's\x07\x00\x00\x00Layouts'
tRp4644
I00
S'http://web2py.com/layouts'
p4645
tp4646
a(g3694
(S's\x06\x00\x00\x00Videos'
tRp4647
I00
S'http://www.web2py.com/examples/default/videos/'
p4648
tp4649
aasbasbasbasbasbasbasbasbasbasbasbasbasbasbasbasbasbasbasbag56
(g72
g58
NtRp4650
(dp4651
g61
(dp4652
sg70
g3189
sg63
(lp4653
g56
(g77
g58
NtRp4654
(dp4655
g61
(dp4656
g81
g82
ssg70
g4650
sg63
(lp4657
S'meta'
p4658
asbag56
(g77
g58
NtRp4659
(dp4660
g61
(dp4661
g88
g89
ssg70
g4650
sg63
(lp4662
S':'
asbag56
(g77
g58
NtRp4663
(dp4664
g61
(dp4665
sg70
g4650
sg63
(lp4666
g56
(g57
g58
NtRp4667
(dp4668
g61
(dp4669
g69
I5
ssg70
g4663
sg63
(lp4670
g56
(g65
g58
NtRp4671
(dp4672
g61
(dp4673
g69
I4
ssg70
Nsg63
(lp4674
g56
(g72
g58
NtRp4675
(dp4676
g61
(dp4677
sg70
g4671
sg63
(lp4678
g56
(g77
g58
NtRp4679
(dp4680
g61
(dp4681
g81
g82
ssg70
g4675
sg63
(lp4682
S'author'
p4683
asbag56
(g77
g58
NtRp4684
(dp4685
g61
(dp4686
g88
g89
ssg70
g4675
sg63
(lp4687
S':'
asbag56
(g77
g58
NtRp4688
(dp4689
g61
(dp4690
sg70
g4675
sg63
(lp4691
g56
(g57
g58
NtRp4692
(dp4693
g61
(dp4694
g69
I4
ssg70
g4688
sg63
(lp4695
S'Your Name <you@example.com>'
p4696
asbasbasbag56
(g72
g58
NtRp4697
(dp4698
g61
(dp4699
sg70
g4671
sg63
(lp4700
g56
(g77
g58
NtRp4701
(dp4702
g61
(dp4703
g81
g82
ssg70
g4697
sg63
(lp4704
S'copyright'
p4705
asbag56
(g77
g58
NtRp4706
(dp4707
g61
(dp4708
g88
g89
ssg70
g4697
sg63
(lp4709
S':'
asbag56
(g77
g58
NtRp4710
(dp4711
g61
(dp4712
sg70
g4697
sg63
(lp4713
g56
(g57
g58
NtRp4714
(dp4715
g61
(dp4716
g69
I4
ssg70
g4710
sg63
(lp4717
S'Copyright 2011'
p4718
asbasbasbag56
(g72
g58
NtRp4719
(dp4720
g61
(dp4721
sg70
g4671
sg63
(lp4722
g56
(g77
g58
NtRp4723
(dp4724
g61
(dp4725
g81
g82
ssg70
g4719
sg63
(lp4726
S'description'
p4727
asbag56
(g77
g58
NtRp4728
(dp4729
g61
(dp4730
g88
g89
ssg70
g4719
sg63
(lp4731
S':'
asbag56
(g77
g58
NtRp4732
(dp4733
g61
(dp4734
sg70
g4719
sg63
(lp4735
g56
(g57
g58
NtRp4736
(dp4737
g61
(dp4738
g69
I4
ssg70
g4732
sg63
(lp4739
S'a cool new app'
p4740
asbasbasbag56
(g72
g58
NtRp4741
(dp4742
g61
(dp4743
sg70
g4671
sg63
(lp4744
g56
(g77
g58
NtRp4745
(dp4746
g61
(dp4747
g81
g82
ssg70
g4741
sg63
(lp4748
S'generator'
p4749
asbag56
(g77
g58
NtRp4750
(dp4751
g61
(dp4752
g88
g89
ssg70
g4741
sg63
(lp4753
S':'
asbag56
(g77
g58
NtRp4754
(dp4755
g61
(dp4756
sg70
g4741
sg63
(lp4757
g56
(g57
g58
NtRp4758
(dp4759
g61
(dp4760
g69
I4
ssg70
g4754
sg63
(lp4761
S'Web2py Web Framework'
p4762
asbasbasbag56
(g72
g58
NtRp4763
(dp4764
g61
(dp4765
sg70
g4671
sg63
(lp4766
g56
(g77
g58
NtRp4767
(dp4768
g61
(dp4769
g81
g82
ssg70
g4763
sg63
(lp4770
S'keywords'
p4771
asbag56
(g77
g58
NtRp4772
(dp4773
g61
(dp4774
g88
g89
ssg70
g4763
sg63
(lp4775
S':'
asbag56
(g77
g58
NtRp4776
(dp4777
g61
(dp4778
sg70
g4763
sg63
(lp4779
g56
(g57
g58
NtRp4780
(dp4781
g61
(dp4782
g69
I4
ssg70
g4776
sg63
(lp4783
S'web2py, python, framework'
p4784
asbasbasbasbasbasbasbag56
(g72
g58
NtRp4785
(dp4786
g61
(dp4787
sg70
g3189
sg63
(lp4788
g56
(g77
g58
NtRp4789
(dp4790
g61
(dp4791
g81
g82
ssg70
g4785
sg63
(lp4792
S'postprocessing'
p4793
asbag56
(g77
g58
NtRp4794
(dp4795
g61
(dp4796
g88
g89
ssg70
g4785
sg63
(lp4797
S':'
asbag56
(g77
g58
NtRp4798
(dp4799
g61
(dp4800
sg70
g4785
sg63
(lp4801
g56
(g57
g58
NtRp4802
(dp4803
g61
(dp4804
g69
I5
ssg70
g4798
sg63
(lp4805
g56
(g65
g58
NtRp4806
(dp4807
g61
(dp4808
g69
I4
ssg70
Nsg63
(lp4809
sbasbasbasbag56
(g72
g58
NtRp4810
(dp4811
g61
(dp4812
sg70
g3189
sg63
(lp4813
g56
(g77
g58
NtRp4814
(dp4815
g61
(dp4816
g81
g82
ssg70
g4810
sg63
(lp4817
S'session_file'
p4818
asbag56
(g77
g58
NtRp4819
(dp4820
g61
(dp4821
g88
g89
ssg70
g4810
sg63
(lp4822
S':'
asbag56
(g77
g58
NtRp4823
(dp4824
g61
(dp4825
sg70
g4810
sg63
(lp4826
g56
(g57
g58
NtRp4827
(dp4828
g61
(dp4829
g69
I5
ssg70
g4823
sg63
(lp4830
S"<open file '/Users/excon/Sites/dreamscape/applications/welcome/sessions/127.0.0.1-51cc951f-9f8f-44c6-96d8-bac94161d020', mode 'rb+' at 0x116f6c360>"
p4831
asbasbasbag56
(g72
g58
NtRp4832
(dp4833
g61
(dp4834
sg70
g3189
sg63
(lp4835
g56
(g77
g58
NtRp4836
(dp4837
g61
(dp4838
g81
g82
ssg70
g4832
sg63
(lp4839
S'session_filename'
p4840
asbag56
(g77
g58
NtRp4841
(dp4842
g61
(dp4843
g88
g89
ssg70
g4832
sg63
(lp4844
S':'
asbag56
(g77
g58
NtRp4845
(dp4846
g61
(dp4847
sg70
g4832
sg63
(lp4848
g56
(g57
g58
NtRp4849
(dp4850
g61
(dp4851
g69
I5
ssg70
g4845
sg63
(lp4852
S'/Users/excon/Sites/dreamscape/applications/welcome/sessions/127.0.0.1-51cc951f-9f8f-44c6-96d8-bac94161d020'
p4853
asbasbasbag56
(g72
g58
NtRp4854
(dp4855
g61
(dp4856
sg70
g3189
sg63
(lp4857
g56
(g77
g58
NtRp4858
(dp4859
g61
(dp4860
g81
g82
ssg70
g4854
sg63
(lp4861
S'session_id'
p4862
asbag56
(g77
g58
NtRp4863
(dp4864
g61
(dp4865
g88
g89
ssg70
g4854
sg63
(lp4866
S':'
asbag56
(g77
g58
NtRp4867
(dp4868
g61
(dp4869
sg70
g4854
sg63
(lp4870
g56
(g57
g58
NtRp4871
(dp4872
g61
(dp4873
g69
I5
ssg70
g4867
sg63
(lp4874
S'127.0.0.1-51cc951f-9f8f-44c6-96d8-bac94161d020'
p4875
asbasbasbag56
(g72
g58
NtRp4876
(dp4877
g61
(dp4878
sg70
g3189
sg63
(lp4879
g56
(g77
g58
NtRp4880
(dp4881
g61
(dp4882
g81
g82
ssg70
g4876
sg63
(lp4883
S'session_id_name'
p4884
asbag56
(g77
g58
NtRp4885
(dp4886
g61
(dp4887
g88
g89
ssg70
g4876
sg63
(lp4888
S':'
asbag56
(g77
g58
NtRp4889
(dp4890
g61
(dp4891
sg70
g4876
sg63
(lp4892
g56
(g57
g58
NtRp4893
(dp4894
g61
(dp4895
g69
I5
ssg70
g4889
sg63
(lp4896
g3246
asbasbasbag56
(g72
g58
NtRp4897
(dp4898
g61
(dp4899
sg70
g3189
sg63
(lp4900
g56
(g77
g58
NtRp4901
(dp4902
g61
(dp4903
g81
g82
ssg70
g4897
sg63
(lp4904
S'session_locked'
p4905
asbag56
(g77
g58
NtRp4906
(dp4907
g61
(dp4908
g88
g89
ssg70
g4897
sg63
(lp4909
S':'
asbag56
(g77
g58
NtRp4910
(dp4911
g61
(dp4912
sg70
g4897
sg63
(lp4913
g56
(g57
g58
NtRp4914
(dp4915
g61
(dp4916
g69
I5
ssg70
g4910
sg63
(lp4917
g1579
asbasbasbag56
(g72
g58
NtRp4918
(dp4919
g61
(dp4920
sg70
g3189
sg63
(lp4921
g56
(g77
g58
NtRp4922
(dp4923
g61
(dp4924
g81
g82
ssg70
g4918
sg63
(lp4925
S'session_new'
p4926
asbag56
(g77
g58
NtRp4927
(dp4928
g61
(dp4929
g88
g89
ssg70
g4918
sg63
(lp4930
S':'
asbag56
(g77
g58
NtRp4931
(dp4932
g61
(dp4933
sg70
g4918
sg63
(lp4934
g56
(g57
g58
NtRp4935
(dp4936
g61
(dp4937
g69
I5
ssg70
g4931
sg63
(lp4938
g99
asbasbasbag56
(g72
g58
NtRp4939
(dp4940
g61
(dp4941
sg70
g3189
sg63
(lp4942
g56
(g77
g58
NtRp4943
(dp4944
g61
(dp4945
g81
g82
ssg70
g4939
sg63
(lp4946
S'status'
p4947
asbag56
(g77
g58
NtRp4948
(dp4949
g61
(dp4950
g88
g89
ssg70
g4939
sg63
(lp4951
S':'
asbag56
(g77
g58
NtRp4952
(dp4953
g61
(dp4954
sg70
g4939
sg63
(lp4955
g56
(g57
g58
NtRp4956
(dp4957
g61
(dp4958
g69
I5
ssg70
g4952
sg63
(lp4959
S'200'
p4960
asbasbasbag56
(g72
g58
NtRp4961
(dp4962
g61
(dp4963
sg70
g3189
sg63
(lp4964
g56
(g77
g58
NtRp4965
(dp4966
g61
(dp4967
g81
g82
ssg70
g4961
sg63
(lp4968
S'subtitle'
p4969
asbag56
(g77
g58
NtRp4970
(dp4971
g61
(dp4972
g88
g89
ssg70
g4961
sg63
(lp4973
S':'
asbag56
(g77
g58
NtRp4974
(dp4975
g61
(dp4976
sg70
g4961
sg63
(lp4977
g56
(g57
g58
NtRp4978
(dp4979
g61
(dp4980
g69
I5
ssg70
g4974
sg63
(lp4981
g3694
(S's\r\x00\x00\x00customize me!'
tRp4982
asbasbasbag56
(g72
g58
NtRp4983
(dp4984
g61
(dp4985
sg70
g3189
sg63
(lp4986
g56
(g77
g58
NtRp4987
(dp4988
g61
(dp4989
g81
g82
ssg70
g4983
sg63
(lp4990
S'title'
p4991
asbag56
(g77
g58
NtRp4992
(dp4993
g61
(dp4994
g88
g89
ssg70
g4983
sg63
(lp4995
S':'
asbag56
(g77
g58
NtRp4996
(dp4997
g61
(dp4998
sg70
g4983
sg63
(lp4999
g56
(g57
g58
NtRp5000
(dp5001
g61
(dp5002
g69
I5
ssg70
g4996
sg63
(lp5003
g121
asbasbasbag56
(g72
g58
NtRp5004
(dp5005
g61
(dp5006
sg70
g3189
sg63
(lp5007
g56
(g77
g58
NtRp5008
(dp5009
g61
(dp5010
g81
g82
ssg70
g5004
sg63
(lp5011
g2245
asbag56
(g77
g58
NtRp5012
(dp5013
g61
(dp5014
g88
g89
ssg70
g5004
sg63
(lp5015
S':'
asbag56
(g77
g58
NtRp5016
(dp5017
g61
(dp5018
sg70
g5004
sg63
(lp5019
g56
(g57
g58
NtRp5020
(dp5021
g61
(dp5022
g69
I5
ssg70
g5016
sg63
(lp5023
g2258
asbasbasbag56
(g72
g58
NtRp5024
(dp5025
g61
(dp5026
sg70
g3189
sg63
(lp5027
g56
(g77
g58
NtRp5028
(dp5029
g61
(dp5030
g81
g82
ssg70
g5024
sg63
(lp5031
S'view'
p5032
asbag56
(g77
g58
NtRp5033
(dp5034
g61
(dp5035
g88
g89
ssg70
g5024
sg63
(lp5036
S':'
asbag56
(g77
g58
NtRp5037
(dp5038
g61
(dp5039
sg70
g5024
sg63
(lp5040
g56
(g57
g58
NtRp5041
(dp5042
g61
(dp5043
g69
I5
ssg70
g5037
sg63
(lp5044
S'default/coming_soon.html'
p5045
asbasbasbasbasbsS'locals'
p5046
(dp5047
S'xfields'
p5048
S"[('no_table_email__row', <gluon.html.LABEL object at 0x116f75050>, <gluon.html.INPUT object at 0x116f75110>, ''), ('submit_record__row', '', <gluon.html.INPUT object at 0x116be1fd0>, '')]"
p5049
sS'self'
p5050
S'<gluon.sqlhtml.SQLFORM object at 0x116be1ed0>'
p5051
sssS'traceback'
p5052
S'Traceback (most recent call last):\n  File "/Users/excon/Sites/dreamscape/gluon/restricted.py", line 194, in restricted\n    exec ccode in environment\n  File "/Users/excon/Sites/dreamscape/applications/welcome/controllers/default.py", line 96, in <module>\n  File "/Users/excon/Sites/dreamscape/gluon/globals.py", line 149, in <lambda>\n    self._caller = lambda f: f()\n  File "/Users/excon/Sites/dreamscape/applications/welcome/controllers/default.py", line 24, in coming_soon\n    form = SQLFORM.factory(db.invitation, submit_button=\'DREAM\', formstyle=\'div\')\n  File "/Users/excon/Sites/dreamscape/gluon/sqlhtml.py", line 1282, in factory\n    **attributes)\n  File "/Users/excon/Sites/dreamscape/gluon/sqlhtml.py", line 945, in __init__\n    table = self.createform(xfields)\n  File "/Users/excon/Sites/dreamscape/gluon/sqlhtml.py", line 988, in createform\n    raise RuntimeError, \'formstyle not supported\'\nRuntimeError: formstyle not supported\n'
p5053
s.