(dp1
S'output'
p2
S''
sS'layer'
p3
S'/Users/excon/Sites/dreamscape/applications/welcome/views/default/index.html'
p4
sS'code'
p5
S'response.write(\'<!DOCTYPE html>\\n<html lang="\', escape=False)\nresponse.write(T.accepted_language or \'en\')\nresponse.write(\'" class="no-js"><!-- no-js need it for modernzr -->\\n  <head>\\n    \\n    <meta charset="utf-8" />        \\n    <!-- www.phpied.com/conditional-comments-block-downloads/ -->\\n    <!--[if IE]>\\n      <!-- Always force latest IE rendering engine \\n       (even in intranet) & Chrome Frame \\n       Remove this if you use the .htaccess -->\\n      <meta http-equiv="X-UA-Compatible" content="IE=edge,chrome=1">\\n    <![endif]-->    \\n\\n    <title>\', escape=False)\nresponse.write(response.title or request.application)\nresponse.write(\'</title>\\n    \\n    <!-- http://dev.w3.org/html5/markup/meta.name.html -->\\n    <meta name="application-name" content="\', escape=False)\nresponse.write(request.application)\nresponse.write(\'" /> \\n    \\n    <!-- Speaking of Google, don\\\'t forget to set your site up: \\n     http://google.com/webmasters -->\\n    <meta name="google-site-verification" content="" />\\n    \\n    <!--  Mobile Viewport Fix\\n      j.mp/mobileviewport & davidbcalhoun.com/2010/viewport-metatag \\n      device-width: Occupy full width of the screen in its current orientation\\n      initial-scale = 1.0 retains dimensions instead of zooming out if page height > device height\\n      maximum-scale = 1.0 retains dimensions instead of zooming in if page width < device width\\n      -->\\n    <meta name="viewport" content="width=device-width, initial-scale=1.0, maximum-scale=1.0">\\n    \\n    <!-- Place favicon.ico and apple-touch-icon.png in the root of your domain and delete these references -->\\n    <link rel="shortcut icon" href="\', escape=False)\nresponse.write(URL(\'static\',\'favicon.ico\'))\nresponse.write(\'" type="image/x-icon">\\n    <link rel="apple-touch-icon" href="\', escape=False)\nresponse.write(URL(\'static\',\'favicon.png\'))\nresponse.write(\'">\\n\\n    <!-- For the less-enabled mobile browsers like Opera Mini -->\\n    <link rel="stylesheet" media="handheld" href="\', escape=False)\nresponse.write(URL(\'static\',\'css/handheld.css\'))\nresponse.write(\'">\\n    \\n    <!-- All JavaScript at the bottom, except for Modernizr which enables HTML5 elements & feature detects -->\\n    <script src="\', escape=False)\nresponse.write(URL(\'static\',\'js/modernizr-1.7.min.js\'))\nresponse.write(\'"></script>\\n    \\n    \', escape=False)\n#------  require CSS and JS files for this page (read info in base.css) ------\nresponse.write(\'\\n    \', escape=False)\nresponse.files.append(URL(\'static\',\'css/base.css\'))\nresponse.write(\'\\n    \', escape=False)\nresponse.files.append(URL(\'static\',\'css/superfish.css\'))\nresponse.write(\'\\n    \', escape=False)\nresponse.files.append(URL(\'static\',\'js/superfish.js\'))\nresponse.write(\'\\n    \', escape=False)\n#------ include web2py specific js code (jquery, calendar, form stuff) ------\nresponse.write(\'\\n    \', escape=False)\nresponse.files.insert(0,URL(\'static\',\'js/jquery.js\'))\nresponse.files.insert(1,URL(\'static\',\'css/anytime.css\'))\nresponse.files.insert(2,URL(\'static\',\'js/anytime.js\'))\nresponse.include_meta()\nresponse.include_files()\nresponse.write(\'\\n<script type="text/javascript"><!--\\n    // These variables are used by the web2py_ajax_init function in web2py_ajax.js (which is loaded below).\\n    var w2p_ajax_confirm_message = "\', escape=False)\nresponse.write(T(\'Are you sure you want to delete this object?\'))\nresponse.write(\'";\\n    var w2p_ajax_date_format = "\', escape=False)\nresponse.write(T(\'%Y-%m-%d\'))\nresponse.write(\'";\\n    var w2p_ajax_datetime_format = "\', escape=False)\nresponse.write(T(\'%Y-%m-%d %H:%M:%S\'))\nresponse.write(\'";\\n    //--></script>\\n    <script src="\', escape=False)\nresponse.write(URL(\'static\',\'js/web2py_ajax.js\'))\nresponse.write(\'" type="text/javascript"></script>\\n\', escape=False)\nresponse.write(\'\\n\\n    \', escape=False)\n#using sidebars need to know what sidebar you want to use\n#prior of using it, because of static width size of content, you can use\n#left_sidebar, right_sidebar, both or none (False left and right)\nleft_sidebar_enabled = globals().get(\'left_sidebar_enabled\',False)\nright_sidebar_enabled = globals().get(\'right_sidebar_enabled\',False)\nif left_sidebar_enabled and right_sidebar_enabled: width_content=\'63%\'\nelif left_sidebar_enabled != right_sidebar_enabled: width_content=\'740px\'\nelse: width_content=\'100%\'\nif left_sidebar_enabled: left_sidebar_style = \'style="display: block;"\'\nelse: left_sidebar_style = \'style="display: none;"\'\nif right_sidebar_enabled: right_sidebar_style = \'style="display: block;"\'\nelse: right_sidebar_style = \'style="display: none;"\'\nstyle_content = \'style="width: %s"\' % width_content\nresponse.write(\'\\n    \\n    <!-- uncomment here to load jquery-ui -->\\n    \\n    <link rel="stylesheet" href="http://ajax.googleapis.com/ajax/libs/jqueryui/1.8.16/themes/base/jquery-ui.css" type="text/css" media="all" />\\n    <script src="http://ajax.googleapis.com/ajax/libs/jqueryui/1.8.16/jquery-ui.min.js" type="text/javascript"></script>\\n    \\n   <!-- uncomment to load jquery-ui -->\\n    \\n    \\n  </head>\\n  \\n  <!-- paulirish.com/2008/conditional-stylesheets-vs-css-hacks-answer-neither/ -->  \\n  <!--[if lt IE 7 ]> <body class="ie6"> <![endif]-->\\n  <!--[if IE 7 ]>    <body class="ie7"> <![endif]-->\\n  <!--[if IE 8 ]>    <body class="ie8"> <![endif]-->\\n  <!--[if IE 9 ]>    <body class="ie9"> <![endif]-->\\n  <!--[if (gt IE 9)|!(IE)]><!--> <body> <!--<![endif]-->\\n    \\n    <div class="flash">\', escape=False)\nresponse.write(response.flash or \'\')\nresponse.write(\'</div> <!-- notification div -->\\n\\n        \\n\\n    <div id="container">                        \\n      \\n      <div id="wrapper">        \\n      \', escape=False)\ntry:\n    response.write(auth.navbar(action=URL(\'default\',\'user\')))\nexcept:pass\nresponse.write(\'\\n    \\n    <div id="header"> <!-- header and login nav -->\\n      \', escape=False)\nresponse.write(\' <!-- this is default header -->\\n      \\n      <h1>\\n        <span id="appname">\', escape=False)\nresponse.write(request.application.capitalize())\nresponse.write(\'</span>App\\n      </h1>\\n      <div style="clear: both;"></div><!-- Clear the divs -->\\n      \', escape=False)\nresponse.write(\'\\n    </div><!-- header  -->\\n    \\n    <div id="statusbar"><!-- statusbar is menu zone -->\\n      \', escape=False)\nresponse.write(\' <!-- this is default statusbar -->\\n      \', escape=False)\n#------ superfish menu ------\nresponse.write(\'\\n      \', escape=False)\nresponse.write(MENU(response.menu,_class=\'sf-menu\'))\nresponse.write(\'\\n      <script type="text/javascript">\\n        jQuery(document).ready(function(){\\n        jQuery(\\\'ul.sf-menu\\\').superfish();});\\n      </script>\\n\\n      <!-- AddToAny BEGIN -->\\n      <div style="padding: 7px; float:right;" class="a2a_kit a2a_default_style"><a class="a2a_dd" href="http://www.addtoany.com/share_save">Share</a></div><script type="text/javascript" src="http://static.addtoany.com/menu/page.js"></script>\\n      <!-- AddToAny END -->\\n\\n      <div style="clear: both;"></div><!-- Clear the divs -->   \\n      \', escape=False)\nresponse.write(\'               \\n    </div><!-- statusbar -->\\n    \\n    <div id="page"> <!-- Here my central body -->     \\n\\n      \', escape=False)\nif left_sidebar_enabled:\n    response.write(\'\\n          <div id="left_sidebar" \', escape=False)\n    response.write(XML(left_sidebar_style))\n    response.write(\' >\\n            <div style="padding: 4px;">\\n          \', escape=False)\n    response.write(\'Content Left Sidebar\', escape=False)\n    response.write(\'       \\n            </div>\\n          </div><!-- left_sidebar -->\\n      \', escape=False)\n    pass\nresponse.write(\'\\n\\n      <!-- content -->\\n      <div id="content" \', escape=False)\nresponse.write(XML(style_content))\nresponse.write(\' >\\n        \', escape=False)\nresponse.write(\'\\n\', escape=False)\nfor num in nums:\n    response.write(\'\\n\', escape=False)\n    response.write(P("a" + num))\n    response.write(\'\\n\', escape=False)\n    pass\nresponse.write(\'\\n<h1>Dreamscape</h1>\\n<p>Share your dreams with other dreamers to turn passions to realities.</p>\\n<p>We are really intent on everyone achieving their dreams.</p>\\n\', escape=False)\npass\nresponse.write(\'\\n      </div>\\n      <!-- content -->\\n\\n      \', escape=False)\nif right_sidebar_enabled:\n    response.write(\'\\n          <div id="right_sidebar" \', escape=False)\n    response.write(XML(right_sidebar_style))\n    response.write(\' >\\n            <div style="padding: 4px;">\\n              \', escape=False)\n    response.write(\'Content Right Sidebar\', escape=False)\n    response.write(\'\\n            </div>\\n      </div><!-- right_sidebar -->\\n          \', escape=False)\n    pass\nresponse.write(\'\\n\\n\\n      <div style="clear: both;"></div><!-- Clear the divs -->\\n      \\n    </div><!-- page -->                         \\n    \\n    <div id="footer">\\n      \', escape=False)\nresponse.write(\' <!-- this is default footer -->\\n      <a href="http://www.web2py.com/" style="float: left; padding-right: 6px;">\\n        <img src="\', escape=False)\nresponse.write(URL(\'static\',\'images/poweredby.png\'))\nresponse.write(\'"/>\\n      </a>\\n      \', escape=False)\nresponse.write(T(\'Copyright\'))\nresponse.write(\' &#169; 2011               \\n      <div style="clear: both;"></div><!-- Clear the divs -->\\n      \', escape=False)\nresponse.write(\'\\n\\n    </div><!-- footer -->           \\n      </div><!-- wrapper -->\\n    </div><!-- container -->        \\n    \\n    <!--[if lt IE 7 ]>\\n    <script src="\', escape=False)\nresponse.write(URL(\'static\',\'js/dd_belatedpng.js\'))\nresponse.write(\'"></script>\\n    <script> DD_belatedPNG.fix(\\\'img, .png_bg\\\'); //fix any <img> or .png_bg background-images </script>\\n    <![endif]-->\\n    \', escape=False)\nif response.google_analytics_id:\n    response.write("<script>/* http://mathiasbynens.be/notes/async-analytics-snippet */ var _gaq=[[\'_setAccount\',\'", escape=False)\n    response.write(response.google_analyitics_id)\n    response.write("\'],[\'_trackPageview\']];(function(d,t){var g=d.createElement(t),s=d.getElementsByTagName(t)[0];g.src=\'//www.google-analytics.com/ga.js\';s.parentNode.insertBefore(g,s)}(document,\'script\')) </script>", escape=False)\n    pass\nresponse.write(\'\\n  </body>\\n</html>\\n\', escape=False)'
p6
sS'snapshot'
p7
(dp8
S'exception'
p9
(dp10
S'__hash__'
p11
S"<method-wrapper '__hash__' of exceptions.TypeError object at 0x1014ed6c8>"
p12
sS'__setattr__'
p13
S"<method-wrapper '__setattr__' of exceptions.TypeError object at 0x1014ed6c8>"
p14
sS'__reduce_ex__'
p15
S'<built-in method __reduce_ex__ of exceptions.TypeError object at 0x1014ed6c8>'
p16
sS'__getslice__'
p17
S"<method-wrapper '__getslice__' of exceptions.TypeError object at 0x1014ed6c8>"
p18
sS'__getitem__'
p19
S"<method-wrapper '__getitem__' of exceptions.TypeError object at 0x1014ed6c8>"
p20
sS'__setstate__'
p21
S'<built-in method __setstate__ of exceptions.TypeError object at 0x1014ed6c8>'
p22
sS'args'
p23
S'("cannot concatenate \'str\' and \'int\' objects",)'
p24
sS'__reduce__'
p25
S'<built-in method __reduce__ of exceptions.TypeError object at 0x1014ed6c8>'
p26
sS'__str__'
p27
S"<method-wrapper '__str__' of exceptions.TypeError object at 0x1014ed6c8>"
p28
sS'__format__'
p29
S'<built-in method __format__ of exceptions.TypeError object at 0x1014ed6c8>'
p30
sS'__getattribute__'
p31
S"<method-wrapper '__getattribute__' of exceptions.TypeError object at 0x1014ed6c8>"
p32
sS'__class__'
p33
S"<type 'exceptions.TypeError'>"
p34
sS'__unicode__'
p35
S'<built-in method __unicode__ of exceptions.TypeError object at 0x1014ed6c8>'
p36
sS'__delattr__'
p37
S"<method-wrapper '__delattr__' of exceptions.TypeError object at 0x1014ed6c8>"
p38
sS'__subclasshook__'
p39
S'<built-in method __subclasshook__ of type object at 0x10011a2c0>'
p40
sS'__repr__'
p41
S"<method-wrapper '__repr__' of exceptions.TypeError object at 0x1014ed6c8>"
p42
sS'__dict__'
p43
S'{}'
p44
sS'__sizeof__'
p45
S'<built-in method __sizeof__ of exceptions.TypeError object at 0x1014ed6c8>'
p46
sS'__doc__'
p47
S"'Inappropriate argument type.'"
p48
sS'__init__'
p49
S"<method-wrapper '__init__' of exceptions.TypeError object at 0x1014ed6c8>"
p50
sS'__new__'
p51
S'<built-in method __new__ of type object at 0x10011a2c0>'
p52
ssS'evalue'
p53
S"cannot concatenate 'str' and 'int' objects"
p54
sS'request'
p55
ccopy_reg
_reconstructor
p56
(cgluon.html
BEAUTIFY
p57
c__builtin__
object
p58
NtRp59
(dp60
S'attributes'
p61
(dp62
sS'components'
p63
(lp64
g56
(cgluon.html
TABLE
p65
g58
NtRp66
(dp67
g61
(dp68
S'level'
p69
I5
ssS'parent'
p70
Nsg63
(lp71
g56
(cgluon.html
TR
p72
g58
NtRp73
(dp74
g61
(dp75
sg70
g66
sg63
(lp76
g56
(cgluon.html
TD
p77
g58
NtRp78
(dp79
g61
(dp80
S'_style'
p81
S'font-weight:bold;'
p82
ssg70
g73
sg63
(lp83
S'ajax'
p84
asbag56
(g77
g58
NtRp85
(dp86
g61
(dp87
S'_valign'
p88
S'top'
p89
ssg70
g73
sg63
(lp90
S':'
asbag56
(g77
g58
NtRp91
(dp92
g61
(dp93
sg70
g73
sg63
(lp94
g56
(g57
g58
NtRp95
(dp96
g61
(dp97
g69
I5
ssg70
g91
sg63
(lp98
S'False'
p99
asbasbasbag56
(g72
g58
NtRp100
(dp101
g61
(dp102
sg70
g66
sg63
(lp103
g56
(g77
g58
NtRp104
(dp105
g61
(dp106
g81
g82
ssg70
g100
sg63
(lp107
S'application'
p108
asbag56
(g77
g58
NtRp109
(dp110
g61
(dp111
g88
g89
ssg70
g100
sg63
(lp112
S':'
asbag56
(g77
g58
NtRp113
(dp114
g61
(dp115
sg70
g100
sg63
(lp116
g56
(g57
g58
NtRp117
(dp118
g61
(dp119
g69
I5
ssg70
g113
sg63
(lp120
S'welcome'
p121
asbasbasbag56
(g72
g58
NtRp122
(dp123
g61
(dp124
sg70
g66
sg63
(lp125
g56
(g77
g58
NtRp126
(dp127
g61
(dp128
g81
g82
ssg70
g122
sg63
(lp129
g23
asbag56
(g77
g58
NtRp130
(dp131
g61
(dp132
g88
g89
ssg70
g122
sg63
(lp133
S':'
asbag56
(g77
g58
NtRp134
(dp135
g61
(dp136
sg70
g122
sg63
(lp137
g56
(g57
g58
NtRp138
(dp139
g61
(dp140
g69
I5
ssg70
g134
sg63
(lp141
g56
(g65
g58
NtRp142
(dp143
g61
(dp144
g69
I4
ssg70
Nsg63
(lp145
sbasbasbasbag56
(g72
g58
NtRp146
(dp147
g61
(dp148
sg70
g66
sg63
(lp149
g56
(g77
g58
NtRp150
(dp151
g61
(dp152
g81
g82
ssg70
g146
sg63
(lp153
S'body'
p154
asbag56
(g77
g58
NtRp155
(dp156
g61
(dp157
g88
g89
ssg70
g146
sg63
(lp158
S':'
asbag56
(g77
g58
NtRp159
(dp160
g61
(dp161
sg70
g146
sg63
(lp162
g56
(g57
g58
NtRp163
(dp164
g61
(dp165
g69
I5
ssg70
g159
sg63
(lp166
S'<cStringIO.StringO object at 0x1013d1768>'
p167
asbasbasbag56
(g72
g58
NtRp168
(dp169
g61
(dp170
sg70
g66
sg63
(lp171
g56
(g77
g58
NtRp172
(dp173
g61
(dp174
g81
g82
ssg70
g168
sg63
(lp175
S'client'
p176
asbag56
(g77
g58
NtRp177
(dp178
g61
(dp179
g88
g89
ssg70
g168
sg63
(lp180
S':'
asbag56
(g77
g58
NtRp181
(dp182
g61
(dp183
sg70
g168
sg63
(lp184
g56
(g57
g58
NtRp185
(dp186
g61
(dp187
g69
I5
ssg70
g181
sg63
(lp188
S'127.0.0.1'
p189
asbasbasbag56
(g72
g58
NtRp190
(dp191
g61
(dp192
sg70
g66
sg63
(lp193
g56
(g77
g58
NtRp194
(dp195
g61
(dp196
g81
g82
ssg70
g190
sg63
(lp197
S'controller'
p198
asbag56
(g77
g58
NtRp199
(dp200
g61
(dp201
g88
g89
ssg70
g190
sg63
(lp202
S':'
asbag56
(g77
g58
NtRp203
(dp204
g61
(dp205
sg70
g190
sg63
(lp206
g56
(g57
g58
NtRp207
(dp208
g61
(dp209
g69
I5
ssg70
g203
sg63
(lp210
S'default'
p211
asbasbasbag56
(g72
g58
NtRp212
(dp213
g61
(dp214
sg70
g66
sg63
(lp215
g56
(g77
g58
NtRp216
(dp217
g61
(dp218
g81
g82
ssg70
g212
sg63
(lp219
S'cookies'
p220
asbag56
(g77
g58
NtRp221
(dp222
g61
(dp223
g88
g89
ssg70
g212
sg63
(lp224
S':'
asbag56
(g77
g58
NtRp225
(dp226
g61
(dp227
sg70
g212
sg63
(lp228
g56
(g57
g58
NtRp229
(dp230
g61
(dp231
g69
I5
ssg70
g225
sg63
(lp232
g56
(g65
g58
NtRp233
(dp234
g61
(dp235
g69
I4
ssg70
Nsg63
(lp236
g56
(g72
g58
NtRp237
(dp238
g61
(dp239
sg70
g233
sg63
(lp240
g56
(g77
g58
NtRp241
(dp242
g61
(dp243
g81
g82
ssg70
g237
sg63
(lp244
S'session_id_admin'
p245
asbag56
(g77
g58
NtRp246
(dp247
g61
(dp248
g88
g89
ssg70
g237
sg63
(lp249
S':'
asbag56
(g77
g58
NtRp250
(dp251
g61
(dp252
sg70
g237
sg63
(lp253
g56
(g57
g58
NtRp254
(dp255
g61
(dp256
g69
I4
ssg70
g250
sg63
(lp257
g56
(g65
g58
NtRp258
(dp259
g61
(dp260
g69
I3
ssg70
Nsg63
(lp261
g56
(g72
g58
NtRp262
(dp263
g61
(dp264
sg70
g258
sg63
(lp265
g56
(g77
g58
NtRp266
(dp267
g61
(dp268
g81
g82
ssg70
g262
sg63
(lp269
S'comment'
p270
asbag56
(g77
g58
NtRp271
(dp272
g61
(dp273
g88
g89
ssg70
g262
sg63
(lp274
S':'
asbag56
(g77
g58
NtRp275
(dp276
g61
(dp277
sg70
g262
sg63
(lp278
g56
(g57
g58
NtRp279
(dp280
g61
(dp281
g69
I3
ssg70
g275
sg63
(lp282
S''
asbasbasbag56
(g72
g58
NtRp283
(dp284
g61
(dp285
sg70
g258
sg63
(lp286
g56
(g77
g58
NtRp287
(dp288
g61
(dp289
g81
g82
ssg70
g283
sg63
(lp290
S'domain'
p291
asbag56
(g77
g58
NtRp292
(dp293
g61
(dp294
g88
g89
ssg70
g283
sg63
(lp295
S':'
asbag56
(g77
g58
NtRp296
(dp297
g61
(dp298
sg70
g283
sg63
(lp299
g56
(g57
g58
NtRp300
(dp301
g61
(dp302
g69
I3
ssg70
g296
sg63
(lp303
S''
asbasbasbag56
(g72
g58
NtRp304
(dp305
g61
(dp306
sg70
g258
sg63
(lp307
g56
(g77
g58
NtRp308
(dp309
g61
(dp310
g81
g82
ssg70
g304
sg63
(lp311
S'expires'
p312
asbag56
(g77
g58
NtRp313
(dp314
g61
(dp315
g88
g89
ssg70
g304
sg63
(lp316
S':'
asbag56
(g77
g58
NtRp317
(dp318
g61
(dp319
sg70
g304
sg63
(lp320
g56
(g57
g58
NtRp321
(dp322
g61
(dp323
g69
I3
ssg70
g317
sg63
(lp324
S''
asbasbasbag56
(g72
g58
NtRp325
(dp326
g61
(dp327
sg70
g258
sg63
(lp328
g56
(g77
g58
NtRp329
(dp330
g61
(dp331
g81
g82
ssg70
g325
sg63
(lp332
S'httponly'
p333
asbag56
(g77
g58
NtRp334
(dp335
g61
(dp336
g88
g89
ssg70
g325
sg63
(lp337
S':'
asbag56
(g77
g58
NtRp338
(dp339
g61
(dp340
sg70
g325
sg63
(lp341
g56
(g57
g58
NtRp342
(dp343
g61
(dp344
g69
I3
ssg70
g338
sg63
(lp345
S''
asbasbasbag56
(g72
g58
NtRp346
(dp347
g61
(dp348
sg70
g258
sg63
(lp349
g56
(g77
g58
NtRp350
(dp351
g61
(dp352
g81
g82
ssg70
g346
sg63
(lp353
S'max-age'
p354
asbag56
(g77
g58
NtRp355
(dp356
g61
(dp357
g88
g89
ssg70
g346
sg63
(lp358
S':'
asbag56
(g77
g58
NtRp359
(dp360
g61
(dp361
sg70
g346
sg63
(lp362
g56
(g57
g58
NtRp363
(dp364
g61
(dp365
g69
I3
ssg70
g359
sg63
(lp366
S''
asbasbasbag56
(g72
g58
NtRp367
(dp368
g61
(dp369
sg70
g258
sg63
(lp370
g56
(g77
g58
NtRp371
(dp372
g61
(dp373
g81
g82
ssg70
g367
sg63
(lp374
S'path'
p375
asbag56
(g77
g58
NtRp376
(dp377
g61
(dp378
g88
g89
ssg70
g367
sg63
(lp379
S':'
asbag56
(g77
g58
NtRp380
(dp381
g61
(dp382
sg70
g367
sg63
(lp383
g56
(g57
g58
NtRp384
(dp385
g61
(dp386
g69
I3
ssg70
g380
sg63
(lp387
S''
asbasbasbag56
(g72
g58
NtRp388
(dp389
g61
(dp390
sg70
g258
sg63
(lp391
g56
(g77
g58
NtRp392
(dp393
g61
(dp394
g81
g82
ssg70
g388
sg63
(lp395
S'secure'
p396
asbag56
(g77
g58
NtRp397
(dp398
g61
(dp399
g88
g89
ssg70
g388
sg63
(lp400
S':'
asbag56
(g77
g58
NtRp401
(dp402
g61
(dp403
sg70
g388
sg63
(lp404
g56
(g57
g58
NtRp405
(dp406
g61
(dp407
g69
I3
ssg70
g401
sg63
(lp408
S''
asbasbasbag56
(g72
g58
NtRp409
(dp410
g61
(dp411
sg70
g258
sg63
(lp412
g56
(g77
g58
NtRp413
(dp414
g61
(dp415
g81
g82
ssg70
g409
sg63
(lp416
S'version'
p417
asbag56
(g77
g58
NtRp418
(dp419
g61
(dp420
g88
g89
ssg70
g409
sg63
(lp421
S':'
asbag56
(g77
g58
NtRp422
(dp423
g61
(dp424
sg70
g409
sg63
(lp425
g56
(g57
g58
NtRp426
(dp427
g61
(dp428
g69
I3
ssg70
g422
sg63
(lp429
S''
asbasbasbasbasbasbasbag56
(g72
g58
NtRp430
(dp431
g61
(dp432
sg70
g233
sg63
(lp433
g56
(g77
g58
NtRp434
(dp435
g61
(dp436
g81
g82
ssg70
g430
sg63
(lp437
S'session_id_welcome'
p438
asbag56
(g77
g58
NtRp439
(dp440
g61
(dp441
g88
g89
ssg70
g430
sg63
(lp442
S':'
asbag56
(g77
g58
NtRp443
(dp444
g61
(dp445
sg70
g430
sg63
(lp446
g56
(g57
g58
NtRp447
(dp448
g61
(dp449
g69
I4
ssg70
g443
sg63
(lp450
g56
(g65
g58
NtRp451
(dp452
g61
(dp453
g69
I3
ssg70
Nsg63
(lp454
g56
(g72
g58
NtRp455
(dp456
g61
(dp457
sg70
g451
sg63
(lp458
g56
(g77
g58
NtRp459
(dp460
g61
(dp461
g81
g82
ssg70
g455
sg63
(lp462
g270
asbag56
(g77
g58
NtRp463
(dp464
g61
(dp465
g88
g89
ssg70
g455
sg63
(lp466
S':'
asbag56
(g77
g58
NtRp467
(dp468
g61
(dp469
sg70
g455
sg63
(lp470
g56
(g57
g58
NtRp471
(dp472
g61
(dp473
g69
I3
ssg70
g467
sg63
(lp474
S''
asbasbasbag56
(g72
g58
NtRp475
(dp476
g61
(dp477
sg70
g451
sg63
(lp478
g56
(g77
g58
NtRp479
(dp480
g61
(dp481
g81
g82
ssg70
g475
sg63
(lp482
g291
asbag56
(g77
g58
NtRp483
(dp484
g61
(dp485
g88
g89
ssg70
g475
sg63
(lp486
S':'
asbag56
(g77
g58
NtRp487
(dp488
g61
(dp489
sg70
g475
sg63
(lp490
g56
(g57
g58
NtRp491
(dp492
g61
(dp493
g69
I3
ssg70
g487
sg63
(lp494
S''
asbasbasbag56
(g72
g58
NtRp495
(dp496
g61
(dp497
sg70
g451
sg63
(lp498
g56
(g77
g58
NtRp499
(dp500
g61
(dp501
g81
g82
ssg70
g495
sg63
(lp502
g312
asbag56
(g77
g58
NtRp503
(dp504
g61
(dp505
g88
g89
ssg70
g495
sg63
(lp506
S':'
asbag56
(g77
g58
NtRp507
(dp508
g61
(dp509
sg70
g495
sg63
(lp510
g56
(g57
g58
NtRp511
(dp512
g61
(dp513
g69
I3
ssg70
g507
sg63
(lp514
S''
asbasbasbag56
(g72
g58
NtRp515
(dp516
g61
(dp517
sg70
g451
sg63
(lp518
g56
(g77
g58
NtRp519
(dp520
g61
(dp521
g81
g82
ssg70
g515
sg63
(lp522
g333
asbag56
(g77
g58
NtRp523
(dp524
g61
(dp525
g88
g89
ssg70
g515
sg63
(lp526
S':'
asbag56
(g77
g58
NtRp527
(dp528
g61
(dp529
sg70
g515
sg63
(lp530
g56
(g57
g58
NtRp531
(dp532
g61
(dp533
g69
I3
ssg70
g527
sg63
(lp534
S''
asbasbasbag56
(g72
g58
NtRp535
(dp536
g61
(dp537
sg70
g451
sg63
(lp538
g56
(g77
g58
NtRp539
(dp540
g61
(dp541
g81
g82
ssg70
g535
sg63
(lp542
g354
asbag56
(g77
g58
NtRp543
(dp544
g61
(dp545
g88
g89
ssg70
g535
sg63
(lp546
S':'
asbag56
(g77
g58
NtRp547
(dp548
g61
(dp549
sg70
g535
sg63
(lp550
g56
(g57
g58
NtRp551
(dp552
g61
(dp553
g69
I3
ssg70
g547
sg63
(lp554
S''
asbasbasbag56
(g72
g58
NtRp555
(dp556
g61
(dp557
sg70
g451
sg63
(lp558
g56
(g77
g58
NtRp559
(dp560
g61
(dp561
g81
g82
ssg70
g555
sg63
(lp562
g375
asbag56
(g77
g58
NtRp563
(dp564
g61
(dp565
g88
g89
ssg70
g555
sg63
(lp566
S':'
asbag56
(g77
g58
NtRp567
(dp568
g61
(dp569
sg70
g555
sg63
(lp570
g56
(g57
g58
NtRp571
(dp572
g61
(dp573
g69
I3
ssg70
g567
sg63
(lp574
S''
asbasbasbag56
(g72
g58
NtRp575
(dp576
g61
(dp577
sg70
g451
sg63
(lp578
g56
(g77
g58
NtRp579
(dp580
g61
(dp581
g81
g82
ssg70
g575
sg63
(lp582
g396
asbag56
(g77
g58
NtRp583
(dp584
g61
(dp585
g88
g89
ssg70
g575
sg63
(lp586
S':'
asbag56
(g77
g58
NtRp587
(dp588
g61
(dp589
sg70
g575
sg63
(lp590
g56
(g57
g58
NtRp591
(dp592
g61
(dp593
g69
I3
ssg70
g587
sg63
(lp594
S''
asbasbasbag56
(g72
g58
NtRp595
(dp596
g61
(dp597
sg70
g451
sg63
(lp598
g56
(g77
g58
NtRp599
(dp600
g61
(dp601
g81
g82
ssg70
g595
sg63
(lp602
g417
asbag56
(g77
g58
NtRp603
(dp604
g61
(dp605
g88
g89
ssg70
g595
sg63
(lp606
S':'
asbag56
(g77
g58
NtRp607
(dp608
g61
(dp609
sg70
g595
sg63
(lp610
g56
(g57
g58
NtRp611
(dp612
g61
(dp613
g69
I3
ssg70
g607
sg63
(lp614
S''
asbasbasbasbasbasbasbasbasbasbasbag56
(g72
g58
NtRp615
(dp616
g61
(dp617
sg70
g66
sg63
(lp618
g56
(g77
g58
NtRp619
(dp620
g61
(dp621
g81
g82
ssg70
g615
sg63
(lp622
S'env'
p623
asbag56
(g77
g58
NtRp624
(dp625
g61
(dp626
g88
g89
ssg70
g615
sg63
(lp627
S':'
asbag56
(g77
g58
NtRp628
(dp629
g61
(dp630
sg70
g615
sg63
(lp631
g56
(g57
g58
NtRp632
(dp633
g61
(dp634
g69
I5
ssg70
g628
sg63
(lp635
g56
(g65
g58
NtRp636
(dp637
g61
(dp638
g69
I4
ssg70
Nsg63
(lp639
g56
(g72
g58
NtRp640
(dp641
g61
(dp642
sg70
g636
sg63
(lp643
g56
(g77
g58
NtRp644
(dp645
g61
(dp646
g81
g82
ssg70
g640
sg63
(lp647
S'app_folders'
p648
asbag56
(g77
g58
NtRp649
(dp650
g61
(dp651
g88
g89
ssg70
g640
sg63
(lp652
S':'
asbag56
(g77
g58
NtRp653
(dp654
g61
(dp655
sg70
g640
sg63
(lp656
g56
(g57
g58
NtRp657
(dp658
g61
(dp659
g69
I4
ssg70
g653
sg63
(lp660
S"set(['/Users/excon/Sites/dreamscape/applications/welcome/'])"
p661
asbasbasbag56
(g72
g58
NtRp662
(dp663
g61
(dp664
sg70
g636
sg63
(lp665
g56
(g77
g58
NtRp666
(dp667
g61
(dp668
g81
g82
ssg70
g662
sg63
(lp669
S'applications_parent'
p670
asbag56
(g77
g58
NtRp671
(dp672
g61
(dp673
g88
g89
ssg70
g662
sg63
(lp674
S':'
asbag56
(g77
g58
NtRp675
(dp676
g61
(dp677
sg70
g662
sg63
(lp678
g56
(g57
g58
NtRp679
(dp680
g61
(dp681
g69
I4
ssg70
g675
sg63
(lp682
S'/Users/excon/Sites/dreamscape'
p683
asbasbasbag56
(g72
g58
NtRp684
(dp685
g61
(dp686
sg70
g636
sg63
(lp687
g56
(g77
g58
NtRp688
(dp689
g61
(dp690
g81
g82
ssg70
g684
sg63
(lp691
S'cmd_args'
p692
asbag56
(g77
g58
NtRp693
(dp694
g61
(dp695
g88
g89
ssg70
g684
sg63
(lp696
S':'
asbag56
(g77
g58
NtRp697
(dp698
g61
(dp699
sg70
g684
sg63
(lp700
g56
(g57
g58
NtRp701
(dp702
g61
(dp703
g69
I4
ssg70
g697
sg63
(lp704
g56
(g65
g58
NtRp705
(dp706
g61
(dp707
g69
I3
ssg70
Nsg63
(lp708
sbasbasbasbag56
(g72
g58
NtRp709
(dp710
g61
(dp711
sg70
g636
sg63
(lp712
g56
(g77
g58
NtRp713
(dp714
g61
(dp715
g81
g82
ssg70
g709
sg63
(lp716
S'cmd_options'
p717
asbag56
(g77
g58
NtRp718
(dp719
g61
(dp720
g88
g89
ssg70
g709
sg63
(lp721
S':'
asbag56
(g77
g58
NtRp722
(dp723
g61
(dp724
sg70
g709
sg63
(lp725
g56
(g57
g58
NtRp726
(dp727
g61
(dp728
g69
I4
ssg70
g722
sg63
(lp729
S"<Values at 0x101c68170: {'verbose': False, 'ip': '127.0.0.1', 'shutdown_timeout': 5, 'taskbar': False, 'nocron': False, 'pid_filename': 'httpserver.pid', 'maxthreads': None, 'softcron': False, 'server_name': 'dhcp-227-132.cruznetsecure.ucsc.edu', 'bpython': False, 'nogui': False, 'port': 8000, 'extcron': False, 'debuglevel': 30, 'test': None, 'folder': '/Users/excon/Sites/dreamscape', 'config': '', 'import_models': False, 'winservice': '', 'shell': None, 'run': '', 'log_filename': 'httpserver.log', 'args': [''], 'ssl_ca_certificate': None, 'scheduler': None, 'profiler_filename': None, 'ssl_private_key': '', 'password': '<ask>', 'request_queue_size': 5, 'ssl_certificate': '', 'cronjob': False, 'plain': False, 'quiet': False, 'interfaces': None, 'minthreads': None, 'timeout': 10, 'numthreads': None, 'nobanner': False}>"
p730
asbasbasbag56
(g72
g58
NtRp731
(dp732
g61
(dp733
sg70
g636
sg63
(lp734
g56
(g77
g58
NtRp735
(dp736
g61
(dp737
g81
g82
ssg70
g731
sg63
(lp738
S'db_sessions'
p739
asbag56
(g77
g58
NtRp740
(dp741
g61
(dp742
g88
g89
ssg70
g731
sg63
(lp743
S':'
asbag56
(g77
g58
NtRp744
(dp745
g61
(dp746
sg70
g731
sg63
(lp747
g56
(g57
g58
NtRp748
(dp749
g61
(dp750
g69
I4
ssg70
g744
sg63
(lp751
S'set([])'
p752
asbasbasbag56
(g72
g58
NtRp753
(dp754
g61
(dp755
sg70
g636
sg63
(lp756
g56
(g77
g58
NtRp757
(dp758
g61
(dp759
g81
g82
ssg70
g753
sg63
(lp760
S'debugging'
p761
asbag56
(g77
g58
NtRp762
(dp763
g61
(dp764
g88
g89
ssg70
g753
sg63
(lp765
S':'
asbag56
(g77
g58
NtRp766
(dp767
g61
(dp768
sg70
g753
sg63
(lp769
g56
(g57
g58
NtRp770
(dp771
g61
(dp772
g69
I4
ssg70
g766
sg63
(lp773
g99
asbasbasbag56
(g72
g58
NtRp774
(dp775
g61
(dp776
sg70
g636
sg63
(lp777
g56
(g77
g58
NtRp778
(dp779
g61
(dp780
g81
g82
ssg70
g774
sg63
(lp781
S'gluon_parent'
p782
asbag56
(g77
g58
NtRp783
(dp784
g61
(dp785
g88
g89
ssg70
g774
sg63
(lp786
S':'
asbag56
(g77
g58
NtRp787
(dp788
g61
(dp789
sg70
g774
sg63
(lp790
g56
(g57
g58
NtRp791
(dp792
g61
(dp793
g69
I4
ssg70
g787
sg63
(lp794
S'/Users/excon/Sites/dreamscape'
p795
asbasbasbag56
(g72
g58
NtRp796
(dp797
g61
(dp798
sg70
g636
sg63
(lp799
g56
(g77
g58
NtRp800
(dp801
g61
(dp802
g81
g82
ssg70
g796
sg63
(lp803
S'http_accept'
p804
asbag56
(g77
g58
NtRp805
(dp806
g61
(dp807
g88
g89
ssg70
g796
sg63
(lp808
S':'
asbag56
(g77
g58
NtRp809
(dp810
g61
(dp811
sg70
g796
sg63
(lp812
g56
(g57
g58
NtRp813
(dp814
g61
(dp815
g69
I4
ssg70
g809
sg63
(lp816
S'text/html,application/xhtml+xml,application/xml;q=0.9,*/*;q=0.8'
p817
asbasbasbag56
(g72
g58
NtRp818
(dp819
g61
(dp820
sg70
g636
sg63
(lp821
g56
(g77
g58
NtRp822
(dp823
g61
(dp824
g81
g82
ssg70
g818
sg63
(lp825
S'http_accept_charset'
p826
asbag56
(g77
g58
NtRp827
(dp828
g61
(dp829
g88
g89
ssg70
g818
sg63
(lp830
S':'
asbag56
(g77
g58
NtRp831
(dp832
g61
(dp833
sg70
g818
sg63
(lp834
g56
(g57
g58
NtRp835
(dp836
g61
(dp837
g69
I4
ssg70
g831
sg63
(lp838
S'ISO-8859-1,utf-8;q=0.7,*;q=0.7'
p839
asbasbasbag56
(g72
g58
NtRp840
(dp841
g61
(dp842
sg70
g636
sg63
(lp843
g56
(g77
g58
NtRp844
(dp845
g61
(dp846
g81
g82
ssg70
g840
sg63
(lp847
S'http_accept_encoding'
p848
asbag56
(g77
g58
NtRp849
(dp850
g61
(dp851
g88
g89
ssg70
g840
sg63
(lp852
S':'
asbag56
(g77
g58
NtRp853
(dp854
g61
(dp855
sg70
g840
sg63
(lp856
g56
(g57
g58
NtRp857
(dp858
g61
(dp859
g69
I4
ssg70
g853
sg63
(lp860
S'gzip, deflate'
p861
asbasbasbag56
(g72
g58
NtRp862
(dp863
g61
(dp864
sg70
g636
sg63
(lp865
g56
(g77
g58
NtRp866
(dp867
g61
(dp868
g81
g82
ssg70
g862
sg63
(lp869
S'http_accept_language'
p870
asbag56
(g77
g58
NtRp871
(dp872
g61
(dp873
g88
g89
ssg70
g862
sg63
(lp874
S':'
asbag56
(g77
g58
NtRp875
(dp876
g61
(dp877
sg70
g862
sg63
(lp878
g56
(g57
g58
NtRp879
(dp880
g61
(dp881
g69
I4
ssg70
g875
sg63
(lp882
S'en-us,en;q=0.5'
p883
asbasbasbag56
(g72
g58
NtRp884
(dp885
g61
(dp886
sg70
g636
sg63
(lp887
g56
(g77
g58
NtRp888
(dp889
g61
(dp890
g81
g82
ssg70
g884
sg63
(lp891
S'http_cache_control'
p892
asbag56
(g77
g58
NtRp893
(dp894
g61
(dp895
g88
g89
ssg70
g884
sg63
(lp896
S':'
asbag56
(g77
g58
NtRp897
(dp898
g61
(dp899
sg70
g884
sg63
(lp900
g56
(g57
g58
NtRp901
(dp902
g61
(dp903
g69
I4
ssg70
g897
sg63
(lp904
S'max-age=0'
p905
asbasbasbag56
(g72
g58
NtRp906
(dp907
g61
(dp908
sg70
g636
sg63
(lp909
g56
(g77
g58
NtRp910
(dp911
g61
(dp912
g81
g82
ssg70
g906
sg63
(lp913
S'http_connection'
p914
asbag56
(g77
g58
NtRp915
(dp916
g61
(dp917
g88
g89
ssg70
g906
sg63
(lp918
S':'
asbag56
(g77
g58
NtRp919
(dp920
g61
(dp921
sg70
g906
sg63
(lp922
g56
(g57
g58
NtRp923
(dp924
g61
(dp925
g69
I4
ssg70
g919
sg63
(lp926
S'keep-alive'
p927
asbasbasbag56
(g72
g58
NtRp928
(dp929
g61
(dp930
sg70
g636
sg63
(lp931
g56
(g77
g58
NtRp932
(dp933
g61
(dp934
g81
g82
ssg70
g928
sg63
(lp935
S'http_cookie'
p936
asbag56
(g77
g58
NtRp937
(dp938
g61
(dp939
g88
g89
ssg70
g928
sg63
(lp940
S':'
asbag56
(g77
g58
NtRp941
(dp942
g61
(dp943
sg70
g928
sg63
(lp944
g56
(g57
g58
NtRp945
(dp946
g61
(dp947
g69
I4
ssg70
g941
sg63
(lp948
S'session_id_welcome=127.0.0.1-b3033565-2f84-4c89-86aa-d3213cda62fe; session_id_admin=127.0.0.1-ba84e873-67f8-472a-b9a9-01951b479c88'
p949
asbasbasbag56
(g72
g58
NtRp950
(dp951
g61
(dp952
sg70
g636
sg63
(lp953
g56
(g77
g58
NtRp954
(dp955
g61
(dp956
g81
g82
ssg70
g950
sg63
(lp957
S'http_host'
p958
asbag56
(g77
g58
NtRp959
(dp960
g61
(dp961
g88
g89
ssg70
g950
sg63
(lp962
S':'
asbag56
(g77
g58
NtRp963
(dp964
g61
(dp965
sg70
g950
sg63
(lp966
g56
(g57
g58
NtRp967
(dp968
g61
(dp969
g69
I4
ssg70
g963
sg63
(lp970
S'127.0.0.1:8000'
p971
asbasbasbag56
(g72
g58
NtRp972
(dp973
g61
(dp974
sg70
g636
sg63
(lp975
g56
(g77
g58
NtRp976
(dp977
g61
(dp978
g81
g82
ssg70
g972
sg63
(lp979
S'http_user_agent'
p980
asbag56
(g77
g58
NtRp981
(dp982
g61
(dp983
g88
g89
ssg70
g972
sg63
(lp984
S':'
asbag56
(g77
g58
NtRp985
(dp986
g61
(dp987
sg70
g972
sg63
(lp988
g56
(g57
g58
NtRp989
(dp990
g61
(dp991
g69
I4
ssg70
g985
sg63
(lp992
S'Mozilla/5.0 (Macintosh; Intel Mac OS X 10.6; rv:6.0.2) Gecko/20100101 Firefox/6.0.2'
p993
asbasbasbag56
(g72
g58
NtRp994
(dp995
g61
(dp996
sg70
g636
sg63
(lp997
g56
(g77
g58
NtRp998
(dp999
g61
(dp1000
g81
g82
ssg70
g994
sg63
(lp1001
S'is_jython'
p1002
asbag56
(g77
g58
NtRp1003
(dp1004
g61
(dp1005
g88
g89
ssg70
g994
sg63
(lp1006
S':'
asbag56
(g77
g58
NtRp1007
(dp1008
g61
(dp1009
sg70
g994
sg63
(lp1010
g56
(g57
g58
NtRp1011
(dp1012
g61
(dp1013
g69
I4
ssg70
g1007
sg63
(lp1014
g99
asbasbasbag56
(g72
g58
NtRp1015
(dp1016
g61
(dp1017
sg70
g636
sg63
(lp1018
g56
(g77
g58
NtRp1019
(dp1020
g61
(dp1021
g81
g82
ssg70
g1015
sg63
(lp1022
S'path_info'
p1023
asbag56
(g77
g58
NtRp1024
(dp1025
g61
(dp1026
g88
g89
ssg70
g1015
sg63
(lp1027
S':'
asbag56
(g77
g58
NtRp1028
(dp1029
g61
(dp1030
sg70
g1015
sg63
(lp1031
g56
(g57
g58
NtRp1032
(dp1033
g61
(dp1034
g69
I4
ssg70
g1028
sg63
(lp1035
S'/welcome/default/index'
p1036
asbasbasbag56
(g72
g58
NtRp1037
(dp1038
g61
(dp1039
sg70
g636
sg63
(lp1040
g56
(g77
g58
NtRp1041
(dp1042
g61
(dp1043
g81
g82
ssg70
g1037
sg63
(lp1044
S'query_string'
p1045
asbag56
(g77
g58
NtRp1046
(dp1047
g61
(dp1048
g88
g89
ssg70
g1037
sg63
(lp1049
S':'
asbag56
(g77
g58
NtRp1050
(dp1051
g61
(dp1052
sg70
g1037
sg63
(lp1053
g56
(g57
g58
NtRp1054
(dp1055
g61
(dp1056
g69
I4
ssg70
g1050
sg63
(lp1057
S''
asbasbasbag56
(g72
g58
NtRp1058
(dp1059
g61
(dp1060
sg70
g636
sg63
(lp1061
g56
(g77
g58
NtRp1062
(dp1063
g61
(dp1064
g81
g82
ssg70
g1058
sg63
(lp1065
S'remote_addr'
p1066
asbag56
(g77
g58
NtRp1067
(dp1068
g61
(dp1069
g88
g89
ssg70
g1058
sg63
(lp1070
S':'
asbag56
(g77
g58
NtRp1071
(dp1072
g61
(dp1073
sg70
g1058
sg63
(lp1074
g56
(g57
g58
NtRp1075
(dp1076
g61
(dp1077
g69
I4
ssg70
g1071
sg63
(lp1078
g189
asbasbasbag56
(g72
g58
NtRp1079
(dp1080
g61
(dp1081
sg70
g636
sg63
(lp1082
g56
(g77
g58
NtRp1083
(dp1084
g61
(dp1085
g81
g82
ssg70
g1079
sg63
(lp1086
S'remote_port'
p1087
asbag56
(g77
g58
NtRp1088
(dp1089
g61
(dp1090
g88
g89
ssg70
g1079
sg63
(lp1091
S':'
asbag56
(g77
g58
NtRp1092
(dp1093
g61
(dp1094
sg70
g1079
sg63
(lp1095
g56
(g57
g58
NtRp1096
(dp1097
g61
(dp1098
g69
I4
ssg70
g1092
sg63
(lp1099
S'51187'
p1100
asbasbasbag56
(g72
g58
NtRp1101
(dp1102
g61
(dp1103
sg70
g636
sg63
(lp1104
g56
(g77
g58
NtRp1105
(dp1106
g61
(dp1107
g81
g82
ssg70
g1101
sg63
(lp1108
S'request_method'
p1109
asbag56
(g77
g58
NtRp1110
(dp1111
g61
(dp1112
g88
g89
ssg70
g1101
sg63
(lp1113
S':'
asbag56
(g77
g58
NtRp1114
(dp1115
g61
(dp1116
sg70
g1101
sg63
(lp1117
g56
(g57
g58
NtRp1118
(dp1119
g61
(dp1120
g69
I4
ssg70
g1114
sg63
(lp1121
S'GET'
p1122
asbasbasbag56
(g72
g58
NtRp1123
(dp1124
g61
(dp1125
sg70
g636
sg63
(lp1126
g56
(g77
g58
NtRp1127
(dp1128
g61
(dp1129
g81
g82
ssg70
g1123
sg63
(lp1130
S'request_uri'
p1131
asbag56
(g77
g58
NtRp1132
(dp1133
g61
(dp1134
g88
g89
ssg70
g1123
sg63
(lp1135
S':'
asbag56
(g77
g58
NtRp1136
(dp1137
g61
(dp1138
sg70
g1123
sg63
(lp1139
g56
(g57
g58
NtRp1140
(dp1141
g61
(dp1142
g69
I4
ssg70
g1136
sg63
(lp1143
S'/welcome/default/index'
p1144
asbasbasbag56
(g72
g58
NtRp1145
(dp1146
g61
(dp1147
sg70
g636
sg63
(lp1148
g56
(g77
g58
NtRp1149
(dp1150
g61
(dp1151
g81
g82
ssg70
g1145
sg63
(lp1152
S'script_name'
p1153
asbag56
(g77
g58
NtRp1154
(dp1155
g61
(dp1156
g88
g89
ssg70
g1145
sg63
(lp1157
S':'
asbag56
(g77
g58
NtRp1158
(dp1159
g61
(dp1160
sg70
g1145
sg63
(lp1161
g56
(g57
g58
NtRp1162
(dp1163
g61
(dp1164
g69
I4
ssg70
g1158
sg63
(lp1165
S''
asbasbasbag56
(g72
g58
NtRp1166
(dp1167
g61
(dp1168
sg70
g636
sg63
(lp1169
g56
(g77
g58
NtRp1170
(dp1171
g61
(dp1172
g81
g82
ssg70
g1166
sg63
(lp1173
S'server_name'
p1174
asbag56
(g77
g58
NtRp1175
(dp1176
g61
(dp1177
g88
g89
ssg70
g1166
sg63
(lp1178
S':'
asbag56
(g77
g58
NtRp1179
(dp1180
g61
(dp1181
sg70
g1166
sg63
(lp1182
g56
(g57
g58
NtRp1183
(dp1184
g61
(dp1185
g69
I4
ssg70
g1179
sg63
(lp1186
S'dhcp-227-132.cruznetsecure.ucsc.edu'
p1187
asbasbasbag56
(g72
g58
NtRp1188
(dp1189
g61
(dp1190
sg70
g636
sg63
(lp1191
g56
(g77
g58
NtRp1192
(dp1193
g61
(dp1194
g81
g82
ssg70
g1188
sg63
(lp1195
S'server_port'
p1196
asbag56
(g77
g58
NtRp1197
(dp1198
g61
(dp1199
g88
g89
ssg70
g1188
sg63
(lp1200
S':'
asbag56
(g77
g58
NtRp1201
(dp1202
g61
(dp1203
sg70
g1188
sg63
(lp1204
g56
(g57
g58
NtRp1205
(dp1206
g61
(dp1207
g69
I4
ssg70
g1201
sg63
(lp1208
S'8000'
p1209
asbasbasbag56
(g72
g58
NtRp1210
(dp1211
g61
(dp1212
sg70
g636
sg63
(lp1213
g56
(g77
g58
NtRp1214
(dp1215
g61
(dp1216
g81
g82
ssg70
g1210
sg63
(lp1217
S'server_protocol'
p1218
asbag56
(g77
g58
NtRp1219
(dp1220
g61
(dp1221
g88
g89
ssg70
g1210
sg63
(lp1222
S':'
asbag56
(g77
g58
NtRp1223
(dp1224
g61
(dp1225
sg70
g1210
sg63
(lp1226
g56
(g57
g58
NtRp1227
(dp1228
g61
(dp1229
g69
I4
ssg70
g1223
sg63
(lp1230
S'HTTP/1.1'
p1231
asbasbasbag56
(g72
g58
NtRp1232
(dp1233
g61
(dp1234
sg70
g636
sg63
(lp1235
g56
(g77
g58
NtRp1236
(dp1237
g61
(dp1238
g81
g82
ssg70
g1232
sg63
(lp1239
S'server_software'
p1240
asbag56
(g77
g58
NtRp1241
(dp1242
g61
(dp1243
g88
g89
ssg70
g1232
sg63
(lp1244
S':'
asbag56
(g77
g58
NtRp1245
(dp1246
g61
(dp1247
sg70
g1232
sg63
(lp1248
g56
(g57
g58
NtRp1249
(dp1250
g61
(dp1251
g69
I4
ssg70
g1245
sg63
(lp1252
S'Rocket 1.2.4'
p1253
asbasbasbag56
(g72
g58
NtRp1254
(dp1255
g61
(dp1256
sg70
g636
sg63
(lp1257
g56
(g77
g58
NtRp1258
(dp1259
g61
(dp1260
g81
g82
ssg70
g1254
sg63
(lp1261
S'web2py_crontype'
p1262
asbag56
(g77
g58
NtRp1263
(dp1264
g61
(dp1265
g88
g89
ssg70
g1254
sg63
(lp1266
S':'
asbag56
(g77
g58
NtRp1267
(dp1268
g61
(dp1269
sg70
g1254
sg63
(lp1270
g56
(g57
g58
NtRp1271
(dp1272
g61
(dp1273
g69
I4
ssg70
g1267
sg63
(lp1274
S'hard'
p1275
asbasbasbag56
(g72
g58
NtRp1276
(dp1277
g61
(dp1278
sg70
g636
sg63
(lp1279
g56
(g77
g58
NtRp1280
(dp1281
g61
(dp1282
g81
g82
ssg70
g1276
sg63
(lp1283
S'web2py_original_uri'
p1284
asbag56
(g77
g58
NtRp1285
(dp1286
g61
(dp1287
g88
g89
ssg70
g1276
sg63
(lp1288
S':'
asbag56
(g77
g58
NtRp1289
(dp1290
g61
(dp1291
sg70
g1276
sg63
(lp1292
g56
(g57
g58
NtRp1293
(dp1294
g61
(dp1295
g69
I4
ssg70
g1289
sg63
(lp1296
g1036
asbasbasbag56
(g72
g58
NtRp1297
(dp1298
g61
(dp1299
sg70
g636
sg63
(lp1300
g56
(g77
g58
NtRp1301
(dp1302
g61
(dp1303
g81
g82
ssg70
g1297
sg63
(lp1304
S'web2py_path'
p1305
asbag56
(g77
g58
NtRp1306
(dp1307
g61
(dp1308
g88
g89
ssg70
g1297
sg63
(lp1309
S':'
asbag56
(g77
g58
NtRp1310
(dp1311
g61
(dp1312
sg70
g1297
sg63
(lp1313
g56
(g57
g58
NtRp1314
(dp1315
g61
(dp1316
g69
I4
ssg70
g1310
sg63
(lp1317
g683
asbasbasbag56
(g72
g58
NtRp1318
(dp1319
g61
(dp1320
sg70
g636
sg63
(lp1321
g56
(g77
g58
NtRp1322
(dp1323
g61
(dp1324
g81
g82
ssg70
g1318
sg63
(lp1325
S'web2py_version'
p1326
asbag56
(g77
g58
NtRp1327
(dp1328
g61
(dp1329
g88
g89
ssg70
g1318
sg63
(lp1330
S':'
asbag56
(g77
g58
NtRp1331
(dp1332
g61
(dp1333
sg70
g1318
sg63
(lp1334
g56
(g57
g58
NtRp1335
(dp1336
g61
(dp1337
g69
I4
ssg70
g1331
sg63
(lp1338
g56
(g65
g58
NtRp1339
(dp1340
g61
(dp1341
g69
I3
ssg70
Nsg63
(lp1342
g56
(g72
g58
NtRp1343
(dp1344
g61
(dp1345
sg70
g1339
sg63
(lp1346
g56
(g77
g58
NtRp1347
(dp1348
g61
(dp1349
sg70
g1343
sg63
(lp1350
g56
(g57
g58
NtRp1351
(dp1352
g61
(dp1353
g69
I3
ssg70
g1347
sg63
(lp1354
S'1'
asbasbasbag56
(g72
g58
NtRp1355
(dp1356
g61
(dp1357
sg70
g1339
sg63
(lp1358
g56
(g77
g58
NtRp1359
(dp1360
g61
(dp1361
sg70
g1355
sg63
(lp1362
g56
(g57
g58
NtRp1363
(dp1364
g61
(dp1365
g69
I3
ssg70
g1359
sg63
(lp1366
S'99'
p1367
asbasbasbag56
(g72
g58
NtRp1368
(dp1369
g61
(dp1370
sg70
g1339
sg63
(lp1371
g56
(g77
g58
NtRp1372
(dp1373
g61
(dp1374
sg70
g1368
sg63
(lp1375
g56
(g57
g58
NtRp1376
(dp1377
g61
(dp1378
g69
I3
ssg70
g1372
sg63
(lp1379
S'2'
asbasbasbag56
(g72
g58
NtRp1380
(dp1381
g61
(dp1382
sg70
g1339
sg63
(lp1383
g56
(g77
g58
NtRp1384
(dp1385
g61
(dp1386
sg70
g1380
sg63
(lp1387
g56
(g57
g58
NtRp1388
(dp1389
g61
(dp1390
g69
I3
ssg70
g1384
sg63
(lp1391
S'datetime.datetime(2011, 9, 26, 6, 55, 33)'
p1392
asbasbasbag56
(g72
g58
NtRp1393
(dp1394
g61
(dp1395
sg70
g1339
sg63
(lp1396
g56
(g77
g58
NtRp1397
(dp1398
g61
(dp1399
sg70
g1393
sg63
(lp1400
g56
(g57
g58
NtRp1401
(dp1402
g61
(dp1403
g69
I3
ssg70
g1397
sg63
(lp1404
S'stable'
p1405
asbasbasbasbasbasbasbag56
(g72
g58
NtRp1406
(dp1407
g61
(dp1408
sg70
g636
sg63
(lp1409
g56
(g77
g58
NtRp1410
(dp1411
g61
(dp1412
g81
g82
ssg70
g1406
sg63
(lp1413
S'wsgi_errors'
p1414
asbag56
(g77
g58
NtRp1415
(dp1416
g61
(dp1417
g88
g89
ssg70
g1406
sg63
(lp1418
S':'
asbag56
(g77
g58
NtRp1419
(dp1420
g61
(dp1421
sg70
g1406
sg63
(lp1422
g56
(g57
g58
NtRp1423
(dp1424
g61
(dp1425
g69
I4
ssg70
g1419
sg63
(lp1426
S"<open file '<stderr>', mode 'w' at 0x100416140>"
p1427
asbasbasbag56
(g72
g58
NtRp1428
(dp1429
g61
(dp1430
sg70
g636
sg63
(lp1431
g56
(g77
g58
NtRp1432
(dp1433
g61
(dp1434
g81
g82
ssg70
g1428
sg63
(lp1435
S'wsgi_file_wrapper'
p1436
asbag56
(g77
g58
NtRp1437
(dp1438
g61
(dp1439
g88
g89
ssg70
g1428
sg63
(lp1440
S':'
asbag56
(g77
g58
NtRp1441
(dp1442
g61
(dp1443
sg70
g1428
sg63
(lp1444
g56
(g57
g58
NtRp1445
(dp1446
g61
(dp1447
g69
I4
ssg70
g1441
sg63
(lp1448
S'<class wsgiref.util.FileWrapper at 0x1014a2bf0>'
p1449
asbasbasbag56
(g72
g58
NtRp1450
(dp1451
g61
(dp1452
sg70
g636
sg63
(lp1453
g56
(g77
g58
NtRp1454
(dp1455
g61
(dp1456
g81
g82
ssg70
g1450
sg63
(lp1457
S'wsgi_input'
p1458
asbag56
(g77
g58
NtRp1459
(dp1460
g61
(dp1461
g88
g89
ssg70
g1450
sg63
(lp1462
S':'
asbag56
(g77
g58
NtRp1463
(dp1464
g61
(dp1465
sg70
g1450
sg63
(lp1466
g56
(g57
g58
NtRp1467
(dp1468
g61
(dp1469
g69
I4
ssg70
g1463
sg63
(lp1470
S'<socket._fileobject object at 0x112e38de8>'
p1471
asbasbasbag56
(g72
g58
NtRp1472
(dp1473
g61
(dp1474
sg70
g636
sg63
(lp1475
g56
(g77
g58
NtRp1476
(dp1477
g61
(dp1478
g81
g82
ssg70
g1472
sg63
(lp1479
S'wsgi_multiprocess'
p1480
asbag56
(g77
g58
NtRp1481
(dp1482
g61
(dp1483
g88
g89
ssg70
g1472
sg63
(lp1484
S':'
asbag56
(g77
g58
NtRp1485
(dp1486
g61
(dp1487
sg70
g1472
sg63
(lp1488
g56
(g57
g58
NtRp1489
(dp1490
g61
(dp1491
g69
I4
ssg70
g1485
sg63
(lp1492
g99
asbasbasbag56
(g72
g58
NtRp1493
(dp1494
g61
(dp1495
sg70
g636
sg63
(lp1496
g56
(g77
g58
NtRp1497
(dp1498
g61
(dp1499
g81
g82
ssg70
g1493
sg63
(lp1500
S'wsgi_multithread'
p1501
asbag56
(g77
g58
NtRp1502
(dp1503
g61
(dp1504
g88
g89
ssg70
g1493
sg63
(lp1505
S':'
asbag56
(g77
g58
NtRp1506
(dp1507
g61
(dp1508
sg70
g1493
sg63
(lp1509
g56
(g57
g58
NtRp1510
(dp1511
g61
(dp1512
g69
I4
ssg70
g1506
sg63
(lp1513
S'True'
p1514
asbasbasbag56
(g72
g58
NtRp1515
(dp1516
g61
(dp1517
sg70
g636
sg63
(lp1518
g56
(g77
g58
NtRp1519
(dp1520
g61
(dp1521
g81
g82
ssg70
g1515
sg63
(lp1522
S'wsgi_run_once'
p1523
asbag56
(g77
g58
NtRp1524
(dp1525
g61
(dp1526
g88
g89
ssg70
g1515
sg63
(lp1527
S':'
asbag56
(g77
g58
NtRp1528
(dp1529
g61
(dp1530
sg70
g1515
sg63
(lp1531
g56
(g57
g58
NtRp1532
(dp1533
g61
(dp1534
g69
I4
ssg70
g1528
sg63
(lp1535
g99
asbasbasbag56
(g72
g58
NtRp1536
(dp1537
g61
(dp1538
sg70
g636
sg63
(lp1539
g56
(g77
g58
NtRp1540
(dp1541
g61
(dp1542
g81
g82
ssg70
g1536
sg63
(lp1543
S'wsgi_url_scheme'
p1544
asbag56
(g77
g58
NtRp1545
(dp1546
g61
(dp1547
g88
g89
ssg70
g1536
sg63
(lp1548
S':'
asbag56
(g77
g58
NtRp1549
(dp1550
g61
(dp1551
sg70
g1536
sg63
(lp1552
g56
(g57
g58
NtRp1553
(dp1554
g61
(dp1555
g69
I4
ssg70
g1549
sg63
(lp1556
S'http'
p1557
asbasbasbag56
(g72
g58
NtRp1558
(dp1559
g61
(dp1560
sg70
g636
sg63
(lp1561
g56
(g77
g58
NtRp1562
(dp1563
g61
(dp1564
g81
g82
ssg70
g1558
sg63
(lp1565
S'wsgi_version'
p1566
asbag56
(g77
g58
NtRp1567
(dp1568
g61
(dp1569
g88
g89
ssg70
g1558
sg63
(lp1570
S':'
asbag56
(g77
g58
NtRp1571
(dp1572
g61
(dp1573
sg70
g1558
sg63
(lp1574
g56
(g57
g58
NtRp1575
(dp1576
g61
(dp1577
g69
I4
ssg70
g1571
sg63
(lp1578
g56
(g65
g58
NtRp1579
(dp1580
g61
(dp1581
g69
I3
ssg70
Nsg63
(lp1582
g56
(g72
g58
NtRp1583
(dp1584
g61
(dp1585
sg70
g1579
sg63
(lp1586
g56
(g77
g58
NtRp1587
(dp1588
g61
(dp1589
sg70
g1583
sg63
(lp1590
g56
(g57
g58
NtRp1591
(dp1592
g61
(dp1593
g69
I3
ssg70
g1587
sg63
(lp1594
S'1'
asbasbasbag56
(g72
g58
NtRp1595
(dp1596
g61
(dp1597
sg70
g1579
sg63
(lp1598
g56
(g77
g58
NtRp1599
(dp1600
g61
(dp1601
sg70
g1595
sg63
(lp1602
g56
(g57
g58
NtRp1603
(dp1604
g61
(dp1605
g69
I3
ssg70
g1599
sg63
(lp1606
S'0'
asbasbasbasbasbasbasbasbasbasbasbag56
(g72
g58
NtRp1607
(dp1608
g61
(dp1609
sg70
g66
sg63
(lp1610
g56
(g77
g58
NtRp1611
(dp1612
g61
(dp1613
g81
g82
ssg70
g1607
sg63
(lp1614
S'extension'
p1615
asbag56
(g77
g58
NtRp1616
(dp1617
g61
(dp1618
g88
g89
ssg70
g1607
sg63
(lp1619
S':'
asbag56
(g77
g58
NtRp1620
(dp1621
g61
(dp1622
sg70
g1607
sg63
(lp1623
g56
(g57
g58
NtRp1624
(dp1625
g61
(dp1626
g69
I5
ssg70
g1620
sg63
(lp1627
S'html'
p1628
asbasbasbag56
(g72
g58
NtRp1629
(dp1630
g61
(dp1631
sg70
g66
sg63
(lp1632
g56
(g77
g58
NtRp1633
(dp1634
g61
(dp1635
g81
g82
ssg70
g1629
sg63
(lp1636
S'folder'
p1637
asbag56
(g77
g58
NtRp1638
(dp1639
g61
(dp1640
g88
g89
ssg70
g1629
sg63
(lp1641
S':'
asbag56
(g77
g58
NtRp1642
(dp1643
g61
(dp1644
sg70
g1629
sg63
(lp1645
g56
(g57
g58
NtRp1646
(dp1647
g61
(dp1648
g69
I5
ssg70
g1642
sg63
(lp1649
S'/Users/excon/Sites/dreamscape/applications/welcome/'
p1650
asbasbasbag56
(g72
g58
NtRp1651
(dp1652
g61
(dp1653
sg70
g66
sg63
(lp1654
g56
(g77
g58
NtRp1655
(dp1656
g61
(dp1657
g81
g82
ssg70
g1651
sg63
(lp1658
S'function'
p1659
asbag56
(g77
g58
NtRp1660
(dp1661
g61
(dp1662
g88
g89
ssg70
g1651
sg63
(lp1663
S':'
asbag56
(g77
g58
NtRp1664
(dp1665
g61
(dp1666
sg70
g1651
sg63
(lp1667
g56
(g57
g58
NtRp1668
(dp1669
g61
(dp1670
g69
I5
ssg70
g1664
sg63
(lp1671
S'index'
p1672
asbasbasbag56
(g72
g58
NtRp1673
(dp1674
g61
(dp1675
sg70
g66
sg63
(lp1676
g56
(g77
g58
NtRp1677
(dp1678
g61
(dp1679
g81
g82
ssg70
g1673
sg63
(lp1680
S'get_vars'
p1681
asbag56
(g77
g58
NtRp1682
(dp1683
g61
(dp1684
g88
g89
ssg70
g1673
sg63
(lp1685
S':'
asbag56
(g77
g58
NtRp1686
(dp1687
g61
(dp1688
sg70
g1673
sg63
(lp1689
g56
(g57
g58
NtRp1690
(dp1691
g61
(dp1692
g69
I5
ssg70
g1686
sg63
(lp1693
g56
(g65
g58
NtRp1694
(dp1695
g61
(dp1696
g69
I4
ssg70
Nsg63
(lp1697
sbasbasbasbag56
(g72
g58
NtRp1698
(dp1699
g61
(dp1700
sg70
g66
sg63
(lp1701
g56
(g77
g58
NtRp1702
(dp1703
g61
(dp1704
g81
g82
ssg70
g1698
sg63
(lp1705
S'global_settings'
p1706
asbag56
(g77
g58
NtRp1707
(dp1708
g61
(dp1709
g88
g89
ssg70
g1698
sg63
(lp1710
S':'
asbag56
(g77
g58
NtRp1711
(dp1712
g61
(dp1713
sg70
g1698
sg63
(lp1714
g56
(g57
g58
NtRp1715
(dp1716
g61
(dp1717
g69
I5
ssg70
g1711
sg63
(lp1718
g56
(g65
g58
NtRp1719
(dp1720
g61
(dp1721
g69
I4
ssg70
Nsg63
(lp1722
g56
(g72
g58
NtRp1723
(dp1724
g61
(dp1725
sg70
g1719
sg63
(lp1726
g56
(g77
g58
NtRp1727
(dp1728
g61
(dp1729
g81
g82
ssg70
g1723
sg63
(lp1730
g648
asbag56
(g77
g58
NtRp1731
(dp1732
g61
(dp1733
g88
g89
ssg70
g1723
sg63
(lp1734
S':'
asbag56
(g77
g58
NtRp1735
(dp1736
g61
(dp1737
sg70
g1723
sg63
(lp1738
g56
(g57
g58
NtRp1739
(dp1740
g61
(dp1741
g69
I4
ssg70
g1735
sg63
(lp1742
S"set(['/Users/excon/Sites/dreamscape/applications/welcome/'])"
p1743
asbasbasbag56
(g72
g58
NtRp1744
(dp1745
g61
(dp1746
sg70
g1719
sg63
(lp1747
g56
(g77
g58
NtRp1748
(dp1749
g61
(dp1750
g81
g82
ssg70
g1744
sg63
(lp1751
g670
asbag56
(g77
g58
NtRp1752
(dp1753
g61
(dp1754
g88
g89
ssg70
g1744
sg63
(lp1755
S':'
asbag56
(g77
g58
NtRp1756
(dp1757
g61
(dp1758
sg70
g1744
sg63
(lp1759
g56
(g57
g58
NtRp1760
(dp1761
g61
(dp1762
g69
I4
ssg70
g1756
sg63
(lp1763
g683
asbasbasbag56
(g72
g58
NtRp1764
(dp1765
g61
(dp1766
sg70
g1719
sg63
(lp1767
g56
(g77
g58
NtRp1768
(dp1769
g61
(dp1770
g81
g82
ssg70
g1764
sg63
(lp1771
g692
asbag56
(g77
g58
NtRp1772
(dp1773
g61
(dp1774
g88
g89
ssg70
g1764
sg63
(lp1775
S':'
asbag56
(g77
g58
NtRp1776
(dp1777
g61
(dp1778
sg70
g1764
sg63
(lp1779
g56
(g57
g58
NtRp1780
(dp1781
g61
(dp1782
g69
I4
ssg70
g1776
sg63
(lp1783
g56
(g65
g58
NtRp1784
(dp1785
g61
(dp1786
g69
I3
ssg70
Nsg63
(lp1787
sbasbasbasbag56
(g72
g58
NtRp1788
(dp1789
g61
(dp1790
sg70
g1719
sg63
(lp1791
g56
(g77
g58
NtRp1792
(dp1793
g61
(dp1794
g81
g82
ssg70
g1788
sg63
(lp1795
g717
asbag56
(g77
g58
NtRp1796
(dp1797
g61
(dp1798
g88
g89
ssg70
g1788
sg63
(lp1799
S':'
asbag56
(g77
g58
NtRp1800
(dp1801
g61
(dp1802
sg70
g1788
sg63
(lp1803
g56
(g57
g58
NtRp1804
(dp1805
g61
(dp1806
g69
I4
ssg70
g1800
sg63
(lp1807
S"<Values at 0x101c68170: {'verbose': False, 'ip': '127.0.0.1', 'shutdown_timeout': 5, 'taskbar': False, 'nocron': False, 'pid_filename': 'httpserver.pid', 'maxthreads': None, 'softcron': False, 'server_name': 'dhcp-227-132.cruznetsecure.ucsc.edu', 'bpython': False, 'nogui': False, 'port': 8000, 'extcron': False, 'debuglevel': 30, 'test': None, 'folder': '/Users/excon/Sites/dreamscape', 'config': '', 'import_models': False, 'winservice': '', 'shell': None, 'run': '', 'log_filename': 'httpserver.log', 'args': [''], 'ssl_ca_certificate': None, 'scheduler': None, 'profiler_filename': None, 'ssl_private_key': '', 'password': '<ask>', 'request_queue_size': 5, 'ssl_certificate': '', 'cronjob': False, 'plain': False, 'quiet': False, 'interfaces': None, 'minthreads': None, 'timeout': 10, 'numthreads': None, 'nobanner': False}>"
p1808
asbasbasbag56
(g72
g58
NtRp1809
(dp1810
g61
(dp1811
sg70
g1719
sg63
(lp1812
g56
(g77
g58
NtRp1813
(dp1814
g61
(dp1815
g81
g82
ssg70
g1809
sg63
(lp1816
g739
asbag56
(g77
g58
NtRp1817
(dp1818
g61
(dp1819
g88
g89
ssg70
g1809
sg63
(lp1820
S':'
asbag56
(g77
g58
NtRp1821
(dp1822
g61
(dp1823
sg70
g1809
sg63
(lp1824
g56
(g57
g58
NtRp1825
(dp1826
g61
(dp1827
g69
I4
ssg70
g1821
sg63
(lp1828
S'set([])'
p1829
asbasbasbag56
(g72
g58
NtRp1830
(dp1831
g61
(dp1832
sg70
g1719
sg63
(lp1833
g56
(g77
g58
NtRp1834
(dp1835
g61
(dp1836
g81
g82
ssg70
g1830
sg63
(lp1837
g761
asbag56
(g77
g58
NtRp1838
(dp1839
g61
(dp1840
g88
g89
ssg70
g1830
sg63
(lp1841
S':'
asbag56
(g77
g58
NtRp1842
(dp1843
g61
(dp1844
sg70
g1830
sg63
(lp1845
g56
(g57
g58
NtRp1846
(dp1847
g61
(dp1848
g69
I4
ssg70
g1842
sg63
(lp1849
g99
asbasbasbag56
(g72
g58
NtRp1850
(dp1851
g61
(dp1852
sg70
g1719
sg63
(lp1853
g56
(g77
g58
NtRp1854
(dp1855
g61
(dp1856
g81
g82
ssg70
g1850
sg63
(lp1857
g782
asbag56
(g77
g58
NtRp1858
(dp1859
g61
(dp1860
g88
g89
ssg70
g1850
sg63
(lp1861
S':'
asbag56
(g77
g58
NtRp1862
(dp1863
g61
(dp1864
sg70
g1850
sg63
(lp1865
g56
(g57
g58
NtRp1866
(dp1867
g61
(dp1868
g69
I4
ssg70
g1862
sg63
(lp1869
g795
asbasbasbag56
(g72
g58
NtRp1870
(dp1871
g61
(dp1872
sg70
g1719
sg63
(lp1873
g56
(g77
g58
NtRp1874
(dp1875
g61
(dp1876
g81
g82
ssg70
g1870
sg63
(lp1877
g1002
asbag56
(g77
g58
NtRp1878
(dp1879
g61
(dp1880
g88
g89
ssg70
g1870
sg63
(lp1881
S':'
asbag56
(g77
g58
NtRp1882
(dp1883
g61
(dp1884
sg70
g1870
sg63
(lp1885
g56
(g57
g58
NtRp1886
(dp1887
g61
(dp1888
g69
I4
ssg70
g1882
sg63
(lp1889
g99
asbasbasbag56
(g72
g58
NtRp1890
(dp1891
g61
(dp1892
sg70
g1719
sg63
(lp1893
g56
(g77
g58
NtRp1894
(dp1895
g61
(dp1896
g81
g82
ssg70
g1890
sg63
(lp1897
g1262
asbag56
(g77
g58
NtRp1898
(dp1899
g61
(dp1900
g88
g89
ssg70
g1890
sg63
(lp1901
S':'
asbag56
(g77
g58
NtRp1902
(dp1903
g61
(dp1904
sg70
g1890
sg63
(lp1905
g56
(g57
g58
NtRp1906
(dp1907
g61
(dp1908
g69
I4
ssg70
g1902
sg63
(lp1909
g1275
asbasbasbag56
(g72
g58
NtRp1910
(dp1911
g61
(dp1912
sg70
g1719
sg63
(lp1913
g56
(g77
g58
NtRp1914
(dp1915
g61
(dp1916
g81
g82
ssg70
g1910
sg63
(lp1917
g1326
asbag56
(g77
g58
NtRp1918
(dp1919
g61
(dp1920
g88
g89
ssg70
g1910
sg63
(lp1921
S':'
asbag56
(g77
g58
NtRp1922
(dp1923
g61
(dp1924
sg70
g1910
sg63
(lp1925
g56
(g57
g58
NtRp1926
(dp1927
g61
(dp1928
g69
I4
ssg70
g1922
sg63
(lp1929
g56
(g65
g58
NtRp1930
(dp1931
g61
(dp1932
g69
I3
ssg70
Nsg63
(lp1933
g56
(g72
g58
NtRp1934
(dp1935
g61
(dp1936
sg70
g1930
sg63
(lp1937
g56
(g77
g58
NtRp1938
(dp1939
g61
(dp1940
sg70
g1934
sg63
(lp1941
g56
(g57
g58
NtRp1942
(dp1943
g61
(dp1944
g69
I3
ssg70
g1938
sg63
(lp1945
S'1'
asbasbasbag56
(g72
g58
NtRp1946
(dp1947
g61
(dp1948
sg70
g1930
sg63
(lp1949
g56
(g77
g58
NtRp1950
(dp1951
g61
(dp1952
sg70
g1946
sg63
(lp1953
g56
(g57
g58
NtRp1954
(dp1955
g61
(dp1956
g69
I3
ssg70
g1950
sg63
(lp1957
S'99'
p1958
asbasbasbag56
(g72
g58
NtRp1959
(dp1960
g61
(dp1961
sg70
g1930
sg63
(lp1962
g56
(g77
g58
NtRp1963
(dp1964
g61
(dp1965
sg70
g1959
sg63
(lp1966
g56
(g57
g58
NtRp1967
(dp1968
g61
(dp1969
g69
I3
ssg70
g1963
sg63
(lp1970
S'2'
asbasbasbag56
(g72
g58
NtRp1971
(dp1972
g61
(dp1973
sg70
g1930
sg63
(lp1974
g56
(g77
g58
NtRp1975
(dp1976
g61
(dp1977
sg70
g1971
sg63
(lp1978
g56
(g57
g58
NtRp1979
(dp1980
g61
(dp1981
g69
I3
ssg70
g1975
sg63
(lp1982
S'datetime.datetime(2011, 9, 26, 6, 55, 33)'
p1983
asbasbasbag56
(g72
g58
NtRp1984
(dp1985
g61
(dp1986
sg70
g1930
sg63
(lp1987
g56
(g77
g58
NtRp1988
(dp1989
g61
(dp1990
sg70
g1984
sg63
(lp1991
g56
(g57
g58
NtRp1992
(dp1993
g61
(dp1994
g69
I3
ssg70
g1988
sg63
(lp1995
g1405
asbasbasbasbasbasbasbasbasbasbasbag56
(g72
g58
NtRp1996
(dp1997
g61
(dp1998
sg70
g66
sg63
(lp1999
g56
(g77
g58
NtRp2000
(dp2001
g61
(dp2002
g81
g82
ssg70
g1996
sg63
(lp2003
S'is_https'
p2004
asbag56
(g77
g58
NtRp2005
(dp2006
g61
(dp2007
g88
g89
ssg70
g1996
sg63
(lp2008
S':'
asbag56
(g77
g58
NtRp2009
(dp2010
g61
(dp2011
sg70
g1996
sg63
(lp2012
g56
(g57
g58
NtRp2013
(dp2014
g61
(dp2015
g69
I5
ssg70
g2009
sg63
(lp2016
g99
asbasbasbag56
(g72
g58
NtRp2017
(dp2018
g61
(dp2019
sg70
g66
sg63
(lp2020
g56
(g77
g58
NtRp2021
(dp2022
g61
(dp2023
g81
g82
ssg70
g2017
sg63
(lp2024
S'is_local'
p2025
asbag56
(g77
g58
NtRp2026
(dp2027
g61
(dp2028
g88
g89
ssg70
g2017
sg63
(lp2029
S':'
asbag56
(g77
g58
NtRp2030
(dp2031
g61
(dp2032
sg70
g2017
sg63
(lp2033
g56
(g57
g58
NtRp2034
(dp2035
g61
(dp2036
g69
I5
ssg70
g2030
sg63
(lp2037
g1514
asbasbasbag56
(g72
g58
NtRp2038
(dp2039
g61
(dp2040
sg70
g66
sg63
(lp2041
g56
(g77
g58
NtRp2042
(dp2043
g61
(dp2044
g81
g82
ssg70
g2038
sg63
(lp2045
S'is_restful'
p2046
asbag56
(g77
g58
NtRp2047
(dp2048
g61
(dp2049
g88
g89
ssg70
g2038
sg63
(lp2050
S':'
asbag56
(g77
g58
NtRp2051
(dp2052
g61
(dp2053
sg70
g2038
sg63
(lp2054
g56
(g57
g58
NtRp2055
(dp2056
g61
(dp2057
g69
I5
ssg70
g2051
sg63
(lp2058
g99
asbasbasbag56
(g72
g58
NtRp2059
(dp2060
g61
(dp2061
sg70
g66
sg63
(lp2062
g56
(g77
g58
NtRp2063
(dp2064
g61
(dp2065
g81
g82
ssg70
g2059
sg63
(lp2066
S'now'
p2067
asbag56
(g77
g58
NtRp2068
(dp2069
g61
(dp2070
g88
g89
ssg70
g2059
sg63
(lp2071
S':'
asbag56
(g77
g58
NtRp2072
(dp2073
g61
(dp2074
sg70
g2059
sg63
(lp2075
g56
(g57
g58
NtRp2076
(dp2077
g61
(dp2078
g69
I5
ssg70
g2072
sg63
(lp2079
S'datetime.datetime(2011, 9, 29, 13, 19, 52, 980967)'
p2080
asbasbasbag56
(g72
g58
NtRp2081
(dp2082
g61
(dp2083
sg70
g66
sg63
(lp2084
g56
(g77
g58
NtRp2085
(dp2086
g61
(dp2087
g81
g82
ssg70
g2081
sg63
(lp2088
S'post_vars'
p2089
asbag56
(g77
g58
NtRp2090
(dp2091
g61
(dp2092
g88
g89
ssg70
g2081
sg63
(lp2093
S':'
asbag56
(g77
g58
NtRp2094
(dp2095
g61
(dp2096
sg70
g2081
sg63
(lp2097
g56
(g57
g58
NtRp2098
(dp2099
g61
(dp2100
g69
I5
ssg70
g2094
sg63
(lp2101
g56
(g65
g58
NtRp2102
(dp2103
g61
(dp2104
g69
I4
ssg70
Nsg63
(lp2105
sbasbasbasbag56
(g72
g58
NtRp2106
(dp2107
g61
(dp2108
sg70
g66
sg63
(lp2109
g56
(g77
g58
NtRp2110
(dp2111
g61
(dp2112
g81
g82
ssg70
g2106
sg63
(lp2113
S'url'
p2114
asbag56
(g77
g58
NtRp2115
(dp2116
g61
(dp2117
g88
g89
ssg70
g2106
sg63
(lp2118
S':'
asbag56
(g77
g58
NtRp2119
(dp2120
g61
(dp2121
sg70
g2106
sg63
(lp2122
g56
(g57
g58
NtRp2123
(dp2124
g61
(dp2125
g69
I5
ssg70
g2119
sg63
(lp2126
S'/'
asbasbasbag56
(g72
g58
NtRp2127
(dp2128
g61
(dp2129
sg70
g66
sg63
(lp2130
g56
(g77
g58
NtRp2131
(dp2132
g61
(dp2133
g81
g82
ssg70
g2127
sg63
(lp2134
S'utcnow'
p2135
asbag56
(g77
g58
NtRp2136
(dp2137
g61
(dp2138
g88
g89
ssg70
g2127
sg63
(lp2139
S':'
asbag56
(g77
g58
NtRp2140
(dp2141
g61
(dp2142
sg70
g2127
sg63
(lp2143
g56
(g57
g58
NtRp2144
(dp2145
g61
(dp2146
g69
I5
ssg70
g2140
sg63
(lp2147
S'datetime.datetime(2011, 9, 29, 20, 19, 52, 980981)'
p2148
asbasbasbag56
(g72
g58
NtRp2149
(dp2150
g61
(dp2151
sg70
g66
sg63
(lp2152
g56
(g77
g58
NtRp2153
(dp2154
g61
(dp2155
g81
g82
ssg70
g2149
sg63
(lp2156
S'uuid'
p2157
asbag56
(g77
g58
NtRp2158
(dp2159
g61
(dp2160
g88
g89
ssg70
g2149
sg63
(lp2161
S':'
asbag56
(g77
g58
NtRp2162
(dp2163
g61
(dp2164
sg70
g2149
sg63
(lp2165
g56
(g57
g58
NtRp2166
(dp2167
g61
(dp2168
g69
I5
ssg70
g2162
sg63
(lp2169
S'welcome/127.0.0.1.2011-09-29.13-19-52.af741ac0-7e36-4c8c-ac15-a16ccfde474d'
p2170
asbasbasbag56
(g72
g58
NtRp2171
(dp2172
g61
(dp2173
sg70
g66
sg63
(lp2174
g56
(g77
g58
NtRp2175
(dp2176
g61
(dp2177
g81
g82
ssg70
g2171
sg63
(lp2178
S'vars'
p2179
asbag56
(g77
g58
NtRp2180
(dp2181
g61
(dp2182
g88
g89
ssg70
g2171
sg63
(lp2183
S':'
asbag56
(g77
g58
NtRp2184
(dp2185
g61
(dp2186
sg70
g2171
sg63
(lp2187
g56
(g57
g58
NtRp2188
(dp2189
g61
(dp2190
g69
I5
ssg70
g2184
sg63
(lp2191
g56
(g65
g58
NtRp2192
(dp2193
g61
(dp2194
g69
I4
ssg70
Nsg63
(lp2195
sbasbasbasbag56
(g72
g58
NtRp2196
(dp2197
g61
(dp2198
sg70
g66
sg63
(lp2199
g56
(g77
g58
NtRp2200
(dp2201
g61
(dp2202
g81
g82
ssg70
g2196
sg63
(lp2203
S'wsgi'
p2204
asbag56
(g77
g58
NtRp2205
(dp2206
g61
(dp2207
g88
g89
ssg70
g2196
sg63
(lp2208
S':'
asbag56
(g77
g58
NtRp2209
(dp2210
g61
(dp2211
sg70
g2196
sg63
(lp2212
g56
(g57
g58
NtRp2213
(dp2214
g61
(dp2215
g69
I5
ssg70
g2209
sg63
(lp2216
g56
(g65
g58
NtRp2217
(dp2218
g61
(dp2219
g69
I4
ssg70
Nsg63
(lp2220
g56
(g72
g58
NtRp2221
(dp2222
g61
(dp2223
sg70
g2217
sg63
(lp2224
g56
(g77
g58
NtRp2225
(dp2226
g61
(dp2227
g81
g82
ssg70
g2221
sg63
(lp2228
S'environ'
p2229
asbag56
(g77
g58
NtRp2230
(dp2231
g61
(dp2232
g88
g89
ssg70
g2221
sg63
(lp2233
S':'
asbag56
(g77
g58
NtRp2234
(dp2235
g61
(dp2236
sg70
g2221
sg63
(lp2237
g56
(g57
g58
NtRp2238
(dp2239
g61
(dp2240
g69
I4
ssg70
g2234
sg63
(lp2241
g56
(g65
g58
NtRp2242
(dp2243
g61
(dp2244
g69
I3
ssg70
Nsg63
(lp2245
g56
(g72
g58
NtRp2246
(dp2247
g61
(dp2248
sg70
g2242
sg63
(lp2249
g56
(g77
g58
NtRp2250
(dp2251
g61
(dp2252
g81
g82
ssg70
g2246
sg63
(lp2253
S'HTTP_ACCEPT'
p2254
asbag56
(g77
g58
NtRp2255
(dp2256
g61
(dp2257
g88
g89
ssg70
g2246
sg63
(lp2258
S':'
asbag56
(g77
g58
NtRp2259
(dp2260
g61
(dp2261
sg70
g2246
sg63
(lp2262
g56
(g57
g58
NtRp2263
(dp2264
g61
(dp2265
g69
I3
ssg70
g2259
sg63
(lp2266
g817
asbasbasbag56
(g72
g58
NtRp2267
(dp2268
g61
(dp2269
sg70
g2242
sg63
(lp2270
g56
(g77
g58
NtRp2271
(dp2272
g61
(dp2273
g81
g82
ssg70
g2267
sg63
(lp2274
S'HTTP_ACCEPT_CHARSET'
p2275
asbag56
(g77
g58
NtRp2276
(dp2277
g61
(dp2278
g88
g89
ssg70
g2267
sg63
(lp2279
S':'
asbag56
(g77
g58
NtRp2280
(dp2281
g61
(dp2282
sg70
g2267
sg63
(lp2283
g56
(g57
g58
NtRp2284
(dp2285
g61
(dp2286
g69
I3
ssg70
g2280
sg63
(lp2287
g839
asbasbasbag56
(g72
g58
NtRp2288
(dp2289
g61
(dp2290
sg70
g2242
sg63
(lp2291
g56
(g77
g58
NtRp2292
(dp2293
g61
(dp2294
g81
g82
ssg70
g2288
sg63
(lp2295
S'HTTP_ACCEPT_ENCODING'
p2296
asbag56
(g77
g58
NtRp2297
(dp2298
g61
(dp2299
g88
g89
ssg70
g2288
sg63
(lp2300
S':'
asbag56
(g77
g58
NtRp2301
(dp2302
g61
(dp2303
sg70
g2288
sg63
(lp2304
g56
(g57
g58
NtRp2305
(dp2306
g61
(dp2307
g69
I3
ssg70
g2301
sg63
(lp2308
g861
asbasbasbag56
(g72
g58
NtRp2309
(dp2310
g61
(dp2311
sg70
g2242
sg63
(lp2312
g56
(g77
g58
NtRp2313
(dp2314
g61
(dp2315
g81
g82
ssg70
g2309
sg63
(lp2316
S'HTTP_ACCEPT_LANGUAGE'
p2317
asbag56
(g77
g58
NtRp2318
(dp2319
g61
(dp2320
g88
g89
ssg70
g2309
sg63
(lp2321
S':'
asbag56
(g77
g58
NtRp2322
(dp2323
g61
(dp2324
sg70
g2309
sg63
(lp2325
g56
(g57
g58
NtRp2326
(dp2327
g61
(dp2328
g69
I3
ssg70
g2322
sg63
(lp2329
g883
asbasbasbag56
(g72
g58
NtRp2330
(dp2331
g61
(dp2332
sg70
g2242
sg63
(lp2333
g56
(g77
g58
NtRp2334
(dp2335
g61
(dp2336
g81
g82
ssg70
g2330
sg63
(lp2337
S'HTTP_CACHE_CONTROL'
p2338
asbag56
(g77
g58
NtRp2339
(dp2340
g61
(dp2341
g88
g89
ssg70
g2330
sg63
(lp2342
S':'
asbag56
(g77
g58
NtRp2343
(dp2344
g61
(dp2345
sg70
g2330
sg63
(lp2346
g56
(g57
g58
NtRp2347
(dp2348
g61
(dp2349
g69
I3
ssg70
g2343
sg63
(lp2350
g905
asbasbasbag56
(g72
g58
NtRp2351
(dp2352
g61
(dp2353
sg70
g2242
sg63
(lp2354
g56
(g77
g58
NtRp2355
(dp2356
g61
(dp2357
g81
g82
ssg70
g2351
sg63
(lp2358
S'HTTP_CONNECTION'
p2359
asbag56
(g77
g58
NtRp2360
(dp2361
g61
(dp2362
g88
g89
ssg70
g2351
sg63
(lp2363
S':'
asbag56
(g77
g58
NtRp2364
(dp2365
g61
(dp2366
sg70
g2351
sg63
(lp2367
g56
(g57
g58
NtRp2368
(dp2369
g61
(dp2370
g69
I3
ssg70
g2364
sg63
(lp2371
g927
asbasbasbag56
(g72
g58
NtRp2372
(dp2373
g61
(dp2374
sg70
g2242
sg63
(lp2375
g56
(g77
g58
NtRp2376
(dp2377
g61
(dp2378
g81
g82
ssg70
g2372
sg63
(lp2379
S'HTTP_COOKIE'
p2380
asbag56
(g77
g58
NtRp2381
(dp2382
g61
(dp2383
g88
g89
ssg70
g2372
sg63
(lp2384
S':'
asbag56
(g77
g58
NtRp2385
(dp2386
g61
(dp2387
sg70
g2372
sg63
(lp2388
g56
(g57
g58
NtRp2389
(dp2390
g61
(dp2391
g69
I3
ssg70
g2385
sg63
(lp2392
g949
asbasbasbag56
(g72
g58
NtRp2393
(dp2394
g61
(dp2395
sg70
g2242
sg63
(lp2396
g56
(g77
g58
NtRp2397
(dp2398
g61
(dp2399
g81
g82
ssg70
g2393
sg63
(lp2400
S'HTTP_HOST'
p2401
asbag56
(g77
g58
NtRp2402
(dp2403
g61
(dp2404
g88
g89
ssg70
g2393
sg63
(lp2405
S':'
asbag56
(g77
g58
NtRp2406
(dp2407
g61
(dp2408
sg70
g2393
sg63
(lp2409
g56
(g57
g58
NtRp2410
(dp2411
g61
(dp2412
g69
I3
ssg70
g2406
sg63
(lp2413
g971
asbasbasbag56
(g72
g58
NtRp2414
(dp2415
g61
(dp2416
sg70
g2242
sg63
(lp2417
g56
(g77
g58
NtRp2418
(dp2419
g61
(dp2420
g81
g82
ssg70
g2414
sg63
(lp2421
S'HTTP_USER_AGENT'
p2422
asbag56
(g77
g58
NtRp2423
(dp2424
g61
(dp2425
g88
g89
ssg70
g2414
sg63
(lp2426
S':'
asbag56
(g77
g58
NtRp2427
(dp2428
g61
(dp2429
sg70
g2414
sg63
(lp2430
g56
(g57
g58
NtRp2431
(dp2432
g61
(dp2433
g69
I3
ssg70
g2427
sg63
(lp2434
g993
asbasbasbag56
(g72
g58
NtRp2435
(dp2436
g61
(dp2437
sg70
g2242
sg63
(lp2438
g56
(g77
g58
NtRp2439
(dp2440
g61
(dp2441
g81
g82
ssg70
g2435
sg63
(lp2442
S'PATH_INFO'
p2443
asbag56
(g77
g58
NtRp2444
(dp2445
g61
(dp2446
g88
g89
ssg70
g2435
sg63
(lp2447
S':'
asbag56
(g77
g58
NtRp2448
(dp2449
g61
(dp2450
sg70
g2435
sg63
(lp2451
g56
(g57
g58
NtRp2452
(dp2453
g61
(dp2454
g69
I3
ssg70
g2448
sg63
(lp2455
g1036
asbasbasbag56
(g72
g58
NtRp2456
(dp2457
g61
(dp2458
sg70
g2242
sg63
(lp2459
g56
(g77
g58
NtRp2460
(dp2461
g61
(dp2462
g81
g82
ssg70
g2456
sg63
(lp2463
S'QUERY_STRING'
p2464
asbag56
(g77
g58
NtRp2465
(dp2466
g61
(dp2467
g88
g89
ssg70
g2456
sg63
(lp2468
S':'
asbag56
(g77
g58
NtRp2469
(dp2470
g61
(dp2471
sg70
g2456
sg63
(lp2472
g56
(g57
g58
NtRp2473
(dp2474
g61
(dp2475
g69
I3
ssg70
g2469
sg63
(lp2476
S''
asbasbasbag56
(g72
g58
NtRp2477
(dp2478
g61
(dp2479
sg70
g2242
sg63
(lp2480
g56
(g77
g58
NtRp2481
(dp2482
g61
(dp2483
g81
g82
ssg70
g2477
sg63
(lp2484
S'REMOTE_ADDR'
p2485
asbag56
(g77
g58
NtRp2486
(dp2487
g61
(dp2488
g88
g89
ssg70
g2477
sg63
(lp2489
S':'
asbag56
(g77
g58
NtRp2490
(dp2491
g61
(dp2492
sg70
g2477
sg63
(lp2493
g56
(g57
g58
NtRp2494
(dp2495
g61
(dp2496
g69
I3
ssg70
g2490
sg63
(lp2497
g189
asbasbasbag56
(g72
g58
NtRp2498
(dp2499
g61
(dp2500
sg70
g2242
sg63
(lp2501
g56
(g77
g58
NtRp2502
(dp2503
g61
(dp2504
g81
g82
ssg70
g2498
sg63
(lp2505
S'REMOTE_PORT'
p2506
asbag56
(g77
g58
NtRp2507
(dp2508
g61
(dp2509
g88
g89
ssg70
g2498
sg63
(lp2510
S':'
asbag56
(g77
g58
NtRp2511
(dp2512
g61
(dp2513
sg70
g2498
sg63
(lp2514
g56
(g57
g58
NtRp2515
(dp2516
g61
(dp2517
g69
I3
ssg70
g2511
sg63
(lp2518
g1100
asbasbasbag56
(g72
g58
NtRp2519
(dp2520
g61
(dp2521
sg70
g2242
sg63
(lp2522
g56
(g77
g58
NtRp2523
(dp2524
g61
(dp2525
g81
g82
ssg70
g2519
sg63
(lp2526
S'REQUEST_METHOD'
p2527
asbag56
(g77
g58
NtRp2528
(dp2529
g61
(dp2530
g88
g89
ssg70
g2519
sg63
(lp2531
S':'
asbag56
(g77
g58
NtRp2532
(dp2533
g61
(dp2534
sg70
g2519
sg63
(lp2535
g56
(g57
g58
NtRp2536
(dp2537
g61
(dp2538
g69
I3
ssg70
g2532
sg63
(lp2539
g1122
asbasbasbag56
(g72
g58
NtRp2540
(dp2541
g61
(dp2542
sg70
g2242
sg63
(lp2543
g56
(g77
g58
NtRp2544
(dp2545
g61
(dp2546
g81
g82
ssg70
g2540
sg63
(lp2547
S'REQUEST_URI'
p2548
asbag56
(g77
g58
NtRp2549
(dp2550
g61
(dp2551
g88
g89
ssg70
g2540
sg63
(lp2552
S':'
asbag56
(g77
g58
NtRp2553
(dp2554
g61
(dp2555
sg70
g2540
sg63
(lp2556
g56
(g57
g58
NtRp2557
(dp2558
g61
(dp2559
g69
I3
ssg70
g2553
sg63
(lp2560
g1144
asbasbasbag56
(g72
g58
NtRp2561
(dp2562
g61
(dp2563
sg70
g2242
sg63
(lp2564
g56
(g77
g58
NtRp2565
(dp2566
g61
(dp2567
g81
g82
ssg70
g2561
sg63
(lp2568
S'SCRIPT_NAME'
p2569
asbag56
(g77
g58
NtRp2570
(dp2571
g61
(dp2572
g88
g89
ssg70
g2561
sg63
(lp2573
S':'
asbag56
(g77
g58
NtRp2574
(dp2575
g61
(dp2576
sg70
g2561
sg63
(lp2577
g56
(g57
g58
NtRp2578
(dp2579
g61
(dp2580
g69
I3
ssg70
g2574
sg63
(lp2581
S''
asbasbasbag56
(g72
g58
NtRp2582
(dp2583
g61
(dp2584
sg70
g2242
sg63
(lp2585
g56
(g77
g58
NtRp2586
(dp2587
g61
(dp2588
g81
g82
ssg70
g2582
sg63
(lp2589
S'SERVER_NAME'
p2590
asbag56
(g77
g58
NtRp2591
(dp2592
g61
(dp2593
g88
g89
ssg70
g2582
sg63
(lp2594
S':'
asbag56
(g77
g58
NtRp2595
(dp2596
g61
(dp2597
sg70
g2582
sg63
(lp2598
g56
(g57
g58
NtRp2599
(dp2600
g61
(dp2601
g69
I3
ssg70
g2595
sg63
(lp2602
g1187
asbasbasbag56
(g72
g58
NtRp2603
(dp2604
g61
(dp2605
sg70
g2242
sg63
(lp2606
g56
(g77
g58
NtRp2607
(dp2608
g61
(dp2609
g81
g82
ssg70
g2603
sg63
(lp2610
S'SERVER_PORT'
p2611
asbag56
(g77
g58
NtRp2612
(dp2613
g61
(dp2614
g88
g89
ssg70
g2603
sg63
(lp2615
S':'
asbag56
(g77
g58
NtRp2616
(dp2617
g61
(dp2618
sg70
g2603
sg63
(lp2619
g56
(g57
g58
NtRp2620
(dp2621
g61
(dp2622
g69
I3
ssg70
g2616
sg63
(lp2623
g1209
asbasbasbag56
(g72
g58
NtRp2624
(dp2625
g61
(dp2626
sg70
g2242
sg63
(lp2627
g56
(g77
g58
NtRp2628
(dp2629
g61
(dp2630
g81
g82
ssg70
g2624
sg63
(lp2631
S'SERVER_PROTOCOL'
p2632
asbag56
(g77
g58
NtRp2633
(dp2634
g61
(dp2635
g88
g89
ssg70
g2624
sg63
(lp2636
S':'
asbag56
(g77
g58
NtRp2637
(dp2638
g61
(dp2639
sg70
g2624
sg63
(lp2640
g56
(g57
g58
NtRp2641
(dp2642
g61
(dp2643
g69
I3
ssg70
g2637
sg63
(lp2644
g1231
asbasbasbag56
(g72
g58
NtRp2645
(dp2646
g61
(dp2647
sg70
g2242
sg63
(lp2648
g56
(g77
g58
NtRp2649
(dp2650
g61
(dp2651
g81
g82
ssg70
g2645
sg63
(lp2652
S'SERVER_SOFTWARE'
p2653
asbag56
(g77
g58
NtRp2654
(dp2655
g61
(dp2656
g88
g89
ssg70
g2645
sg63
(lp2657
S':'
asbag56
(g77
g58
NtRp2658
(dp2659
g61
(dp2660
sg70
g2645
sg63
(lp2661
g56
(g57
g58
NtRp2662
(dp2663
g61
(dp2664
g69
I3
ssg70
g2658
sg63
(lp2665
g1253
asbasbasbag56
(g72
g58
NtRp2666
(dp2667
g61
(dp2668
sg70
g2242
sg63
(lp2669
g56
(g77
g58
NtRp2670
(dp2671
g61
(dp2672
g81
g82
ssg70
g2666
sg63
(lp2673
S'WEB2PY_ORIGINAL_URI'
p2674
asbag56
(g77
g58
NtRp2675
(dp2676
g61
(dp2677
g88
g89
ssg70
g2666
sg63
(lp2678
S':'
asbag56
(g77
g58
NtRp2679
(dp2680
g61
(dp2681
sg70
g2666
sg63
(lp2682
g56
(g57
g58
NtRp2683
(dp2684
g61
(dp2685
g69
I3
ssg70
g2679
sg63
(lp2686
g1036
asbasbasbag56
(g72
g58
NtRp2687
(dp2688
g61
(dp2689
sg70
g2242
sg63
(lp2690
g56
(g77
g58
NtRp2691
(dp2692
g61
(dp2693
g81
g82
ssg70
g2687
sg63
(lp2694
S'wsgi.errors'
p2695
asbag56
(g77
g58
NtRp2696
(dp2697
g61
(dp2698
g88
g89
ssg70
g2687
sg63
(lp2699
S':'
asbag56
(g77
g58
NtRp2700
(dp2701
g61
(dp2702
sg70
g2687
sg63
(lp2703
g56
(g57
g58
NtRp2704
(dp2705
g61
(dp2706
g69
I3
ssg70
g2700
sg63
(lp2707
S"<open file '<stderr>', mode 'w' at 0x100416140>"
p2708
asbasbasbag56
(g72
g58
NtRp2709
(dp2710
g61
(dp2711
sg70
g2242
sg63
(lp2712
g56
(g77
g58
NtRp2713
(dp2714
g61
(dp2715
g81
g82
ssg70
g2709
sg63
(lp2716
S'wsgi.file_wrapper'
p2717
asbag56
(g77
g58
NtRp2718
(dp2719
g61
(dp2720
g88
g89
ssg70
g2709
sg63
(lp2721
S':'
asbag56
(g77
g58
NtRp2722
(dp2723
g61
(dp2724
sg70
g2709
sg63
(lp2725
g56
(g57
g58
NtRp2726
(dp2727
g61
(dp2728
g69
I3
ssg70
g2722
sg63
(lp2729
S'<class wsgiref.util.FileWrapper at 0x1014a2bf0>'
p2730
asbasbasbag56
(g72
g58
NtRp2731
(dp2732
g61
(dp2733
sg70
g2242
sg63
(lp2734
g56
(g77
g58
NtRp2735
(dp2736
g61
(dp2737
g81
g82
ssg70
g2731
sg63
(lp2738
S'wsgi.input'
p2739
asbag56
(g77
g58
NtRp2740
(dp2741
g61
(dp2742
g88
g89
ssg70
g2731
sg63
(lp2743
S':'
asbag56
(g77
g58
NtRp2744
(dp2745
g61
(dp2746
sg70
g2731
sg63
(lp2747
g56
(g57
g58
NtRp2748
(dp2749
g61
(dp2750
g69
I3
ssg70
g2744
sg63
(lp2751
S'<cStringIO.StringO object at 0x1013d1768>'
p2752
asbasbasbag56
(g72
g58
NtRp2753
(dp2754
g61
(dp2755
sg70
g2242
sg63
(lp2756
g56
(g77
g58
NtRp2757
(dp2758
g61
(dp2759
g81
g82
ssg70
g2753
sg63
(lp2760
S'wsgi.multiprocess'
p2761
asbag56
(g77
g58
NtRp2762
(dp2763
g61
(dp2764
g88
g89
ssg70
g2753
sg63
(lp2765
S':'
asbag56
(g77
g58
NtRp2766
(dp2767
g61
(dp2768
sg70
g2753
sg63
(lp2769
g56
(g57
g58
NtRp2770
(dp2771
g61
(dp2772
g69
I3
ssg70
g2766
sg63
(lp2773
g99
asbasbasbag56
(g72
g58
NtRp2774
(dp2775
g61
(dp2776
sg70
g2242
sg63
(lp2777
g56
(g77
g58
NtRp2778
(dp2779
g61
(dp2780
g81
g82
ssg70
g2774
sg63
(lp2781
S'wsgi.multithread'
p2782
asbag56
(g77
g58
NtRp2783
(dp2784
g61
(dp2785
g88
g89
ssg70
g2774
sg63
(lp2786
S':'
asbag56
(g77
g58
NtRp2787
(dp2788
g61
(dp2789
sg70
g2774
sg63
(lp2790
g56
(g57
g58
NtRp2791
(dp2792
g61
(dp2793
g69
I3
ssg70
g2787
sg63
(lp2794
g1514
asbasbasbag56
(g72
g58
NtRp2795
(dp2796
g61
(dp2797
sg70
g2242
sg63
(lp2798
g56
(g77
g58
NtRp2799
(dp2800
g61
(dp2801
g81
g82
ssg70
g2795
sg63
(lp2802
S'wsgi.run_once'
p2803
asbag56
(g77
g58
NtRp2804
(dp2805
g61
(dp2806
g88
g89
ssg70
g2795
sg63
(lp2807
S':'
asbag56
(g77
g58
NtRp2808
(dp2809
g61
(dp2810
sg70
g2795
sg63
(lp2811
g56
(g57
g58
NtRp2812
(dp2813
g61
(dp2814
g69
I3
ssg70
g2808
sg63
(lp2815
g99
asbasbasbag56
(g72
g58
NtRp2816
(dp2817
g61
(dp2818
sg70
g2242
sg63
(lp2819
g56
(g77
g58
NtRp2820
(dp2821
g61
(dp2822
g81
g82
ssg70
g2816
sg63
(lp2823
S'wsgi.url_scheme'
p2824
asbag56
(g77
g58
NtRp2825
(dp2826
g61
(dp2827
g88
g89
ssg70
g2816
sg63
(lp2828
S':'
asbag56
(g77
g58
NtRp2829
(dp2830
g61
(dp2831
sg70
g2816
sg63
(lp2832
g56
(g57
g58
NtRp2833
(dp2834
g61
(dp2835
g69
I3
ssg70
g2829
sg63
(lp2836
g1557
asbasbasbag56
(g72
g58
NtRp2837
(dp2838
g61
(dp2839
sg70
g2242
sg63
(lp2840
g56
(g77
g58
NtRp2841
(dp2842
g61
(dp2843
g81
g82
ssg70
g2837
sg63
(lp2844
S'wsgi.version'
p2845
asbag56
(g77
g58
NtRp2846
(dp2847
g61
(dp2848
g88
g89
ssg70
g2837
sg63
(lp2849
S':'
asbag56
(g77
g58
NtRp2850
(dp2851
g61
(dp2852
sg70
g2837
sg63
(lp2853
g56
(g57
g58
NtRp2854
(dp2855
g61
(dp2856
g69
I3
ssg70
g2850
sg63
(lp2857
S'1'
asbasbasbasbasbasbasbasbasbasbasbasbasbsS'frames'
p2858
(lp2859
(dp2860
S'file'
p2861
S'/Users/excon/Sites/dreamscape/gluon/restricted.py'
p2862
sS'dump'
p2863
(dp2864
S'environment'
p2865
S"{'A': <class 'gluon.html.A'>, 'Auth': <class 'gluon.tools.Auth'>, 'B': <class 'gluon.html.B'>, 'BEAUTIFY': <class 'gluon.html.BEAUTIFY'>, 'BODY': <class 'gluon.html.BODY'>, 'BR': <class 'gluon.html.BR'>, 'BUTTON': <class 'gluon.html.BUTTON'>, 'CAT': <class 'gluon.html.CAT'>, 'CENTER': <class 'gluon.html.CENTER'>, 'CLEANUP': <class 'gluon.validators.CLEANUP'>, ...}"
p2866
sS'ccode'
p2867
S'<code object <module> at 0x1013ffe40, file "/Use...ations/welcome/views/default/index.html", line 1>'
p2868
ssS'lnum'
p2869
I194
sS'lines'
p2870
(dp2871
I192
S'        else:'
p2872
sI193
S'            ccode = compile2(code,layer)'
p2873
sI194
S'        exec ccode in environment'
p2874
sI195
S'    except HTTP:'
p2875
sI196
S'        raise'
p2876
sI197
S'    except Exception, error:'
p2877
sI198
S'        # XXX Show exception in Wing IDE if running in debugger'
p2878
sI189
S'    try:'
p2879
sI190
S'        if type(code) == types.CodeType:'
p2880
sI191
S'            ccode = code'
p2881
ssS'call'
p2882
S'(code=\'response.write(\\\'<!DOCTYPE html>\\\\n<html lang="\\\', ...nse.write(\\\'\\\\n  </body>\\\\n</html>\\\\n\\\', escape=False)\', environment={\'A\': <class \'gluon.html.A\'>, \'Auth\': <class \'gluon.tools.Auth\'>, \'B\': <class \'gluon.html.B\'>, \'BEAUTIFY\': <class \'gluon.html.BEAUTIFY\'>, \'BODY\': <class \'gluon.html.BODY\'>, \'BR\': <class \'gluon.html.BR\'>, \'BUTTON\': <class \'gluon.html.BUTTON\'>, \'CAT\': <class \'gluon.html.CAT\'>, \'CENTER\': <class \'gluon.html.CENTER\'>, \'CLEANUP\': <class \'gluon.validators.CLEANUP\'>, ...}, layer=\'/Users/excon/Sites/dreamscape/applications/welcome/views/default/index.html\')'
p2883
sS'func'
p2884
S'restricted'
p2885
sa(dp2886
g2861
S'/Users/excon/Sites/dreamscape/applications/welcome/views/default/index.html'
p2887
sg2863
(dp2888
sg2869
I84
sg2870
(dp2889
I75
S"    response.write('Content Left Sidebar', escape=False)"
p2890
sI76
S"    response.write('       \\n            </div>\\n          </div><!-- left_sidebar -->\\n      ', escape=False)"
p2891
sI77
S'    pass'
p2892
sI78
S'response.write(\'\\n\\n      <!-- content -->\\n      <div id="content" \', escape=False)'
p2893
sI79
S'response.write(XML(style_content))'
p2894
sI80
S"response.write(' >\\n        ', escape=False)"
p2895
sI81
S"response.write('\\n', escape=False)"
p2896
sI82
S'for num in nums:'
p2897
sI83
S"    response.write('\\n', escape=False)"
p2898
sI84
S'    response.write(P("a" + num))'
p2899
sI85
S"    response.write('\\n', escape=False)"
p2900
sI86
S'    pass'
p2901
sI87
S"response.write('\\n<h1>Dreamscape</h1>\\n<p>Share your dreams with other dreamers to turn passions to realities.</p>\\n<p>We are really intent on everyone achieving their dreams.</p>\\n', escape=False)"
p2902
sI88
S'pass'
p2903
sI89
S"response.write('\\n      </div>\\n      <!-- content -->\\n\\n      ', escape=False)"
p2904
sI90
S'if right_sidebar_enabled:'
p2905
sI91
S'    response.write(\'\\n          <div id="right_sidebar" \', escape=False)'
p2906
sI92
S'    response.write(XML(right_sidebar_style))'
p2907
sI93
S'    response.write(\' >\\n            <div style="padding: 4px;">\\n              \', escape=False)'
p2908
sI94
S"    response.write('Content Right Sidebar', escape=False)"
p2909
ssg2882
S'()'
p2910
sg2884
S'<module>'
p2911
sasS'pyver'
p2912
S'Python 2.6.1: /usr/bin/python'
p2913
sS'session'
p2914
g56
(g57
g58
NtRp2915
(dp2916
g61
(dp2917
sg63
(lp2918
g56
(g65
g58
NtRp2919
(dp2920
g61
(dp2921
g69
I5
ssg70
Nsg63
(lp2922
sbasbsS'etype'
p2923
S"<type 'exceptions.TypeError'>"
p2924
sS'date'
p2925
S'Thu Sep 29 13:19:53 2011'
p2926
sS'response'
p2927
g56
(g57
g58
NtRp2928
(dp2929
g61
(dp2930
sg63
(lp2931
g56
(g65
g58
NtRp2932
(dp2933
g61
(dp2934
g69
I5
ssg70
Nsg63
(lp2935
g56
(g72
g58
NtRp2936
(dp2937
g61
(dp2938
sg70
g2932
sg63
(lp2939
g56
(g77
g58
NtRp2940
(dp2941
g61
(dp2942
g81
g82
ssg70
g2936
sg63
(lp2943
g154
asbag56
(g77
g58
NtRp2944
(dp2945
g61
(dp2946
g88
g89
ssg70
g2936
sg63
(lp2947
S':'
asbag56
(g77
g58
NtRp2948
(dp2949
g61
(dp2950
sg70
g2936
sg63
(lp2951
g56
(g57
g58
NtRp2952
(dp2953
g61
(dp2954
g69
I5
ssg70
g2948
sg63
(lp2955
S'<cStringIO.StringO object at 0x1016076c0>'
p2956
asbasbasbag56
(g72
g58
NtRp2957
(dp2958
g61
(dp2959
sg70
g2932
sg63
(lp2960
g56
(g77
g58
NtRp2961
(dp2962
g61
(dp2963
g81
g82
ssg70
g2957
sg63
(lp2964
g220
asbag56
(g77
g58
NtRp2965
(dp2966
g61
(dp2967
g88
g89
ssg70
g2957
sg63
(lp2968
S':'
asbag56
(g77
g58
NtRp2969
(dp2970
g61
(dp2971
sg70
g2957
sg63
(lp2972
g56
(g57
g58
NtRp2973
(dp2974
g61
(dp2975
g69
I5
ssg70
g2969
sg63
(lp2976
g56
(g65
g58
NtRp2977
(dp2978
g61
(dp2979
g69
I4
ssg70
Nsg63
(lp2980
g56
(g72
g58
NtRp2981
(dp2982
g61
(dp2983
sg70
g2977
sg63
(lp2984
g56
(g77
g58
NtRp2985
(dp2986
g61
(dp2987
g81
g82
ssg70
g2981
sg63
(lp2988
S'session_id_welcome'
p2989
asbag56
(g77
g58
NtRp2990
(dp2991
g61
(dp2992
g88
g89
ssg70
g2981
sg63
(lp2993
S':'
asbag56
(g77
g58
NtRp2994
(dp2995
g61
(dp2996
sg70
g2981
sg63
(lp2997
g56
(g57
g58
NtRp2998
(dp2999
g61
(dp3000
g69
I4
ssg70
g2994
sg63
(lp3001
g56
(g65
g58
NtRp3002
(dp3003
g61
(dp3004
g69
I3
ssg70
Nsg63
(lp3005
g56
(g72
g58
NtRp3006
(dp3007
g61
(dp3008
sg70
g3002
sg63
(lp3009
g56
(g77
g58
NtRp3010
(dp3011
g61
(dp3012
g81
g82
ssg70
g3006
sg63
(lp3013
g270
asbag56
(g77
g58
NtRp3014
(dp3015
g61
(dp3016
g88
g89
ssg70
g3006
sg63
(lp3017
S':'
asbag56
(g77
g58
NtRp3018
(dp3019
g61
(dp3020
sg70
g3006
sg63
(lp3021
g56
(g57
g58
NtRp3022
(dp3023
g61
(dp3024
g69
I3
ssg70
g3018
sg63
(lp3025
S''
asbasbasbag56
(g72
g58
NtRp3026
(dp3027
g61
(dp3028
sg70
g3002
sg63
(lp3029
g56
(g77
g58
NtRp3030
(dp3031
g61
(dp3032
g81
g82
ssg70
g3026
sg63
(lp3033
g291
asbag56
(g77
g58
NtRp3034
(dp3035
g61
(dp3036
g88
g89
ssg70
g3026
sg63
(lp3037
S':'
asbag56
(g77
g58
NtRp3038
(dp3039
g61
(dp3040
sg70
g3026
sg63
(lp3041
g56
(g57
g58
NtRp3042
(dp3043
g61
(dp3044
g69
I3
ssg70
g3038
sg63
(lp3045
S''
asbasbasbag56
(g72
g58
NtRp3046
(dp3047
g61
(dp3048
sg70
g3002
sg63
(lp3049
g56
(g77
g58
NtRp3050
(dp3051
g61
(dp3052
g81
g82
ssg70
g3046
sg63
(lp3053
g312
asbag56
(g77
g58
NtRp3054
(dp3055
g61
(dp3056
g88
g89
ssg70
g3046
sg63
(lp3057
S':'
asbag56
(g77
g58
NtRp3058
(dp3059
g61
(dp3060
sg70
g3046
sg63
(lp3061
g56
(g57
g58
NtRp3062
(dp3063
g61
(dp3064
g69
I3
ssg70
g3058
sg63
(lp3065
S''
asbasbasbag56
(g72
g58
NtRp3066
(dp3067
g61
(dp3068
sg70
g3002
sg63
(lp3069
g56
(g77
g58
NtRp3070
(dp3071
g61
(dp3072
g81
g82
ssg70
g3066
sg63
(lp3073
g333
asbag56
(g77
g58
NtRp3074
(dp3075
g61
(dp3076
g88
g89
ssg70
g3066
sg63
(lp3077
S':'
asbag56
(g77
g58
NtRp3078
(dp3079
g61
(dp3080
sg70
g3066
sg63
(lp3081
g56
(g57
g58
NtRp3082
(dp3083
g61
(dp3084
g69
I3
ssg70
g3078
sg63
(lp3085
S''
asbasbasbag56
(g72
g58
NtRp3086
(dp3087
g61
(dp3088
sg70
g3002
sg63
(lp3089
g56
(g77
g58
NtRp3090
(dp3091
g61
(dp3092
g81
g82
ssg70
g3086
sg63
(lp3093
g354
asbag56
(g77
g58
NtRp3094
(dp3095
g61
(dp3096
g88
g89
ssg70
g3086
sg63
(lp3097
S':'
asbag56
(g77
g58
NtRp3098
(dp3099
g61
(dp3100
sg70
g3086
sg63
(lp3101
g56
(g57
g58
NtRp3102
(dp3103
g61
(dp3104
g69
I3
ssg70
g3098
sg63
(lp3105
S''
asbasbasbag56
(g72
g58
NtRp3106
(dp3107
g61
(dp3108
sg70
g3002
sg63
(lp3109
g56
(g77
g58
NtRp3110
(dp3111
g61
(dp3112
g81
g82
ssg70
g3106
sg63
(lp3113
g375
asbag56
(g77
g58
NtRp3114
(dp3115
g61
(dp3116
g88
g89
ssg70
g3106
sg63
(lp3117
S':'
asbag56
(g77
g58
NtRp3118
(dp3119
g61
(dp3120
sg70
g3106
sg63
(lp3121
g56
(g57
g58
NtRp3122
(dp3123
g61
(dp3124
g69
I3
ssg70
g3118
sg63
(lp3125
S'/'
asbasbasbag56
(g72
g58
NtRp3126
(dp3127
g61
(dp3128
sg70
g3002
sg63
(lp3129
g56
(g77
g58
NtRp3130
(dp3131
g61
(dp3132
g81
g82
ssg70
g3126
sg63
(lp3133
g396
asbag56
(g77
g58
NtRp3134
(dp3135
g61
(dp3136
g88
g89
ssg70
g3126
sg63
(lp3137
S':'
asbag56
(g77
g58
NtRp3138
(dp3139
g61
(dp3140
sg70
g3126
sg63
(lp3141
g56
(g57
g58
NtRp3142
(dp3143
g61
(dp3144
g69
I3
ssg70
g3138
sg63
(lp3145
S''
asbasbasbag56
(g72
g58
NtRp3146
(dp3147
g61
(dp3148
sg70
g3002
sg63
(lp3149
g56
(g77
g58
NtRp3150
(dp3151
g61
(dp3152
g81
g82
ssg70
g3146
sg63
(lp3153
g417
asbag56
(g77
g58
NtRp3154
(dp3155
g61
(dp3156
g88
g89
ssg70
g3146
sg63
(lp3157
S':'
asbag56
(g77
g58
NtRp3158
(dp3159
g61
(dp3160
sg70
g3146
sg63
(lp3161
g56
(g57
g58
NtRp3162
(dp3163
g61
(dp3164
g69
I3
ssg70
g3158
sg63
(lp3165
S''
asbasbasbasbasbasbasbasbasbasbasbag56
(g72
g58
NtRp3166
(dp3167
g61
(dp3168
sg70
g2932
sg63
(lp3169
g56
(g77
g58
NtRp3170
(dp3171
g61
(dp3172
g81
g82
ssg70
g3166
sg63
(lp3173
S'files'
p3174
asbag56
(g77
g58
NtRp3175
(dp3176
g61
(dp3177
g88
g89
ssg70
g3166
sg63
(lp3178
S':'
asbag56
(g77
g58
NtRp3179
(dp3180
g61
(dp3181
sg70
g3166
sg63
(lp3182
g56
(g57
g58
NtRp3183
(dp3184
g61
(dp3185
g69
I5
ssg70
g3179
sg63
(lp3186
g56
(g65
g58
NtRp3187
(dp3188
g61
(dp3189
g69
I4
ssg70
Nsg63
(lp3190
g56
(g72
g58
NtRp3191
(dp3192
g61
(dp3193
sg70
g3187
sg63
(lp3194
g56
(g77
g58
NtRp3195
(dp3196
g61
(dp3197
sg70
g3191
sg63
(lp3198
g56
(g57
g58
NtRp3199
(dp3200
g61
(dp3201
g69
I4
ssg70
g3195
sg63
(lp3202
S'/welcome/static/js/jquery.js'
p3203
asbasbasbag56
(g72
g58
NtRp3204
(dp3205
g61
(dp3206
sg70
g3187
sg63
(lp3207
g56
(g77
g58
NtRp3208
(dp3209
g61
(dp3210
sg70
g3204
sg63
(lp3211
g56
(g57
g58
NtRp3212
(dp3213
g61
(dp3214
g69
I4
ssg70
g3208
sg63
(lp3215
S'/welcome/static/css/anytime.css'
p3216
asbasbasbag56
(g72
g58
NtRp3217
(dp3218
g61
(dp3219
sg70
g3187
sg63
(lp3220
g56
(g77
g58
NtRp3221
(dp3222
g61
(dp3223
sg70
g3217
sg63
(lp3224
g56
(g57
g58
NtRp3225
(dp3226
g61
(dp3227
g69
I4
ssg70
g3221
sg63
(lp3228
S'/welcome/static/js/anytime.js'
p3229
asbasbasbag56
(g72
g58
NtRp3230
(dp3231
g61
(dp3232
sg70
g3187
sg63
(lp3233
g56
(g77
g58
NtRp3234
(dp3235
g61
(dp3236
sg70
g3230
sg63
(lp3237
g56
(g57
g58
NtRp3238
(dp3239
g61
(dp3240
g69
I4
ssg70
g3234
sg63
(lp3241
S'/welcome/static/css/base.css'
p3242
asbasbasbag56
(g72
g58
NtRp3243
(dp3244
g61
(dp3245
sg70
g3187
sg63
(lp3246
g56
(g77
g58
NtRp3247
(dp3248
g61
(dp3249
sg70
g3243
sg63
(lp3250
g56
(g57
g58
NtRp3251
(dp3252
g61
(dp3253
g69
I4
ssg70
g3247
sg63
(lp3254
S'/welcome/static/css/superfish.css'
p3255
asbasbasbag56
(g72
g58
NtRp3256
(dp3257
g61
(dp3258
sg70
g3187
sg63
(lp3259
g56
(g77
g58
NtRp3260
(dp3261
g61
(dp3262
sg70
g3256
sg63
(lp3263
g56
(g57
g58
NtRp3264
(dp3265
g61
(dp3266
g69
I4
ssg70
g3260
sg63
(lp3267
S'/welcome/static/js/superfish.js'
p3268
asbasbasbasbasbasbasbag56
(g72
g58
NtRp3269
(dp3270
g61
(dp3271
sg70
g2932
sg63
(lp3272
g56
(g77
g58
NtRp3273
(dp3274
g61
(dp3275
g81
g82
ssg70
g3269
sg63
(lp3276
S'flash'
p3277
asbag56
(g77
g58
NtRp3278
(dp3279
g61
(dp3280
g88
g89
ssg70
g3269
sg63
(lp3281
S':'
asbag56
(g77
g58
NtRp3282
(dp3283
g61
(dp3284
sg70
g3269
sg63
(lp3285
g56
(g57
g58
NtRp3286
(dp3287
g61
(dp3288
g69
I5
ssg70
g3282
sg63
(lp3289
S''
asbasbasbag56
(g72
g58
NtRp3290
(dp3291
g61
(dp3292
sg70
g2932
sg63
(lp3293
g56
(g77
g58
NtRp3294
(dp3295
g61
(dp3296
g81
g82
ssg70
g3290
sg63
(lp3297
S'generic_patterns'
p3298
asbag56
(g77
g58
NtRp3299
(dp3300
g61
(dp3301
g88
g89
ssg70
g3290
sg63
(lp3302
S':'
asbag56
(g77
g58
NtRp3303
(dp3304
g61
(dp3305
sg70
g3290
sg63
(lp3306
g56
(g57
g58
NtRp3307
(dp3308
g61
(dp3309
g69
I5
ssg70
g3303
sg63
(lp3310
g56
(g65
g58
NtRp3311
(dp3312
g61
(dp3313
g69
I4
ssg70
Nsg63
(lp3314
g56
(g72
g58
NtRp3315
(dp3316
g61
(dp3317
sg70
g3311
sg63
(lp3318
g56
(g77
g58
NtRp3319
(dp3320
g61
(dp3321
sg70
g3315
sg63
(lp3322
g56
(g57
g58
NtRp3323
(dp3324
g61
(dp3325
g69
I4
ssg70
g3319
sg63
(lp3326
S'*'
asbasbasbasbasbasbasbag56
(g72
g58
NtRp3327
(dp3328
g61
(dp3329
sg70
g2932
sg63
(lp3330
g56
(g77
g58
NtRp3331
(dp3332
g61
(dp3333
g81
g82
ssg70
g3327
sg63
(lp3334
S'headers'
p3335
asbag56
(g77
g58
NtRp3336
(dp3337
g61
(dp3338
g88
g89
ssg70
g3327
sg63
(lp3339
S':'
asbag56
(g77
g58
NtRp3340
(dp3341
g61
(dp3342
sg70
g3327
sg63
(lp3343
g56
(g57
g58
NtRp3344
(dp3345
g61
(dp3346
g69
I5
ssg70
g3340
sg63
(lp3347
g56
(g65
g58
NtRp3348
(dp3349
g61
(dp3350
g69
I4
ssg70
Nsg63
(lp3351
g56
(g72
g58
NtRp3352
(dp3353
g61
(dp3354
sg70
g3348
sg63
(lp3355
g56
(g77
g58
NtRp3356
(dp3357
g61
(dp3358
g81
g82
ssg70
g3352
sg63
(lp3359
S'Cache-Control'
p3360
asbag56
(g77
g58
NtRp3361
(dp3362
g61
(dp3363
g88
g89
ssg70
g3352
sg63
(lp3364
S':'
asbag56
(g77
g58
NtRp3365
(dp3366
g61
(dp3367
sg70
g3352
sg63
(lp3368
g56
(g57
g58
NtRp3369
(dp3370
g61
(dp3371
g69
I4
ssg70
g3365
sg63
(lp3372
S'no-store, no-cache, must-revalidate, post-check=0, pre-check=0'
p3373
asbasbasbag56
(g72
g58
NtRp3374
(dp3375
g61
(dp3376
sg70
g3348
sg63
(lp3377
g56
(g77
g58
NtRp3378
(dp3379
g61
(dp3380
g81
g82
ssg70
g3374
sg63
(lp3381
S'Content-Type'
p3382
asbag56
(g77
g58
NtRp3383
(dp3384
g61
(dp3385
g88
g89
ssg70
g3374
sg63
(lp3386
S':'
asbag56
(g77
g58
NtRp3387
(dp3388
g61
(dp3389
sg70
g3374
sg63
(lp3390
g56
(g57
g58
NtRp3391
(dp3392
g61
(dp3393
g69
I4
ssg70
g3387
sg63
(lp3394
S'text/html; charset=utf-8'
p3395
asbasbasbag56
(g72
g58
NtRp3396
(dp3397
g61
(dp3398
sg70
g3348
sg63
(lp3399
g56
(g77
g58
NtRp3400
(dp3401
g61
(dp3402
g81
g82
ssg70
g3396
sg63
(lp3403
S'Expires'
p3404
asbag56
(g77
g58
NtRp3405
(dp3406
g61
(dp3407
g88
g89
ssg70
g3396
sg63
(lp3408
S':'
asbag56
(g77
g58
NtRp3409
(dp3410
g61
(dp3411
sg70
g3396
sg63
(lp3412
g56
(g57
g58
NtRp3413
(dp3414
g61
(dp3415
g69
I4
ssg70
g3409
sg63
(lp3416
S'Thu, 29 Sep 2011 20:19:52 GMT'
p3417
asbasbasbag56
(g72
g58
NtRp3418
(dp3419
g61
(dp3420
sg70
g3348
sg63
(lp3421
g56
(g77
g58
NtRp3422
(dp3423
g61
(dp3424
g81
g82
ssg70
g3418
sg63
(lp3425
S'Pragma'
p3426
asbag56
(g77
g58
NtRp3427
(dp3428
g61
(dp3429
g88
g89
ssg70
g3418
sg63
(lp3430
S':'
asbag56
(g77
g58
NtRp3431
(dp3432
g61
(dp3433
sg70
g3418
sg63
(lp3434
g56
(g57
g58
NtRp3435
(dp3436
g61
(dp3437
g69
I4
ssg70
g3431
sg63
(lp3438
S'no-cache'
p3439
asbasbasbag56
(g72
g58
NtRp3440
(dp3441
g61
(dp3442
sg70
g3348
sg63
(lp3443
g56
(g77
g58
NtRp3444
(dp3445
g61
(dp3446
g81
g82
ssg70
g3440
sg63
(lp3447
S'X-Powered-By'
p3448
asbag56
(g77
g58
NtRp3449
(dp3450
g61
(dp3451
g88
g89
ssg70
g3440
sg63
(lp3452
S':'
asbag56
(g77
g58
NtRp3453
(dp3454
g61
(dp3455
sg70
g3440
sg63
(lp3456
g56
(g57
g58
NtRp3457
(dp3458
g61
(dp3459
g69
I4
ssg70
g3453
sg63
(lp3460
S'web2py'
p3461
asbasbasbasbasbasbasbag56
(g72
g58
NtRp3462
(dp3463
g61
(dp3464
sg70
g2932
sg63
(lp3465
g56
(g77
g58
NtRp3466
(dp3467
g61
(dp3468
g81
g82
ssg70
g3462
sg63
(lp3469
S'menu'
p3470
asbag56
(g77
g58
NtRp3471
(dp3472
g61
(dp3473
g88
g89
ssg70
g3462
sg63
(lp3474
S':'
asbag56
(g77
g58
NtRp3475
(dp3476
g61
(dp3477
sg70
g3462
sg63
(lp3478
g56
(g57
g58
NtRp3479
(dp3480
g61
(dp3481
g69
I5
ssg70
g3475
sg63
(lp3482
g56
(g65
g58
NtRp3483
(dp3484
g61
(dp3485
g69
I4
ssg70
Nsg63
(lp3486
g56
(g72
g58
NtRp3487
(dp3488
g61
(dp3489
sg70
g3483
sg63
(lp3490
g56
(g77
g58
NtRp3491
(dp3492
g61
(dp3493
sg70
g3487
sg63
(lp3494
g56
(g57
g58
NtRp3495
(dp3496
g61
(dp3497
g69
I4
ssg70
g3491
sg63
(lp3498
g56
(g65
g58
NtRp3499
(dp3500
g61
(dp3501
g69
I3
ssg70
Nsg63
(lp3502
g56
(g72
g58
NtRp3503
(dp3504
g61
(dp3505
sg70
g3499
sg63
(lp3506
g56
(g77
g58
NtRp3507
(dp3508
g61
(dp3509
sg70
g3503
sg63
(lp3510
g56
(g57
g58
NtRp3511
(dp3512
g61
(dp3513
g69
I3
ssg70
g3507
sg63
(lp3514
cgluon.languages
lazyT_unpickle
p3515
(S's\x04\x00\x00\x00Home'
tRp3516
asbasbasbag56
(g72
g58
NtRp3517
(dp3518
g61
(dp3519
sg70
g3499
sg63
(lp3520
g56
(g77
g58
NtRp3521
(dp3522
g61
(dp3523
sg70
g3517
sg63
(lp3524
g56
(g57
g58
NtRp3525
(dp3526
g61
(dp3527
g69
I3
ssg70
g3521
sg63
(lp3528
g99
asbasbasbag56
(g72
g58
NtRp3529
(dp3530
g61
(dp3531
sg70
g3499
sg63
(lp3532
g56
(g77
g58
NtRp3533
(dp3534
g61
(dp3535
sg70
g3529
sg63
(lp3536
g56
(g57
g58
NtRp3537
(dp3538
g61
(dp3539
g69
I3
ssg70
g3533
sg63
(lp3540
S'/'
asbasbasbag56
(g72
g58
NtRp3541
(dp3542
g61
(dp3543
sg70
g3499
sg63
(lp3544
g56
(g77
g58
NtRp3545
(dp3546
g61
(dp3547
sg70
g3541
sg63
(lp3548
g56
(g57
g58
NtRp3549
(dp3550
g61
(dp3551
g69
I3
ssg70
g3545
sg63
(lp3552
g56
(g65
g58
NtRp3553
(dp3554
g61
(dp3555
g69
I2
ssg70
Nsg63
(lp3556
sbasbasbasbasbasbasbasbag56
(g72
g58
NtRp3557
(dp3558
g61
(dp3559
sg70
g3483
sg63
(lp3560
g56
(g77
g58
NtRp3561
(dp3562
g61
(dp3563
sg70
g3557
sg63
(lp3564
g56
(g57
g58
NtRp3565
(dp3566
g61
(dp3567
g69
I4
ssg70
g3561
sg63
(lp3568
g56
(g65
g58
NtRp3569
(dp3570
g61
(dp3571
g69
I3
ssg70
Nsg63
(lp3572
g56
(g72
g58
NtRp3573
(dp3574
g61
(dp3575
sg70
g3569
sg63
(lp3576
g56
(g77
g58
NtRp3577
(dp3578
g61
(dp3579
sg70
g3573
sg63
(lp3580
g56
(g57
g58
NtRp3581
(dp3582
g61
(dp3583
g69
I3
ssg70
g3577
sg63
(lp3584
g3515
(S's\x08\x00\x00\x00This App'
tRp3585
asbasbasbag56
(g72
g58
NtRp3586
(dp3587
g61
(dp3588
sg70
g3569
sg63
(lp3589
g56
(g77
g58
NtRp3590
(dp3591
g61
(dp3592
sg70
g3586
sg63
(lp3593
g56
(g57
g58
NtRp3594
(dp3595
g61
(dp3596
g69
I3
ssg70
g3590
sg63
(lp3597
g99
asbasbasbag56
(g72
g58
NtRp3598
(dp3599
g61
(dp3600
sg70
g3569
sg63
(lp3601
g56
(g77
g58
NtRp3602
(dp3603
g61
(dp3604
sg70
g3598
sg63
(lp3605
g56
(g57
g58
NtRp3606
(dp3607
g61
(dp3608
g69
I3
ssg70
g3602
sg63
(lp3609
S'/admin/design/welcome'
p3610
asbasbasbag56
(g72
g58
NtRp3611
(dp3612
g61
(dp3613
sg70
g3569
sg63
(lp3614
g56
(g77
g58
NtRp3615
(dp3616
g61
(dp3617
sg70
g3611
sg63
(lp3618
g56
(g57
g58
NtRp3619
(dp3620
g61
(dp3621
g69
I3
ssg70
g3615
sg63
(lp3622
g56
(g65
g58
NtRp3623
(dp3624
g61
(dp3625
g69
I2
ssg70
Nsg63
(lp3626
g56
(g72
g58
NtRp3627
(dp3628
g61
(dp3629
sg70
g3623
sg63
(lp3630
g56
(g77
g58
NtRp3631
(dp3632
g61
(dp3633
sg70
g3627
sg63
(lp3634
g56
(g57
g58
NtRp3635
(dp3636
g61
(dp3637
g69
I2
ssg70
g3631
sg63
(lp3638
g56
(g65
g58
NtRp3639
(dp3640
g61
(dp3641
g69
I1
ssg70
Nsg63
(lp3642
g56
(g72
g58
NtRp3643
(dp3644
g61
(dp3645
sg70
g3639
sg63
(lp3646
g56
(g77
g58
NtRp3647
(dp3648
g61
(dp3649
sg70
g3643
sg63
(lp3650
g56
(g57
g58
NtRp3651
(dp3652
g61
(dp3653
g69
I1
ssg70
g3647
sg63
(lp3654
g3515
(S's\n\x00\x00\x00Controller'
tRp3655
asbasbasbag56
(g72
g58
NtRp3656
(dp3657
g61
(dp3658
sg70
g3639
sg63
(lp3659
g56
(g77
g58
NtRp3660
(dp3661
g61
(dp3662
sg70
g3656
sg63
(lp3663
g56
(g57
g58
NtRp3664
(dp3665
g61
(dp3666
g69
I1
ssg70
g3660
sg63
(lp3667
I00
asbasbasbag56
(g72
g58
NtRp3668
(dp3669
g61
(dp3670
sg70
g3639
sg63
(lp3671
g56
(g77
g58
NtRp3672
(dp3673
g61
(dp3674
sg70
g3668
sg63
(lp3675
g56
(g57
g58
NtRp3676
(dp3677
g61
(dp3678
g69
I1
ssg70
g3672
sg63
(lp3679
S'/admin/edit/welcome/controllers/default.py'
p3680
asbasbasbasbasbasbasbag56
(g72
g58
NtRp3681
(dp3682
g61
(dp3683
sg70
g3623
sg63
(lp3684
g56
(g77
g58
NtRp3685
(dp3686
g61
(dp3687
sg70
g3681
sg63
(lp3688
g56
(g57
g58
NtRp3689
(dp3690
g61
(dp3691
g69
I2
ssg70
g3685
sg63
(lp3692
g56
(g65
g58
NtRp3693
(dp3694
g61
(dp3695
g69
I1
ssg70
Nsg63
(lp3696
g56
(g72
g58
NtRp3697
(dp3698
g61
(dp3699
sg70
g3693
sg63
(lp3700
g56
(g77
g58
NtRp3701
(dp3702
g61
(dp3703
sg70
g3697
sg63
(lp3704
g56
(g57
g58
NtRp3705
(dp3706
g61
(dp3707
g69
I1
ssg70
g3701
sg63
(lp3708
g3515
(S's\x04\x00\x00\x00View'
tRp3709
asbasbasbag56
(g72
g58
NtRp3710
(dp3711
g61
(dp3712
sg70
g3693
sg63
(lp3713
g56
(g77
g58
NtRp3714
(dp3715
g61
(dp3716
sg70
g3710
sg63
(lp3717
g56
(g57
g58
NtRp3718
(dp3719
g61
(dp3720
g69
I1
ssg70
g3714
sg63
(lp3721
I00
asbasbasbag56
(g72
g58
NtRp3722
(dp3723
g61
(dp3724
sg70
g3693
sg63
(lp3725
g56
(g77
g58
NtRp3726
(dp3727
g61
(dp3728
sg70
g3722
sg63
(lp3729
g56
(g57
g58
NtRp3730
(dp3731
g61
(dp3732
g69
I1
ssg70
g3726
sg63
(lp3733
S'/admin/edit/welcome/views/default/index.html'
p3734
asbasbasbasbasbasbasbag56
(g72
g58
NtRp3735
(dp3736
g61
(dp3737
sg70
g3623
sg63
(lp3738
g56
(g77
g58
NtRp3739
(dp3740
g61
(dp3741
sg70
g3735
sg63
(lp3742
g56
(g57
g58
NtRp3743
(dp3744
g61
(dp3745
g69
I2
ssg70
g3739
sg63
(lp3746
g56
(g65
g58
NtRp3747
(dp3748
g61
(dp3749
g69
I1
ssg70
Nsg63
(lp3750
g56
(g72
g58
NtRp3751
(dp3752
g61
(dp3753
sg70
g3747
sg63
(lp3754
g56
(g77
g58
NtRp3755
(dp3756
g61
(dp3757
sg70
g3751
sg63
(lp3758
g56
(g57
g58
NtRp3759
(dp3760
g61
(dp3761
g69
I1
ssg70
g3755
sg63
(lp3762
g3515
(S's\x06\x00\x00\x00Layout'
tRp3763
asbasbasbag56
(g72
g58
NtRp3764
(dp3765
g61
(dp3766
sg70
g3747
sg63
(lp3767
g56
(g77
g58
NtRp3768
(dp3769
g61
(dp3770
sg70
g3764
sg63
(lp3771
g56
(g57
g58
NtRp3772
(dp3773
g61
(dp3774
g69
I1
ssg70
g3768
sg63
(lp3775
I00
asbasbasbag56
(g72
g58
NtRp3776
(dp3777
g61
(dp3778
sg70
g3747
sg63
(lp3779
g56
(g77
g58
NtRp3780
(dp3781
g61
(dp3782
sg70
g3776
sg63
(lp3783
g56
(g57
g58
NtRp3784
(dp3785
g61
(dp3786
g69
I1
ssg70
g3780
sg63
(lp3787
S'/admin/edit/welcome/views/layout.html'
p3788
asbasbasbasbasbasbasbag56
(g72
g58
NtRp3789
(dp3790
g61
(dp3791
sg70
g3623
sg63
(lp3792
g56
(g77
g58
NtRp3793
(dp3794
g61
(dp3795
sg70
g3789
sg63
(lp3796
g56
(g57
g58
NtRp3797
(dp3798
g61
(dp3799
g69
I2
ssg70
g3793
sg63
(lp3800
g56
(g65
g58
NtRp3801
(dp3802
g61
(dp3803
g69
I1
ssg70
Nsg63
(lp3804
g56
(g72
g58
NtRp3805
(dp3806
g61
(dp3807
sg70
g3801
sg63
(lp3808
g56
(g77
g58
NtRp3809
(dp3810
g61
(dp3811
sg70
g3805
sg63
(lp3812
g56
(g57
g58
NtRp3813
(dp3814
g61
(dp3815
g69
I1
ssg70
g3809
sg63
(lp3816
g3515
(S's\n\x00\x00\x00Stylesheet'
tRp3817
asbasbasbag56
(g72
g58
NtRp3818
(dp3819
g61
(dp3820
sg70
g3801
sg63
(lp3821
g56
(g77
g58
NtRp3822
(dp3823
g61
(dp3824
sg70
g3818
sg63
(lp3825
g56
(g57
g58
NtRp3826
(dp3827
g61
(dp3828
g69
I1
ssg70
g3822
sg63
(lp3829
I00
asbasbasbag56
(g72
g58
NtRp3830
(dp3831
g61
(dp3832
sg70
g3801
sg63
(lp3833
g56
(g77
g58
NtRp3834
(dp3835
g61
(dp3836
sg70
g3830
sg63
(lp3837
g56
(g57
g58
NtRp3838
(dp3839
g61
(dp3840
g69
I1
ssg70
g3834
sg63
(lp3841
S'/admin/edit/welcome/static/base.css'
p3842
asbasbasbasbasbasbasbag56
(g72
g58
NtRp3843
(dp3844
g61
(dp3845
sg70
g3623
sg63
(lp3846
g56
(g77
g58
NtRp3847
(dp3848
g61
(dp3849
sg70
g3843
sg63
(lp3850
g56
(g57
g58
NtRp3851
(dp3852
g61
(dp3853
g69
I2
ssg70
g3847
sg63
(lp3854
g56
(g65
g58
NtRp3855
(dp3856
g61
(dp3857
g69
I1
ssg70
Nsg63
(lp3858
g56
(g72
g58
NtRp3859
(dp3860
g61
(dp3861
sg70
g3855
sg63
(lp3862
g56
(g77
g58
NtRp3863
(dp3864
g61
(dp3865
sg70
g3859
sg63
(lp3866
g56
(g57
g58
NtRp3867
(dp3868
g61
(dp3869
g69
I1
ssg70
g3863
sg63
(lp3870
g3515
(S's\x08\x00\x00\x00DB Model'
tRp3871
asbasbasbag56
(g72
g58
NtRp3872
(dp3873
g61
(dp3874
sg70
g3855
sg63
(lp3875
g56
(g77
g58
NtRp3876
(dp3877
g61
(dp3878
sg70
g3872
sg63
(lp3879
g56
(g57
g58
NtRp3880
(dp3881
g61
(dp3882
g69
I1
ssg70
g3876
sg63
(lp3883
I00
asbasbasbag56
(g72
g58
NtRp3884
(dp3885
g61
(dp3886
sg70
g3855
sg63
(lp3887
g56
(g77
g58
NtRp3888
(dp3889
g61
(dp3890
sg70
g3884
sg63
(lp3891
g56
(g57
g58
NtRp3892
(dp3893
g61
(dp3894
g69
I1
ssg70
g3888
sg63
(lp3895
S'/admin/edit/welcome/models/db.py'
p3896
asbasbasbasbasbasbasbag56
(g72
g58
NtRp3897
(dp3898
g61
(dp3899
sg70
g3623
sg63
(lp3900
g56
(g77
g58
NtRp3901
(dp3902
g61
(dp3903
sg70
g3897
sg63
(lp3904
g56
(g57
g58
NtRp3905
(dp3906
g61
(dp3907
g69
I2
ssg70
g3901
sg63
(lp3908
g56
(g65
g58
NtRp3909
(dp3910
g61
(dp3911
g69
I1
ssg70
Nsg63
(lp3912
g56
(g72
g58
NtRp3913
(dp3914
g61
(dp3915
sg70
g3909
sg63
(lp3916
g56
(g77
g58
NtRp3917
(dp3918
g61
(dp3919
sg70
g3913
sg63
(lp3920
g56
(g57
g58
NtRp3921
(dp3922
g61
(dp3923
g69
I1
ssg70
g3917
sg63
(lp3924
g3515
(S's\n\x00\x00\x00Menu Model'
tRp3925
asbasbasbag56
(g72
g58
NtRp3926
(dp3927
g61
(dp3928
sg70
g3909
sg63
(lp3929
g56
(g77
g58
NtRp3930
(dp3931
g61
(dp3932
sg70
g3926
sg63
(lp3933
g56
(g57
g58
NtRp3934
(dp3935
g61
(dp3936
g69
I1
ssg70
g3930
sg63
(lp3937
I00
asbasbasbag56
(g72
g58
NtRp3938
(dp3939
g61
(dp3940
sg70
g3909
sg63
(lp3941
g56
(g77
g58
NtRp3942
(dp3943
g61
(dp3944
sg70
g3938
sg63
(lp3945
g56
(g57
g58
NtRp3946
(dp3947
g61
(dp3948
g69
I1
ssg70
g3942
sg63
(lp3949
S'/admin/edit/welcome/models/menu.py'
p3950
asbasbasbasbasbasbasbag56
(g72
g58
NtRp3951
(dp3952
g61
(dp3953
sg70
g3623
sg63
(lp3954
g56
(g77
g58
NtRp3955
(dp3956
g61
(dp3957
sg70
g3951
sg63
(lp3958
g56
(g57
g58
NtRp3959
(dp3960
g61
(dp3961
g69
I2
ssg70
g3955
sg63
(lp3962
g56
(g65
g58
NtRp3963
(dp3964
g61
(dp3965
g69
I1
ssg70
Nsg63
(lp3966
g56
(g72
g58
NtRp3967
(dp3968
g61
(dp3969
sg70
g3963
sg63
(lp3970
g56
(g77
g58
NtRp3971
(dp3972
g61
(dp3973
sg70
g3967
sg63
(lp3974
g56
(g57
g58
NtRp3975
(dp3976
g61
(dp3977
g69
I1
ssg70
g3971
sg63
(lp3978
g3515
(S's\x08\x00\x00\x00Database'
tRp3979
asbasbasbag56
(g72
g58
NtRp3980
(dp3981
g61
(dp3982
sg70
g3963
sg63
(lp3983
g56
(g77
g58
NtRp3984
(dp3985
g61
(dp3986
sg70
g3980
sg63
(lp3987
g56
(g57
g58
NtRp3988
(dp3989
g61
(dp3990
g69
I1
ssg70
g3984
sg63
(lp3991
I00
asbasbasbag56
(g72
g58
NtRp3992
(dp3993
g61
(dp3994
sg70
g3963
sg63
(lp3995
g56
(g77
g58
NtRp3996
(dp3997
g61
(dp3998
sg70
g3992
sg63
(lp3999
g56
(g57
g58
NtRp4000
(dp4001
g61
(dp4002
g69
I1
ssg70
g3996
sg63
(lp4003
S'/appadmin'
p4004
asbasbasbasbasbasbasbag56
(g72
g58
NtRp4005
(dp4006
g61
(dp4007
sg70
g3623
sg63
(lp4008
g56
(g77
g58
NtRp4009
(dp4010
g61
(dp4011
sg70
g4005
sg63
(lp4012
g56
(g57
g58
NtRp4013
(dp4014
g61
(dp4015
g69
I2
ssg70
g4009
sg63
(lp4016
g56
(g65
g58
NtRp4017
(dp4018
g61
(dp4019
g69
I1
ssg70
Nsg63
(lp4020
g56
(g72
g58
NtRp4021
(dp4022
g61
(dp4023
sg70
g4017
sg63
(lp4024
g56
(g77
g58
NtRp4025
(dp4026
g61
(dp4027
sg70
g4021
sg63
(lp4028
g56
(g57
g58
NtRp4029
(dp4030
g61
(dp4031
g69
I1
ssg70
g4025
sg63
(lp4032
g3515
(S's\x06\x00\x00\x00Errors'
tRp4033
asbasbasbag56
(g72
g58
NtRp4034
(dp4035
g61
(dp4036
sg70
g4017
sg63
(lp4037
g56
(g77
g58
NtRp4038
(dp4039
g61
(dp4040
sg70
g4034
sg63
(lp4041
g56
(g57
g58
NtRp4042
(dp4043
g61
(dp4044
g69
I1
ssg70
g4038
sg63
(lp4045
I00
asbasbasbag56
(g72
g58
NtRp4046
(dp4047
g61
(dp4048
sg70
g4017
sg63
(lp4049
g56
(g77
g58
NtRp4050
(dp4051
g61
(dp4052
sg70
g4046
sg63
(lp4053
g56
(g57
g58
NtRp4054
(dp4055
g61
(dp4056
g69
I1
ssg70
g4050
sg63
(lp4057
S'/admin/errors/welcome'
p4058
asbasbasbasbasbasbasbag56
(g72
g58
NtRp4059
(dp4060
g61
(dp4061
sg70
g3623
sg63
(lp4062
g56
(g77
g58
NtRp4063
(dp4064
g61
(dp4065
sg70
g4059
sg63
(lp4066
g56
(g57
g58
NtRp4067
(dp4068
g61
(dp4069
g69
I2
ssg70
g4063
sg63
(lp4070
g56
(g65
g58
NtRp4071
(dp4072
g61
(dp4073
g69
I1
ssg70
Nsg63
(lp4074
g56
(g72
g58
NtRp4075
(dp4076
g61
(dp4077
sg70
g4071
sg63
(lp4078
g56
(g77
g58
NtRp4079
(dp4080
g61
(dp4081
sg70
g4075
sg63
(lp4082
g56
(g57
g58
NtRp4083
(dp4084
g61
(dp4085
g69
I1
ssg70
g4079
sg63
(lp4086
g3515
(S's\x05\x00\x00\x00About'
tRp4087
asbasbasbag56
(g72
g58
NtRp4088
(dp4089
g61
(dp4090
sg70
g4071
sg63
(lp4091
g56
(g77
g58
NtRp4092
(dp4093
g61
(dp4094
sg70
g4088
sg63
(lp4095
g56
(g57
g58
NtRp4096
(dp4097
g61
(dp4098
g69
I1
ssg70
g4092
sg63
(lp4099
I00
asbasbasbag56
(g72
g58
NtRp4100
(dp4101
g61
(dp4102
sg70
g4071
sg63
(lp4103
g56
(g77
g58
NtRp4104
(dp4105
g61
(dp4106
sg70
g4100
sg63
(lp4107
g56
(g57
g58
NtRp4108
(dp4109
g61
(dp4110
g69
I1
ssg70
g4104
sg63
(lp4111
S'/admin/about/welcome'
p4112
asbasbasbasbasbasbasbasbasbasbasbasbasbasbasbag56
(g72
g58
NtRp4113
(dp4114
g61
(dp4115
sg70
g3483
sg63
(lp4116
g56
(g77
g58
NtRp4117
(dp4118
g61
(dp4119
sg70
g4113
sg63
(lp4120
g56
(g57
g58
NtRp4121
(dp4122
g61
(dp4123
g69
I4
ssg70
g4117
sg63
(lp4124
g56
(g65
g58
NtRp4125
(dp4126
g61
(dp4127
g69
I3
ssg70
Nsg63
(lp4128
g56
(g72
g58
NtRp4129
(dp4130
g61
(dp4131
sg70
g4125
sg63
(lp4132
g56
(g77
g58
NtRp4133
(dp4134
g61
(dp4135
sg70
g4129
sg63
(lp4136
g56
(g57
g58
NtRp4137
(dp4138
g61
(dp4139
g69
I3
ssg70
g4133
sg63
(lp4140
g3515
(S's\t\x00\x00\x00Resources'
tRp4141
asbasbasbag56
(g72
g58
NtRp4142
(dp4143
g61
(dp4144
sg70
g4125
sg63
(lp4145
g56
(g77
g58
NtRp4146
(dp4147
g61
(dp4148
sg70
g4142
sg63
(lp4149
g56
(g57
g58
NtRp4150
(dp4151
g61
(dp4152
g69
I3
ssg70
g4146
sg63
(lp4153
g99
asbasbasbag56
(g72
g58
NtRp4154
(dp4155
g61
(dp4156
sg70
g4125
sg63
(lp4157
g56
(g77
g58
NtRp4158
(dp4159
g61
(dp4160
sg70
g4154
sg63
(lp4161
g56
(g57
g58
NtRp4162
(dp4163
g61
(dp4164
g69
I3
ssg70
g4158
sg63
(lp4165
S'None'
p4166
asbasbasbag56
(g72
g58
NtRp4167
(dp4168
g61
(dp4169
sg70
g4125
sg63
(lp4170
g56
(g77
g58
NtRp4171
(dp4172
g61
(dp4173
sg70
g4167
sg63
(lp4174
g56
(g57
g58
NtRp4175
(dp4176
g61
(dp4177
g69
I3
ssg70
g4171
sg63
(lp4178
g56
(g65
g58
NtRp4179
(dp4180
g61
(dp4181
g69
I2
ssg70
Nsg63
(lp4182
g56
(g72
g58
NtRp4183
(dp4184
g61
(dp4185
sg70
g4179
sg63
(lp4186
g56
(g77
g58
NtRp4187
(dp4188
g61
(dp4189
sg70
g4183
sg63
(lp4190
g56
(g57
g58
NtRp4191
(dp4192
g61
(dp4193
g69
I2
ssg70
g4187
sg63
(lp4194
g56
(g65
g58
NtRp4195
(dp4196
g61
(dp4197
g69
I1
ssg70
Nsg63
(lp4198
g56
(g72
g58
NtRp4199
(dp4200
g61
(dp4201
sg70
g4195
sg63
(lp4202
g56
(g77
g58
NtRp4203
(dp4204
g61
(dp4205
sg70
g4199
sg63
(lp4206
g56
(g57
g58
NtRp4207
(dp4208
g61
(dp4209
g69
I1
ssg70
g4203
sg63
(lp4210
g3515
(S's\r\x00\x00\x00Documentation'
tRp4211
asbasbasbag56
(g72
g58
NtRp4212
(dp4213
g61
(dp4214
sg70
g4195
sg63
(lp4215
g56
(g77
g58
NtRp4216
(dp4217
g61
(dp4218
sg70
g4212
sg63
(lp4219
g56
(g57
g58
NtRp4220
(dp4221
g61
(dp4222
g69
I1
ssg70
g4216
sg63
(lp4223
I00
asbasbasbag56
(g72
g58
NtRp4224
(dp4225
g61
(dp4226
sg70
g4195
sg63
(lp4227
g56
(g77
g58
NtRp4228
(dp4229
g61
(dp4230
sg70
g4224
sg63
(lp4231
g56
(g57
g58
NtRp4232
(dp4233
g61
(dp4234
g69
I1
ssg70
g4228
sg63
(lp4235
S'http://www.web2py.com/book'
p4236
asbasbasbag56
(g72
g58
NtRp4237
(dp4238
g61
(dp4239
sg70
g4195
sg63
(lp4240
g56
(g77
g58
NtRp4241
(dp4242
g61
(dp4243
sg70
g4237
sg63
(lp4244
g56
(g57
g58
NtRp4245
(dp4246
g61
(dp4247
g69
I1
ssg70
g4241
sg63
(lp4248
(lp4249
(g3515
(S's\x07\x00\x00\x00Preface'
tRp4250
I00
S'http://www.web2py.com/book/default/chapter/00'
p4251
tp4252
a(g3515
(S's\x0c\x00\x00\x00Introduction'
tRp4253
I00
S'http://www.web2py.com/book/default/chapter/01'
p4254
tp4255
a(g3515
(S's\x06\x00\x00\x00Python'
tRp4256
I00
S'http://www.web2py.com/book/default/chapter/02'
p4257
tp4258
a(g3515
(S's\x08\x00\x00\x00Overview'
tRp4259
I00
S'http://www.web2py.com/book/default/chapter/03'
p4260
tp4261
a(g3515
(S's\x08\x00\x00\x00The Core'
tRp4262
I00
S'http://www.web2py.com/book/default/chapter/04'
p4263
tp4264
a(g3515
(S's\t\x00\x00\x00The Views'
tRp4265
I00
S'http://www.web2py.com/book/default/chapter/05'
p4266
tp4267
a(g3515
(S's\x08\x00\x00\x00Database'
tRp4268
I00
S'http://www.web2py.com/book/default/chapter/06'
p4269
tp4270
a(g3515
(S's\x14\x00\x00\x00Forms and Validators'
tRp4271
I00
S'http://www.web2py.com/book/default/chapter/07'
p4272
tp4273
a(g3515
(S's\x0e\x00\x00\x00Access Control'
tRp4274
I00
S'http://www.web2py.com/book/default/chapter/08'
p4275
tp4276
a(g3515
(S's\x08\x00\x00\x00Services'
tRp4277
I00
S'http://www.web2py.com/book/default/chapter/09'
p4278
tp4279
a(g3515
(S's\x0c\x00\x00\x00Ajax Recipes'
tRp4280
I00
S'http://www.web2py.com/book/default/chapter/10'
p4281
tp4282
a(g3515
(S's\x12\x00\x00\x00Deployment Recipes'
tRp4283
I00
S'http://www.web2py.com/book/default/chapter/11'
p4284
tp4285
a(g3515
(S's\r\x00\x00\x00Other Recipes'
tRp4286
I00
S'http://www.web2py.com/book/default/chapter/12'
p4287
tp4288
a(g3515
(S's\r\x00\x00\x00Buy this book'
tRp4289
I00
S'http://stores.lulu.com/web2py'
p4290
tp4291
aasbasbasbasbasbasbasbag56
(g72
g58
NtRp4292
(dp4293
g61
(dp4294
sg70
g4179
sg63
(lp4295
g56
(g77
g58
NtRp4296
(dp4297
g61
(dp4298
sg70
g4292
sg63
(lp4299
g56
(g57
g58
NtRp4300
(dp4301
g61
(dp4302
g69
I2
ssg70
g4296
sg63
(lp4303
g56
(g65
g58
NtRp4304
(dp4305
g61
(dp4306
g69
I1
ssg70
Nsg63
(lp4307
g56
(g72
g58
NtRp4308
(dp4309
g61
(dp4310
sg70
g4304
sg63
(lp4311
g56
(g77
g58
NtRp4312
(dp4313
g61
(dp4314
sg70
g4308
sg63
(lp4315
g56
(g57
g58
NtRp4316
(dp4317
g61
(dp4318
g69
I1
ssg70
g4312
sg63
(lp4319
g3515
(S's\t\x00\x00\x00Community'
tRp4320
asbasbasbag56
(g72
g58
NtRp4321
(dp4322
g61
(dp4323
sg70
g4304
sg63
(lp4324
g56
(g77
g58
NtRp4325
(dp4326
g61
(dp4327
sg70
g4321
sg63
(lp4328
g56
(g57
g58
NtRp4329
(dp4330
g61
(dp4331
g69
I1
ssg70
g4325
sg63
(lp4332
I00
asbasbasbag56
(g72
g58
NtRp4333
(dp4334
g61
(dp4335
sg70
g4304
sg63
(lp4336
g56
(g77
g58
NtRp4337
(dp4338
g61
(dp4339
sg70
g4333
sg63
(lp4340
g56
(g57
g58
NtRp4341
(dp4342
g61
(dp4343
g69
I1
ssg70
g4337
sg63
(lp4344
Nasbasbasbag56
(g72
g58
NtRp4345
(dp4346
g61
(dp4347
sg70
g4304
sg63
(lp4348
g56
(g77
g58
NtRp4349
(dp4350
g61
(dp4351
sg70
g4345
sg63
(lp4352
g56
(g57
g58
NtRp4353
(dp4354
g61
(dp4355
g69
I1
ssg70
g4349
sg63
(lp4356
(lp4357
(g3515
(S's\x06\x00\x00\x00Groups'
tRp4358
I00
S'http://www.web2py.com/examples/default/usergroups'
p4359
tp4360
a(g3515
(S's\x07\x00\x00\x00Twitter'
tRp4361
I00
S'http://twitter.com/web2py'
p4362
tp4363
a(g3515
(S's\t\x00\x00\x00Live chat'
tRp4364
I00
S'http://mibbit.com/?channel=%23web2py&server=irc.mibbit.net'
p4365
tp4366
a(g3515
(S's\n\x00\x00\x00User Voice'
tRp4367
I00
S'http://web2py.uservoice.com/'
p4368
tp4369
aasbasbasbasbasbasbasbag56
(g72
g58
NtRp4370
(dp4371
g61
(dp4372
sg70
g4179
sg63
(lp4373
g56
(g77
g58
NtRp4374
(dp4375
g61
(dp4376
sg70
g4370
sg63
(lp4377
g56
(g57
g58
NtRp4378
(dp4379
g61
(dp4380
g69
I2
ssg70
g4374
sg63
(lp4381
g56
(g65
g58
NtRp4382
(dp4383
g61
(dp4384
g69
I1
ssg70
Nsg63
(lp4385
g56
(g72
g58
NtRp4386
(dp4387
g61
(dp4388
sg70
g4382
sg63
(lp4389
g56
(g77
g58
NtRp4390
(dp4391
g61
(dp4392
sg70
g4386
sg63
(lp4393
g56
(g57
g58
NtRp4394
(dp4395
g61
(dp4396
g69
I1
ssg70
g4390
sg63
(lp4397
g3515
(S's\x06\x00\x00\x00Web2py'
tRp4398
asbasbasbag56
(g72
g58
NtRp4399
(dp4400
g61
(dp4401
sg70
g4382
sg63
(lp4402
g56
(g77
g58
NtRp4403
(dp4404
g61
(dp4405
sg70
g4399
sg63
(lp4406
g56
(g57
g58
NtRp4407
(dp4408
g61
(dp4409
g69
I1
ssg70
g4403
sg63
(lp4410
I00
asbasbasbag56
(g72
g58
NtRp4411
(dp4412
g61
(dp4413
sg70
g4382
sg63
(lp4414
g56
(g77
g58
NtRp4415
(dp4416
g61
(dp4417
sg70
g4411
sg63
(lp4418
g56
(g57
g58
NtRp4419
(dp4420
g61
(dp4421
g69
I1
ssg70
g4415
sg63
(lp4422
S'http://www.web2py.com'
p4423
asbasbasbag56
(g72
g58
NtRp4424
(dp4425
g61
(dp4426
sg70
g4382
sg63
(lp4427
g56
(g77
g58
NtRp4428
(dp4429
g61
(dp4430
sg70
g4424
sg63
(lp4431
g56
(g57
g58
NtRp4432
(dp4433
g61
(dp4434
g69
I1
ssg70
g4428
sg63
(lp4435
(lp4436
(g3515
(S's\x08\x00\x00\x00Download'
tRp4437
I00
S'http://www.web2py.com/examples/default/download'
p4438
tp4439
a(g3515
(S's\x07\x00\x00\x00Support'
tRp4440
I00
S'http://www.web2py.com/examples/default/support'
p4441
tp4442
a(g3515
(S's\x0e\x00\x00\x00Quick Examples'
tRp4443
I00
S'http://web2py.com/examples/default/examples'
p4444
tp4445
a(g3515
(S's\x03\x00\x00\x00FAQ'
tRp4446
I00
S'http://web2py.com/AlterEgo'
p4447
tp4448
a(g3515
(S's\x11\x00\x00\x00Free Applications'
tRp4449
I00
S'http://web2py.com/appliances'
p4450
tp4451
a(g3515
(S's\x07\x00\x00\x00Plugins'
tRp4452
I00
S'http://web2py.com/plugins'
p4453
tp4454
a(g3515
(S's\x07\x00\x00\x00Recipes'
tRp4455
I00
S'http://web2pyslices.com/'
p4456
tp4457
a(g3515
(S's\x04\x00\x00\x00Demo'
tRp4458
I00
S'http://web2py.com/demo_admin'
p4459
tp4460
a(g3515
(S's\x08\x00\x00\x00Semantic'
tRp4461
I00
S'http://web2py.com/semantic'
p4462
tp4463
a(g3515
(S's\x07\x00\x00\x00Layouts'
tRp4464
I00
S'http://web2py.com/layouts'
p4465
tp4466
a(g3515
(S's\x06\x00\x00\x00Videos'
tRp4467
I00
S'http://www.web2py.com/examples/default/videos/'
p4468
tp4469
aasbasbasbasbasbasbasbasbasbasbasbasbasbasbasbasbasbasbasbag56
(g72
g58
NtRp4470
(dp4471
g61
(dp4472
sg70
g2932
sg63
(lp4473
g56
(g77
g58
NtRp4474
(dp4475
g61
(dp4476
g81
g82
ssg70
g4470
sg63
(lp4477
S'meta'
p4478
asbag56
(g77
g58
NtRp4479
(dp4480
g61
(dp4481
g88
g89
ssg70
g4470
sg63
(lp4482
S':'
asbag56
(g77
g58
NtRp4483
(dp4484
g61
(dp4485
sg70
g4470
sg63
(lp4486
g56
(g57
g58
NtRp4487
(dp4488
g61
(dp4489
g69
I5
ssg70
g4483
sg63
(lp4490
g56
(g65
g58
NtRp4491
(dp4492
g61
(dp4493
g69
I4
ssg70
Nsg63
(lp4494
g56
(g72
g58
NtRp4495
(dp4496
g61
(dp4497
sg70
g4491
sg63
(lp4498
g56
(g77
g58
NtRp4499
(dp4500
g61
(dp4501
g81
g82
ssg70
g4495
sg63
(lp4502
S'author'
p4503
asbag56
(g77
g58
NtRp4504
(dp4505
g61
(dp4506
g88
g89
ssg70
g4495
sg63
(lp4507
S':'
asbag56
(g77
g58
NtRp4508
(dp4509
g61
(dp4510
sg70
g4495
sg63
(lp4511
g56
(g57
g58
NtRp4512
(dp4513
g61
(dp4514
g69
I4
ssg70
g4508
sg63
(lp4515
S'Your Name <you@example.com>'
p4516
asbasbasbag56
(g72
g58
NtRp4517
(dp4518
g61
(dp4519
sg70
g4491
sg63
(lp4520
g56
(g77
g58
NtRp4521
(dp4522
g61
(dp4523
g81
g82
ssg70
g4517
sg63
(lp4524
S'copyright'
p4525
asbag56
(g77
g58
NtRp4526
(dp4527
g61
(dp4528
g88
g89
ssg70
g4517
sg63
(lp4529
S':'
asbag56
(g77
g58
NtRp4530
(dp4531
g61
(dp4532
sg70
g4517
sg63
(lp4533
g56
(g57
g58
NtRp4534
(dp4535
g61
(dp4536
g69
I4
ssg70
g4530
sg63
(lp4537
S'Copyright 2011'
p4538
asbasbasbag56
(g72
g58
NtRp4539
(dp4540
g61
(dp4541
sg70
g4491
sg63
(lp4542
g56
(g77
g58
NtRp4543
(dp4544
g61
(dp4545
g81
g82
ssg70
g4539
sg63
(lp4546
S'description'
p4547
asbag56
(g77
g58
NtRp4548
(dp4549
g61
(dp4550
g88
g89
ssg70
g4539
sg63
(lp4551
S':'
asbag56
(g77
g58
NtRp4552
(dp4553
g61
(dp4554
sg70
g4539
sg63
(lp4555
g56
(g57
g58
NtRp4556
(dp4557
g61
(dp4558
g69
I4
ssg70
g4552
sg63
(lp4559
S'a cool new app'
p4560
asbasbasbag56
(g72
g58
NtRp4561
(dp4562
g61
(dp4563
sg70
g4491
sg63
(lp4564
g56
(g77
g58
NtRp4565
(dp4566
g61
(dp4567
g81
g82
ssg70
g4561
sg63
(lp4568
S'generator'
p4569
asbag56
(g77
g58
NtRp4570
(dp4571
g61
(dp4572
g88
g89
ssg70
g4561
sg63
(lp4573
S':'
asbag56
(g77
g58
NtRp4574
(dp4575
g61
(dp4576
sg70
g4561
sg63
(lp4577
g56
(g57
g58
NtRp4578
(dp4579
g61
(dp4580
g69
I4
ssg70
g4574
sg63
(lp4581
S'Web2py Web Framework'
p4582
asbasbasbag56
(g72
g58
NtRp4583
(dp4584
g61
(dp4585
sg70
g4491
sg63
(lp4586
g56
(g77
g58
NtRp4587
(dp4588
g61
(dp4589
g81
g82
ssg70
g4583
sg63
(lp4590
S'keywords'
p4591
asbag56
(g77
g58
NtRp4592
(dp4593
g61
(dp4594
g88
g89
ssg70
g4583
sg63
(lp4595
S':'
asbag56
(g77
g58
NtRp4596
(dp4597
g61
(dp4598
sg70
g4583
sg63
(lp4599
g56
(g57
g58
NtRp4600
(dp4601
g61
(dp4602
g69
I4
ssg70
g4596
sg63
(lp4603
S'web2py, python, framework'
p4604
asbasbasbasbasbasbasbag56
(g72
g58
NtRp4605
(dp4606
g61
(dp4607
sg70
g2932
sg63
(lp4608
g56
(g77
g58
NtRp4609
(dp4610
g61
(dp4611
g81
g82
ssg70
g4605
sg63
(lp4612
S'postprocessing'
p4613
asbag56
(g77
g58
NtRp4614
(dp4615
g61
(dp4616
g88
g89
ssg70
g4605
sg63
(lp4617
S':'
asbag56
(g77
g58
NtRp4618
(dp4619
g61
(dp4620
sg70
g4605
sg63
(lp4621
g56
(g57
g58
NtRp4622
(dp4623
g61
(dp4624
g69
I5
ssg70
g4618
sg63
(lp4625
g56
(g65
g58
NtRp4626
(dp4627
g61
(dp4628
g69
I4
ssg70
Nsg63
(lp4629
sbasbasbasbag56
(g72
g58
NtRp4630
(dp4631
g61
(dp4632
sg70
g2932
sg63
(lp4633
g56
(g77
g58
NtRp4634
(dp4635
g61
(dp4636
g81
g82
ssg70
g4630
sg63
(lp4637
S'session_filename'
p4638
asbag56
(g77
g58
NtRp4639
(dp4640
g61
(dp4641
g88
g89
ssg70
g4630
sg63
(lp4642
S':'
asbag56
(g77
g58
NtRp4643
(dp4644
g61
(dp4645
sg70
g4630
sg63
(lp4646
g56
(g57
g58
NtRp4647
(dp4648
g61
(dp4649
g69
I5
ssg70
g4643
sg63
(lp4650
S'/Users/excon/Sites/dreamscape/applications/welcome/sessions/127.0.0.1-64fb0b65-5699-447c-a89e-3160006238dc'
p4651
asbasbasbag56
(g72
g58
NtRp4652
(dp4653
g61
(dp4654
sg70
g2932
sg63
(lp4655
g56
(g77
g58
NtRp4656
(dp4657
g61
(dp4658
g81
g82
ssg70
g4652
sg63
(lp4659
S'session_id'
p4660
asbag56
(g77
g58
NtRp4661
(dp4662
g61
(dp4663
g88
g89
ssg70
g4652
sg63
(lp4664
S':'
asbag56
(g77
g58
NtRp4665
(dp4666
g61
(dp4667
sg70
g4652
sg63
(lp4668
g56
(g57
g58
NtRp4669
(dp4670
g61
(dp4671
g69
I5
ssg70
g4665
sg63
(lp4672
S'127.0.0.1-64fb0b65-5699-447c-a89e-3160006238dc'
p4673
asbasbasbag56
(g72
g58
NtRp4674
(dp4675
g61
(dp4676
sg70
g2932
sg63
(lp4677
g56
(g77
g58
NtRp4678
(dp4679
g61
(dp4680
g81
g82
ssg70
g4674
sg63
(lp4681
S'session_id_name'
p4682
asbag56
(g77
g58
NtRp4683
(dp4684
g61
(dp4685
g88
g89
ssg70
g4674
sg63
(lp4686
S':'
asbag56
(g77
g58
NtRp4687
(dp4688
g61
(dp4689
sg70
g4674
sg63
(lp4690
g56
(g57
g58
NtRp4691
(dp4692
g61
(dp4693
g69
I5
ssg70
g4687
sg63
(lp4694
g2989
asbasbasbag56
(g72
g58
NtRp4695
(dp4696
g61
(dp4697
sg70
g2932
sg63
(lp4698
g56
(g77
g58
NtRp4699
(dp4700
g61
(dp4701
g81
g82
ssg70
g4695
sg63
(lp4702
S'session_new'
p4703
asbag56
(g77
g58
NtRp4704
(dp4705
g61
(dp4706
g88
g89
ssg70
g4695
sg63
(lp4707
S':'
asbag56
(g77
g58
NtRp4708
(dp4709
g61
(dp4710
sg70
g4695
sg63
(lp4711
g56
(g57
g58
NtRp4712
(dp4713
g61
(dp4714
g69
I5
ssg70
g4708
sg63
(lp4715
g1514
asbasbasbag56
(g72
g58
NtRp4716
(dp4717
g61
(dp4718
sg70
g2932
sg63
(lp4719
g56
(g77
g58
NtRp4720
(dp4721
g61
(dp4722
g81
g82
ssg70
g4716
sg63
(lp4723
S'status'
p4724
asbag56
(g77
g58
NtRp4725
(dp4726
g61
(dp4727
g88
g89
ssg70
g4716
sg63
(lp4728
S':'
asbag56
(g77
g58
NtRp4729
(dp4730
g61
(dp4731
sg70
g4716
sg63
(lp4732
g56
(g57
g58
NtRp4733
(dp4734
g61
(dp4735
g69
I5
ssg70
g4729
sg63
(lp4736
S'200'
p4737
asbasbasbag56
(g72
g58
NtRp4738
(dp4739
g61
(dp4740
sg70
g2932
sg63
(lp4741
g56
(g77
g58
NtRp4742
(dp4743
g61
(dp4744
g81
g82
ssg70
g4738
sg63
(lp4745
S'subtitle'
p4746
asbag56
(g77
g58
NtRp4747
(dp4748
g61
(dp4749
g88
g89
ssg70
g4738
sg63
(lp4750
S':'
asbag56
(g77
g58
NtRp4751
(dp4752
g61
(dp4753
sg70
g4738
sg63
(lp4754
g56
(g57
g58
NtRp4755
(dp4756
g61
(dp4757
g69
I5
ssg70
g4751
sg63
(lp4758
g3515
(S's\r\x00\x00\x00customize me!'
tRp4759
asbasbasbag56
(g72
g58
NtRp4760
(dp4761
g61
(dp4762
sg70
g2932
sg63
(lp4763
g56
(g77
g58
NtRp4764
(dp4765
g61
(dp4766
g81
g82
ssg70
g4760
sg63
(lp4767
S'title'
p4768
asbag56
(g77
g58
NtRp4769
(dp4770
g61
(dp4771
g88
g89
ssg70
g4760
sg63
(lp4772
S':'
asbag56
(g77
g58
NtRp4773
(dp4774
g61
(dp4775
sg70
g4760
sg63
(lp4776
g56
(g57
g58
NtRp4777
(dp4778
g61
(dp4779
g69
I5
ssg70
g4773
sg63
(lp4780
g121
asbasbasbag56
(g72
g58
NtRp4781
(dp4782
g61
(dp4783
sg70
g2932
sg63
(lp4784
g56
(g77
g58
NtRp4785
(dp4786
g61
(dp4787
g81
g82
ssg70
g4781
sg63
(lp4788
g2157
asbag56
(g77
g58
NtRp4789
(dp4790
g61
(dp4791
g88
g89
ssg70
g4781
sg63
(lp4792
S':'
asbag56
(g77
g58
NtRp4793
(dp4794
g61
(dp4795
sg70
g4781
sg63
(lp4796
g56
(g57
g58
NtRp4797
(dp4798
g61
(dp4799
g69
I5
ssg70
g4793
sg63
(lp4800
g2170
asbasbasbag56
(g72
g58
NtRp4801
(dp4802
g61
(dp4803
sg70
g2932
sg63
(lp4804
g56
(g77
g58
NtRp4805
(dp4806
g61
(dp4807
g81
g82
ssg70
g4801
sg63
(lp4808
S'view'
p4809
asbag56
(g77
g58
NtRp4810
(dp4811
g61
(dp4812
g88
g89
ssg70
g4801
sg63
(lp4813
S':'
asbag56
(g77
g58
NtRp4814
(dp4815
g61
(dp4816
sg70
g4801
sg63
(lp4817
g56
(g57
g58
NtRp4818
(dp4819
g61
(dp4820
g69
I5
ssg70
g4814
sg63
(lp4821
S'default/index.html'
p4822
asbasbasbasbasbsS'locals'
p4823
(dp4824
S'Service'
p4825
S"<class 'gluon.tools.Service'>"
p4826
sS'OBJECT'
p4827
S"<class 'gluon.html.OBJECT'>"
p4828
sS'SQLDB'
p4829
S"<class 'gluon.dal.DAL'>"
p4830
sg2914
S"<Storage {'_Session__hash': '\\xc8[\\xd5\\xc1#\\xd8e\\x10\\xe3\\x06\\x0ba\\xddT\\x92m'}>"
p4831
sS'LINK'
p4832
S"<class 'gluon.html.LINK'>"
p4833
sS'BR'
p4834
S"<class 'gluon.html.BR'>"
p4835
sS'local_import'
p4836
S'<function <lambda> at 0x1013d5140>'
p4837
sS'OPTGROUP'
p4838
S"<class 'gluon.html.OPTGROUP'>"
p4839
sS'PRE'
p4840
S"<class 'gluon.html.PRE'>"
p4841
sS'IS_INT_IN_RANGE'
p4842
S"<class 'gluon.validators.IS_INT_IN_RANGE'>"
p4843
sS'left_sidebar_enabled'
p4844
g99
sS'IS_LOWER'
p4845
S"<class 'gluon.validators.IS_LOWER'>"
p4846
sS'IS_STRONG'
p4847
S"<class 'gluon.validators.IS_STRONG'>"
p4848
sS'cache'
p4849
S'<gluon.cache.Cache object at 0x1013cdb90>'
p4850
sS'IS_IN_DB'
p4851
S"<class 'gluon.validators.IS_IN_DB'>"
p4852
sS'TAG'
p4853
S'<gluon.html.__TAG__ object at 0x10071d410>'
p4854
sS'SQLField'
p4855
S"<class 'gluon.dal.Field'>"
p4856
sS'mail'
p4857
S'<gluon.tools.Mail object at 0x1013cf250>'
p4858
sS'BODY'
p4859
S"<class 'gluon.html.BODY'>"
p4860
sS'IS_DATE_IN_RANGE'
p4861
S"<class 'gluon.validators.IS_DATE_IN_RANGE'>"
p4862
sS'TH'
p4863
S"<class 'gluon.html.TH'>"
p4864
sS'URL'
p4865
S'<function URL at 0x100554de8>'
p4866
sS'__file__'
p4867
S"'/Users/excon/Sites/dreamscape/applications/welcome/views/default/index.html'"
p4868
sS'db'
p4869
S"<DAL {'auth_event': <Table {'origin': <gluon.dal...'id': <gluon.dal.Field object at 0x1013fb7d0>}>}>"
p4870
sS'auth'
p4871
S'<gluon.tools.Auth object at 0x1013cf090>'
p4872
sS'P'
S"<class 'gluon.html.P'>"
p4873
sS'TFOOT'
p4874
S"<class 'gluon.html.TFOOT'>"
p4875
sS'XHTML'
p4876
S"<class 'gluon.html.XHTML'>"
p4877
sS'ON'
p4878
g1514
sS'OL'
p4879
S"<class 'gluon.html.OL'>"
p4880
sS'TEXTAREA'
p4881
S"<class 'gluon.html.TEXTAREA'>"
p4882
sS'MENU'
p4883
S"<class 'gluon.html.MENU'>"
p4884
sS'LOAD'
p4885
S'<gluon.compileapp.LoadFactory object at 0x1013cdb50>'
p4886
sS'CODE'
p4887
S"<class 'gluon.html.CODE'>"
p4888
sS'HTTP'
p4889
S"<class 'gluon.http.HTTP'>"
p4890
sS'HR'
p4891
S"<class 'gluon.html.HR'>"
p4892
sS'IS_DATETIME'
p4893
S"<class 'gluon.validators.IS_DATETIME'>"
p4894
sS'HEAD'
p4895
S"<class 'gluon.html.HEAD'>"
p4896
sS'LABEL'
p4897
S"<class 'gluon.html.LABEL'>"
p4898
sS'CLEANUP'
p4899
S"<class 'gluon.validators.CLEANUP'>"
p4900
sS'plugins'
p4901
S'<gluon.tools.PluginManager object at 0x101a4d210>'
p4902
sS'SELECT'
p4903
S"<class 'gluon.html.SELECT'>"
p4904
sS'use_janrain'
p4905
S'<function use_janrain at 0x1010ac320>'
p4906
sS'CENTER'
p4907
S"<class 'gluon.html.CENTER'>"
p4908
sS'prettydate'
p4909
S'<function prettydate at 0x1010a69b0>'
p4910
sS'Crud'
p4911
S"<class 'gluon.tools.Crud'>"
p4912
sS'Auth'
p4913
S"<class 'gluon.tools.Auth'>"
p4914
sS'__builtins__'
p4915
S"{'ArithmeticError': <type 'exceptions.ArithmeticError'>, 'AssertionError': <type 'exceptions.AssertionError'>, 'AttributeError': <type 'exceptions.AttributeError'>, 'BaseException': <type 'exceptions.BaseException'>, 'BufferError': <type 'exceptions.BufferError'>, 'BytesWarning': <type 'exceptions.BytesWarning'>, 'DeprecationWarning': <type 'exceptions.DeprecationWarning'>, 'EOFError': <type 'exceptions.EOFError'>, 'Ellipsis': Ellipsis, 'EnvironmentError': <type 'exceptions.EnvironmentError'>, ...}"
p4916
sS'BEAUTIFY'
p4917
S"<class 'gluon.html.BEAUTIFY'>"
p4918
sS'SQLFORM'
p4919
S"<class 'gluon.sqlhtml.SQLFORM'>"
p4920
sS'EM'
p4921
S"<class 'gluon.html.EM'>"
p4922
sS'redirect'
p4923
S'<function redirect at 0x101040758>'
p4924
sS'FIELDSET'
p4925
S"<class 'gluon.html.FIELDSET'>"
p4926
sS'IS_EQUAL_TO'
p4927
S"<class 'gluon.validators.IS_EQUAL_TO'>"
p4928
sS'embed64'
p4929
S'<function embed64 at 0x10068ff50>'
p4930
sS'IS_LIST_OF'
p4931
S"<class 'gluon.validators.IS_LIST_OF'>"
p4932
sS'INPUT'
p4933
S"<class 'gluon.html.INPUT'>"
p4934
sS'EMBED'
p4935
S"<class 'gluon.html.EMBED'>"
p4936
sS'_'
S'<function _ at 0x1013ff050>'
p4937
sS'FORM'
p4938
S"<class 'gluon.html.FORM'>"
p4939
sS'width_content'
p4940
S"'100%'"
p4941
sS'H2'
p4942
S"<class 'gluon.html.H2'>"
p4943
sS'H3'
p4944
S"<class 'gluon.html.H3'>"
p4945
sS'BUTTON'
p4946
S"<class 'gluon.html.BUTTON'>"
p4947
sS'H1'
p4948
S"<class 'gluon.html.H1'>"
p4949
sS'H6'
p4950
S"<class 'gluon.html.H6'>"
p4951
sS'H4'
p4952
S"<class 'gluon.html.H4'>"
p4953
sS'H5'
p4954
S"<class 'gluon.html.H5'>"
p4955
sS'UL'
p4956
S"<class 'gluon.html.UL'>"
p4957
sS'IS_UPPER'
p4958
S"<class 'gluon.validators.IS_UPPER'>"
p4959
sS'xmlescape'
p4960
S'<function xmlescape at 0x10054b0c8>'
p4961
sS'IS_TIME'
p4962
S"<class 'gluon.validators.IS_TIME'>"
p4963
sS'OPTION'
p4964
S"<class 'gluon.html.OPTION'>"
p4965
sS'TITLE'
p4966
S"<class 'gluon.html.TITLE'>"
p4967
sS'CRYPT'
p4968
S"<class 'gluon.validators.CRYPT'>"
p4969
sS'IS_EMPTY_OR'
p4970
S"<class 'gluon.validators.IS_EMPTY_OR'>"
p4971
sS'MARKMIN'
p4972
S"<class 'gluon.html.MARKMIN'>"
p4973
sS'COL'
p4974
S"<class 'gluon.html.COL'>"
p4975
sS'service'
p4976
S'<gluon.tools.Service object at 0x10100f950>'
p4977
sS'SCRIPT'
p4978
S"<class 'gluon.html.SCRIPT'>"
p4979
sS'TABLE'
p4980
S"<class 'gluon.html.TABLE'>"
p4981
sS'IS_IPV4'
p4982
S"<class 'gluon.validators.IS_IPV4'>"
p4983
sS'IS_LENGTH'
p4984
S"<class 'gluon.validators.IS_LENGTH'>"
p4985
sS'XML'
p4986
S"<class 'gluon.html.XML'>"
p4987
sS'B'
S"<class 'gluon.html.B'>"
p4988
sS'IMG'
p4989
S"<class 'gluon.html.IMG'>"
p4990
sS'SQLTABLE'
p4991
S"<class 'gluon.sqlhtml.SQLTABLE'>"
p4992
sS'IS_MATCH'
p4993
S"<class 'gluon.validators.IS_MATCH'>"
p4994
sS'IS_ALPHANUMERIC'
p4995
S"<class 'gluon.validators.IS_ALPHANUMERIC'>"
p4996
sS'SPAN'
p4997
S"<class 'gluon.html.SPAN'>"
p4998
sS'IS_SLUG'
p4999
S"<class 'gluon.validators.IS_SLUG'>"
p5000
sS'num'
p5001
S'1'
sS'META'
p5002
S"<class 'gluon.html.META'>"
p5003
sS'IS_DATE'
p5004
S"<class 'gluon.validators.IS_DATE'>"
p5005
sS'IS_EMAIL'
p5006
S"<class 'gluon.validators.IS_EMAIL'>"
p5007
sS'IS_NOT_EMPTY'
p5008
S"<class 'gluon.validators.IS_NOT_EMPTY'>"
p5009
sS'IS_FLOAT_IN_RANGE'
p5010
S"<class 'gluon.validators.IS_FLOAT_IN_RANGE'>"
p5011
sS'TBODY'
p5012
S"<class 'gluon.html.TBODY'>"
p5013
sS'CAT'
p5014
S"<class 'gluon.html.CAT'>"
p5015
sS'Field'
p5016
S"<class 'gluon.dal.Field'>"
p5017
sS'DIV'
p5018
S"<class 'gluon.html.DIV'>"
p5019
sS'LEGEND'
p5020
S"<class 'gluon.html.LEGEND'>"
p5021
sS'COLGROUP'
p5022
S"<class 'gluon.html.COLGROUP'>"
p5023
sS'DAL'
p5024
S"<class 'gluon.dal.DAL'>"
p5025
sS'TT'
p5026
S"<class 'gluon.html.TT'>"
p5027
sS'TR'
p5028
S"<class 'gluon.html.TR'>"
p5029
sS'LI'
p5030
S"<class 'gluon.html.LI'>"
p5031
sS'right_sidebar_enabled'
p5032
g99
sS'IFRAME'
p5033
S"<class 'gluon.html.IFRAME'>"
p5034
sS'TD'
p5035
S"<class 'gluon.html.TD'>"
p5036
sS'PluginManager'
p5037
S"<class 'gluon.tools.PluginManager'>"
p5038
sS'IS_URL'
p5039
S"<class 'gluon.validators.IS_URL'>"
p5040
sS'A'
S"<class 'gluon.html.A'>"
p5041
sS'STYLE'
p5042
S"<class 'gluon.html.STYLE'>"
p5043
sS'IS_DATETIME_IN_RANGE'
p5044
S"<class 'gluon.validators.IS_DATETIME_IN_RANGE'>"
p5045
sS'HTML'
p5046
S"<class 'gluon.html.HTML'>"
p5047
sS'IS_IMAGE'
p5048
S"<class 'gluon.validators.IS_IMAGE'>"
p5049
sS'nums'
p5050
S'(1, 2, 3, 4)'
p5051
sS'I'
S"<class 'gluon.html.I'>"
p5052
sS'crud'
p5053
S'<gluon.tools.Crud object at 0x10100f190>'
p5054
sS'right_sidebar_style'
p5055
S'\'style="display: none;"\''
p5056
sS'IS_NOT_IN_DB'
p5057
S"<class 'gluon.validators.IS_NOT_IN_DB'>"
p5058
sg2927
S"<Storage {'status': 200, 'body': <cStringIO.Stri...js/superfish.js'], 'view': 'default/index.html'}>"
p5059
sS'THEAD'
p5060
S"<class 'gluon.html.THEAD'>"
p5061
sS'IS_NULL_OR'
p5062
S"<class 'gluon.validators.IS_EMPTY_OR'>"
p5063
sS'left_sidebar_style'
p5064
S'\'style="display: none;"\''
p5065
sg55
S"<Storage {'body': <cStringIO.StringO object at 0..._vars': <Storage {}>, 'post_vars': <Storage {}>}>"
p5066
sS'IS_EXPR'
p5067
S"<class 'gluon.validators.IS_EXPR'>"
p5068
sS'T'
S'<gluon.languages.translator object at 0x1013cdf90>'
p5069
sS'IS_IN_SET'
p5070
S"<class 'gluon.validators.IS_IN_SET'>"
p5071
sS'IS_UPLOAD_FILENAME'
p5072
S"<class 'gluon.validators.IS_UPLOAD_FILENAME'>"
p5073
sS'style_content'
p5074
S'\'style="width: 100%"\''
p5075
sS'IS_DECIMAL_IN_RANGE'
p5076
S"<class 'gluon.validators.IS_DECIMAL_IN_RANGE'>"
p5077
sssS'traceback'
p5078
S'Traceback (most recent call last):\n  File "/Users/excon/Sites/dreamscape/gluon/restricted.py", line 194, in restricted\n    exec ccode in environment\n  File "/Users/excon/Sites/dreamscape/applications/welcome/views/default/index.html", line 84, in <module>\nTypeError: cannot concatenate \'str\' and \'int\' objects\n'
p5079
s.