(dp1
S'updated_at'
p2
(dp3
S'type'
p4
S'datetime'
p5
sS'sortable'
p6
I4
sS'sql'
p7
S'TIMESTAMP'
p8
ssS'created_at'
p9
(dp10
g4
g5
sg6
I3
sg7
S'TIMESTAMP'
p11
ssS'id'
p12
(dp13
g4
g12
sg6
I1
sg7
S'INTEGER PRIMARY KEY AUTOINCREMENT'
p14
ssS'details'
p15
(dp16
g4
S'text'
p17
sg6
I2
sg7
S'TEXT'
p18
ss.